
FPGA_Ram.elf:     file format elf32-tradlittlemips


Disassembly of section .bootrom:

9fc00000 <__reset_vector>:
9fc00000:	3c069fc0 	lui	a2,0x9fc0
9fc00004:	24c60014 	addiu	a2,a2,20
9fc00008:	00c00008 	jr	a2
9fc0000c:	40804800 	mtc0	zero,c0_count
9fc00010:	00000000 	nop

9fc00014 <__cpu_init>:
9fc00014:	40116000 	mfc0	s1,c0_status
9fc00018:	7e3104c0 	ext	s1,s1,0x13,0x1
9fc0001c:	12200002 	beqz	s1,9fc00028 <init_resources>
9fc00020:	00000000 	nop
9fc00024:	7000003f 	sdbbp

9fc00028 <init_resources>:
9fc00028:	3c069fc0 	lui	a2,0x9fc0
9fc0002c:	24c60288 	addiu	a2,a2,648
9fc00030:	00c0f809 	jalr	a2
9fc00034:	00000000 	nop
9fc00038:	3c069fc0 	lui	a2,0x9fc0
9fc0003c:	24c60308 	addiu	a2,a2,776
9fc00040:	00c0f809 	jalr	a2
9fc00044:	00000000 	nop
9fc00048:	3c069fc0 	lui	a2,0x9fc0
9fc0004c:	24c600a8 	addiu	a2,a2,168
9fc00050:	00c0f809 	jalr	a2
9fc00054:	00000000 	nop
9fc00058:	3c069fc0 	lui	a2,0x9fc0
9fc0005c:	24c60160 	addiu	a2,a2,352
9fc00060:	2405000f 	li	a1,15
9fc00064:	7ca6ef44 	ins	a2,a1,0x1d,0x1
9fc00068:	00c0f809 	jalr	a2
9fc0006c:	00000000 	nop
9fc00070:	3c069fc0 	lui	a2,0x9fc0
9fc00074:	24c60100 	addiu	a2,a2,256
9fc00078:	00c0f809 	jalr	a2
9fc0007c:	00000000 	nop
9fc00080:	3c1f9fc0 	lui	ra,0x9fc0
9fc00084:	27ff00a0 	addiu	ra,ra,160
9fc00088:	00002021 	move	a0,zero
9fc0008c:	3c028000 	lui	v0,0x8000
9fc00090:	24420324 	addiu	v0,v0,804
9fc00094:	4082f000 	mtc0	v0,c0_errorepc
9fc00098:	000000c0 	ehb
9fc0009c:	42000018 	eret

9fc000a0 <all_done>:
9fc000a0:	1000ffff 	b	9fc000a0 <all_done>
9fc000a4:	00000000 	nop

9fc000a8 <init_icache>:
9fc000a8:	40028001 	mfc0	v0,c0_config1
9fc000ac:	7c4314c0 	ext	v1,v0,0x13,0x3
9fc000b0:	10600011 	beqz	v1,9fc000f8 <done_icache>
9fc000b4:	00000000 	nop
9fc000b8:	24060002 	li	a2,2
9fc000bc:	00661804 	sllv	v1,a2,v1
9fc000c0:	7c441580 	ext	a0,v0,0x16,0x3
9fc000c4:	24060040 	li	a2,64
9fc000c8:	00862004 	sllv	a0,a2,a0
9fc000cc:	7c451400 	ext	a1,v0,0x10,0x3
9fc000d0:	20a50001 	addi	a1,a1,1
9fc000d4:	70852002 	mul	a0,a0,a1
9fc000d8:	3c068000 	lui	a2,0x8000
9fc000dc:	4080e000 	mtc0	zero,c0_taglo
9fc000e0:	4080e800 	mtc0	zero,c0_taghi
9fc000e4:	00803821 	move	a3,a0

9fc000e8 <next_icache_tag>:
9fc000e8:	bcc80000 	cache	0x8,0(a2)
9fc000ec:	20e7ffff 	addi	a3,a3,-1
9fc000f0:	14e0fffd 	bnez	a3,9fc000e8 <next_icache_tag>
9fc000f4:	00c33020 	add	a2,a2,v1

9fc000f8 <done_icache>:
9fc000f8:	03e00008 	jr	ra
9fc000fc:	00000000 	nop

9fc00100 <init_dcache>:
9fc00100:	40028001 	mfc0	v0,c0_config1
9fc00104:	7c431280 	ext	v1,v0,0xa,0x3
9fc00108:	10600013 	beqz	v1,9fc00158 <done_dcache>
9fc0010c:	00000000 	nop
9fc00110:	24060002 	li	a2,2
9fc00114:	00661804 	sllv	v1,a2,v1
9fc00118:	7c441340 	ext	a0,v0,0xd,0x3
9fc0011c:	24060040 	li	a2,64
9fc00120:	00862004 	sllv	a0,a2,a0
9fc00124:	7c4511c0 	ext	a1,v0,0x7,0x3
9fc00128:	20a50001 	addi	a1,a1,1
9fc0012c:	70852002 	mul	a0,a0,a1
9fc00130:	3c068000 	lui	a2,0x8000
9fc00134:	4080e000 	mtc0	zero,c0_taglo
9fc00138:	4080e800 	mtc0	zero,c0_taghi
9fc0013c:	4080e002 	mtc0	zero,c0_taglo1
9fc00140:	4080e802 	mtc0	zero,c0_taghi1
9fc00144:	00803821 	move	a3,a0

9fc00148 <next_dcache_tag>:
9fc00148:	bcc90000 	cache	0x9,0(a2)
9fc0014c:	20e7ffff 	addi	a3,a3,-1
9fc00150:	14e0fffd 	bnez	a3,9fc00148 <next_dcache_tag>
9fc00154:	00c33020 	add	a2,a2,v1

9fc00158 <done_dcache>:
9fc00158:	03e00008 	jr	ra
9fc0015c:	00000000 	nop

9fc00160 <change_k0_cca>:
9fc00160:	40028000 	mfc0	v0,c0_config
9fc00164:	24030003 	li	v1,3
9fc00168:	7c621004 	ins	v0,v1,0x0,0x3
9fc0016c:	40828000 	mtc0	v0,c0_config
9fc00170:	03e00408 	jr.hb	ra
9fc00174:	00000000 	nop
9fc00178:	00000000 	nop
9fc0017c:	00000000 	nop
9fc00180:	00000000 	nop
9fc00184:	00000000 	nop
9fc00188:	00000000 	nop
9fc0018c:	00000000 	nop
9fc00190:	00000000 	nop
9fc00194:	00000000 	nop
9fc00198:	00000000 	nop
9fc0019c:	00000000 	nop
9fc001a0:	00000000 	nop
9fc001a4:	00000000 	nop
9fc001a8:	00000000 	nop
9fc001ac:	00000000 	nop
9fc001b0:	00000000 	nop
9fc001b4:	00000000 	nop
9fc001b8:	00000000 	nop
9fc001bc:	00000000 	nop
9fc001c0:	00000000 	nop
9fc001c4:	00000000 	nop
9fc001c8:	00000000 	nop
9fc001cc:	00000000 	nop
9fc001d0:	00000000 	nop
9fc001d4:	00000000 	nop
9fc001d8:	00000000 	nop
9fc001dc:	00000000 	nop
9fc001e0:	00000000 	nop
9fc001e4:	00000000 	nop
9fc001e8:	00000000 	nop
9fc001ec:	00000000 	nop
9fc001f0:	00000000 	nop
9fc001f4:	00000000 	nop
9fc001f8:	00000000 	nop
9fc001fc:	00000000 	nop
9fc00200:	7000003f 	sdbbp
9fc00204:	00000000 	nop
9fc00208:	00000000 	nop
9fc0020c:	00000000 	nop
9fc00210:	00000000 	nop
9fc00214:	00000000 	nop
9fc00218:	00000000 	nop
9fc0021c:	00000000 	nop
9fc00220:	00000000 	nop
9fc00224:	00000000 	nop
9fc00228:	00000000 	nop
9fc0022c:	00000000 	nop
9fc00230:	00000000 	nop
9fc00234:	00000000 	nop
9fc00238:	00000000 	nop
9fc0023c:	00000000 	nop
9fc00240:	00000000 	nop
9fc00244:	00000000 	nop
9fc00248:	00000000 	nop
9fc0024c:	00000000 	nop
9fc00250:	00000000 	nop
9fc00254:	00000000 	nop
9fc00258:	00000000 	nop
9fc0025c:	00000000 	nop
9fc00260:	00000000 	nop
9fc00264:	00000000 	nop
9fc00268:	00000000 	nop
9fc0026c:	00000000 	nop
9fc00270:	00000000 	nop
9fc00274:	00000000 	nop
9fc00278:	00000000 	nop
9fc0027c:	00000000 	nop
9fc00280:	7000003f 	sdbbp
9fc00284:	00000000 	nop

9fc00288 <init_cp0>:
9fc00288:	3c030040 	lui	v1,0x40
9fc0028c:	34630404 	ori	v1,v1,0x404
9fc00290:	40836000 	mtc0	v1,c0_status
9fc00294:	40028001 	mfc0	v0,c0_config1
9fc00298:	7c4300c0 	ext	v1,v0,0x3,0x1
9fc0029c:	10600011 	beqz	v1,9fc002e4 <done_wr>
9fc002a0:	24030007 	li	v1,7
9fc002a4:	40839800 	mtc0	v1,c0_watchhi
9fc002a8:	40809000 	mtc0	zero,c0_watchlo
9fc002ac:	40839801 	mtc0	v1,c0_watchhi,1
9fc002b0:	40809001 	mtc0	zero,c0_watchlo,1
9fc002b4:	40839802 	mtc0	v1,c0_watchhi,2
9fc002b8:	40809002 	mtc0	zero,c0_watchlo,2
9fc002bc:	40839803 	mtc0	v1,c0_watchhi,3
9fc002c0:	40809003 	mtc0	zero,c0_watchlo,3
9fc002c4:	40839804 	mtc0	v1,c0_watchhi,4
9fc002c8:	40809004 	mtc0	zero,c0_watchlo,4
9fc002cc:	40839805 	mtc0	v1,c0_watchhi,5
9fc002d0:	40809005 	mtc0	zero,c0_watchlo,5
9fc002d4:	40839806 	mtc0	v1,c0_watchhi,6
9fc002d8:	40809006 	mtc0	zero,c0_watchlo,6
9fc002dc:	40839807 	mtc0	v1,c0_watchhi,7
9fc002e0:	40809007 	mtc0	zero,c0_watchlo,7

9fc002e4 <done_wr>:
9fc002e4:	40806800 	mtc0	zero,c0_cause
9fc002e8:	40805800 	mtc0	zero,c0_compare
9fc002ec:	03e00008 	jr	ra
9fc002f0:	00000000 	nop
9fc002f4:	00000000 	nop
9fc002f8:	00000000 	nop
9fc002fc:	00000000 	nop
9fc00300:	7000003f 	sdbbp
9fc00304:	00000000 	nop

9fc00308 <init_tlb>:
9fc00308:	40038000 	mfc0	v1,c0_config
9fc0030c:	7c6311c0 	ext	v1,v1,0x7,0x3
9fc00310:	24070001 	li	a3,1
9fc00314:	1467000f 	bne	v1,a3,9fc00354 <done_init_tlb>
9fc00318:	40028001 	mfc0	v0,c0_config1
9fc0031c:	00000000 	nop

9fc00320 <start_init_tlb>:
9fc00320:	7c432e40 	ext	v1,v0,0x19,0x6
9fc00324:	40801000 	mtc0	zero,c0_entrylo0
9fc00328:	40801800 	mtc0	zero,c0_entrylo1
9fc0032c:	40802800 	mtc0	zero,c0_pagemask
9fc00330:	40803000 	mtc0	zero,c0_wired
9fc00334:	3c048000 	lui	a0,0x8000

9fc00338 <next_tlb_entry_pair>:
9fc00338:	40830000 	mtc0	v1,c0_index
9fc0033c:	40845000 	mtc0	a0,c0_entryhi
9fc00340:	000000c0 	ehb
9fc00344:	42000002 	tlbwi
9fc00348:	20844000 	addi	a0,a0,16384
9fc0034c:	1460fffa 	bnez	v1,9fc00338 <next_tlb_entry_pair>
9fc00350:	2063ffff 	addi	v1,v1,-1

9fc00354 <done_init_tlb>:
9fc00354:	03e00008 	jr	ra
9fc00358:	00000000 	nop
9fc0035c:	00000000 	nop
9fc00360:	00000000 	nop
9fc00364:	00000000 	nop
9fc00368:	00000000 	nop
9fc0036c:	00000000 	nop
9fc00370:	00000000 	nop
9fc00374:	00000000 	nop
9fc00378:	00000000 	nop
9fc0037c:	00000000 	nop
9fc00380:	3c1abf80 	lui	k0,0xbf80
9fc00384:	241b5555 	li	k1,21845
9fc00388:	af5b0000 	sw	k1,0(k0)
9fc0038c:	42000018 	eret
9fc00390:	00000000 	nop
9fc00394:	00000000 	nop
9fc00398:	00000000 	nop
9fc0039c:	00000000 	nop
9fc003a0:	00000000 	nop
9fc003a4:	00000000 	nop
9fc003a8:	00000000 	nop
9fc003ac:	00000000 	nop
9fc003b0:	00000000 	nop
9fc003b4:	00000000 	nop
9fc003b8:	00000000 	nop
9fc003bc:	00000000 	nop
9fc003c0:	00000000 	nop
9fc003c4:	00000000 	nop
9fc003c8:	00000000 	nop
9fc003cc:	00000000 	nop
9fc003d0:	00000000 	nop
9fc003d4:	00000000 	nop
9fc003d8:	00000000 	nop
9fc003dc:	00000000 	nop
9fc003e0:	00000000 	nop
9fc003e4:	00000000 	nop
9fc003e8:	00000000 	nop
9fc003ec:	00000000 	nop
9fc003f0:	00000000 	nop
9fc003f4:	00000000 	nop
9fc003f8:	00000000 	nop
9fc003fc:	00000000 	nop
9fc00400:	00000000 	nop
9fc00404:	00000000 	nop
9fc00408:	00000000 	nop
9fc0040c:	00000000 	nop
9fc00410:	00000000 	nop
9fc00414:	00000000 	nop
9fc00418:	00000000 	nop
9fc0041c:	00000000 	nop
9fc00420:	00000000 	nop
9fc00424:	00000000 	nop
9fc00428:	00000000 	nop
9fc0042c:	00000000 	nop
9fc00430:	00000000 	nop
9fc00434:	00000000 	nop
9fc00438:	00000000 	nop
9fc0043c:	00000000 	nop
9fc00440:	00000000 	nop
9fc00444:	00000000 	nop
9fc00448:	00000000 	nop
9fc0044c:	00000000 	nop
9fc00450:	00000000 	nop
9fc00454:	00000000 	nop
9fc00458:	00000000 	nop
9fc0045c:	00000000 	nop
9fc00460:	00000000 	nop
9fc00464:	00000000 	nop
9fc00468:	00000000 	nop
9fc0046c:	00000000 	nop
9fc00470:	00000000 	nop
9fc00474:	00000000 	nop
9fc00478:	00000000 	nop
9fc0047c:	00000000 	nop
9fc00480:	3c18bf80 	lui	t8,0xbf80
9fc00484:	4084f800 	mtc0	a0,c0_desave
9fc00488:	4004c000 	mfc0	a0,c0_depc
9fc0048c:	af040000 	sw	a0,0(t8)
9fc00490:	4004f800 	mfc0	a0,c0_desave
9fc00494:	1000ffff 	b	9fc00494 <done_init_tlb+0x140>
9fc00498:	00000000 	nop
9fc0049c:	00000000 	nop

Disassembly of section .exception_vector:

80000000 <__exception_entry>:
80000000:	3c1b8000 	lui	k1,0x8000
80000004:	277b14b8 	addiu	k1,k1,5304
80000008:	8f7b0000 	lw	k1,0(k1)
8000000c:	13600003 	beqz	k1,8000001c <__exception_entry+0x1c>
80000010:	00000000 	nop
80000014:	080000c9 	j	80000324 <_start>
80000018:	00000000 	nop
8000001c:	3c1b8000 	lui	k1,0x8000
80000020:	277b18b8 	addiu	k1,k1,6328
80000024:	1360fff6 	beqz	k1,80000000 <__exception_entry>
80000028:	00000000 	nop
8000002c:	03600008 	jr	k1
80000030:	00000000 	nop
80000034:	00000000 	nop
80000038:	00000000 	nop
8000003c:	00000000 	nop
80000040:	00000000 	nop
80000044:	00000000 	nop
80000048:	00000000 	nop
8000004c:	00000000 	nop
80000050:	00000000 	nop
80000054:	00000000 	nop
80000058:	00000000 	nop
8000005c:	00000000 	nop
80000060:	00000000 	nop
80000064:	00000000 	nop
80000068:	00000000 	nop
8000006c:	00000000 	nop
80000070:	00000000 	nop
80000074:	00000000 	nop
80000078:	00000000 	nop
8000007c:	00000000 	nop

80000080 <__xtlb_refill_loop>:
80000080:	3c1b8000 	lui	k1,0x8000
80000084:	277b18b8 	addiu	k1,k1,6328
80000088:	1360fffd 	beqz	k1,80000080 <__xtlb_refill_loop>
8000008c:	00000000 	nop
80000090:	03600008 	jr	k1
80000094:	00000000 	nop
80000098:	00000000 	nop
8000009c:	00000000 	nop
800000a0:	00000000 	nop
800000a4:	00000000 	nop
800000a8:	00000000 	nop
800000ac:	00000000 	nop
800000b0:	00000000 	nop
800000b4:	00000000 	nop
800000b8:	00000000 	nop
800000bc:	00000000 	nop
800000c0:	00000000 	nop
800000c4:	00000000 	nop
800000c8:	00000000 	nop
800000cc:	00000000 	nop
800000d0:	00000000 	nop
800000d4:	00000000 	nop
800000d8:	00000000 	nop
800000dc:	00000000 	nop
800000e0:	00000000 	nop
800000e4:	00000000 	nop
800000e8:	00000000 	nop
800000ec:	00000000 	nop
800000f0:	00000000 	nop
800000f4:	00000000 	nop
800000f8:	00000000 	nop
800000fc:	00000000 	nop

80000100 <__cache_error_loop>:
80000100:	3c1b0000 	lui	k1,0x0
80000104:	277b0000 	addiu	k1,k1,0
80000108:	1360fffd 	beqz	k1,80000100 <__cache_error_loop>
8000010c:	00000000 	nop
80000110:	03600008 	jr	k1
80000114:	00000000 	nop
80000118:	00000000 	nop
8000011c:	00000000 	nop
80000120:	00000000 	nop
80000124:	00000000 	nop
80000128:	00000000 	nop
8000012c:	00000000 	nop
80000130:	00000000 	nop
80000134:	00000000 	nop
80000138:	00000000 	nop
8000013c:	00000000 	nop
80000140:	00000000 	nop
80000144:	00000000 	nop
80000148:	00000000 	nop
8000014c:	00000000 	nop
80000150:	00000000 	nop
80000154:	00000000 	nop
80000158:	00000000 	nop
8000015c:	00000000 	nop
80000160:	00000000 	nop
80000164:	00000000 	nop
80000168:	00000000 	nop
8000016c:	00000000 	nop
80000170:	00000000 	nop
80000174:	00000000 	nop
80000178:	00000000 	nop
8000017c:	00000000 	nop
80000180:	afbbffc8 	sw	k1,-56(sp)
80000184:	3c1b8000 	lui	k1,0x8000
80000188:	277b18b8 	addiu	k1,k1,6328
8000018c:	03600008 	jr	k1
80000190:	00000000 	nop
80000194:	00000000 	nop
80000198:	00000000 	nop
8000019c:	00000000 	nop
800001a0:	00000000 	nop
800001a4:	00000000 	nop
800001a8:	00000000 	nop
800001ac:	00000000 	nop
800001b0:	00000000 	nop
800001b4:	00000000 	nop
800001b8:	00000000 	nop
800001bc:	00000000 	nop
800001c0:	00000000 	nop
800001c4:	00000000 	nop
800001c8:	00000000 	nop
800001cc:	00000000 	nop
800001d0:	00000000 	nop
800001d4:	00000000 	nop
800001d8:	00000000 	nop
800001dc:	00000000 	nop
800001e0:	00000000 	nop
800001e4:	00000000 	nop
800001e8:	00000000 	nop
800001ec:	00000000 	nop
800001f0:	00000000 	nop
800001f4:	00000000 	nop
800001f8:	00000000 	nop
800001fc:	00000000 	nop

80000200 <__isr_vec>:
80000200:	3c1b0000 	lui	k1,0x0
80000204:	277b0000 	addiu	k1,k1,0
80000208:	1360003d 	beqz	k1,80000300 <__isr_vec_fallback>
8000020c:	00000000 	nop
80000210:	03600008 	jr	k1
80000214:	00000000 	nop
80000218:	00000000 	nop
8000021c:	00000000 	nop

80000220 <__isr_vec_sw1>:
80000220:	3c1b0000 	lui	k1,0x0
80000224:	277b0000 	addiu	k1,k1,0
80000228:	13600035 	beqz	k1,80000300 <__isr_vec_fallback>
8000022c:	00000000 	nop
80000230:	03600008 	jr	k1
80000234:	00000000 	nop
80000238:	00000000 	nop
8000023c:	00000000 	nop

80000240 <__isr_vec_hw0>:
80000240:	3c1b0000 	lui	k1,0x0
80000244:	277b0000 	addiu	k1,k1,0
80000248:	1360002d 	beqz	k1,80000300 <__isr_vec_fallback>
8000024c:	00000000 	nop
80000250:	03600008 	jr	k1
80000254:	00000000 	nop
80000258:	00000000 	nop
8000025c:	00000000 	nop

80000260 <__isr_vec_hw1>:
80000260:	3c1b0000 	lui	k1,0x0
80000264:	277b0000 	addiu	k1,k1,0
80000268:	13600025 	beqz	k1,80000300 <__isr_vec_fallback>
8000026c:	00000000 	nop
80000270:	03600008 	jr	k1
80000274:	00000000 	nop
80000278:	00000000 	nop
8000027c:	00000000 	nop

80000280 <__isr_vec_hw2>:
80000280:	3c1b0000 	lui	k1,0x0
80000284:	277b0000 	addiu	k1,k1,0
80000288:	1360001d 	beqz	k1,80000300 <__isr_vec_fallback>
8000028c:	00000000 	nop
80000290:	03600008 	jr	k1
80000294:	00000000 	nop
80000298:	00000000 	nop
8000029c:	00000000 	nop

800002a0 <__isr_vec_hw3>:
800002a0:	3c1b0000 	lui	k1,0x0
800002a4:	277b0000 	addiu	k1,k1,0
800002a8:	13600015 	beqz	k1,80000300 <__isr_vec_fallback>
800002ac:	00000000 	nop
800002b0:	03600008 	jr	k1
800002b4:	00000000 	nop
800002b8:	00000000 	nop
800002bc:	00000000 	nop

800002c0 <__isr_vec_hw4>:
800002c0:	3c1b0000 	lui	k1,0x0
800002c4:	277b0000 	addiu	k1,k1,0
800002c8:	1360000d 	beqz	k1,80000300 <__isr_vec_fallback>
800002cc:	00000000 	nop
800002d0:	03600008 	jr	k1
800002d4:	00000000 	nop
800002d8:	00000000 	nop
800002dc:	00000000 	nop

800002e0 <__isr_vec_hw5>:
800002e0:	3c1b0000 	lui	k1,0x0
800002e4:	277b0000 	addiu	k1,k1,0
800002e8:	13600005 	beqz	k1,80000300 <__isr_vec_fallback>
800002ec:	00000000 	nop
800002f0:	03600008 	jr	k1
800002f4:	00000000 	nop
800002f8:	00000000 	nop
800002fc:	00000000 	nop

80000300 <__isr_vec_fallback>:
80000300:	3c1b0000 	lui	k1,0x0
80000304:	277b0000 	addiu	k1,k1,0
80000308:	1360fffd 	beqz	k1,80000300 <__isr_vec_fallback>
8000030c:	00000000 	nop
80000310:	03600008 	jr	k1
80000314:	00000000 	nop
80000318:	00000000 	nop
8000031c:	00000000 	nop

Disassembly of section .text:

80000320 <_ftext>:
80000320:	00000000 	nop

80000324 <_start>:
80000324:	3c088000 	lui	t0,0x8000
80000328:	25081f98 	addiu	t0,t0,8088
8000032c:	ad040000 	sw	a0,0(t0)
80000330:	ad050004 	sw	a1,4(t0)
80000334:	ad060008 	sw	a2,8(t0)
80000338:	3c198000 	lui	t9,0x8000
8000033c:	273914bc 	addiu	t9,t9,5308
80000340:	13200006 	beqz	t9,8000035c <_start+0x38>
80000344:	00000000 	nop
80000348:	03e02021 	move	a0,ra
8000034c:	0320f809 	jalr	t9
80000350:	00000000 	nop
80000354:	10000004 	b	80000368 <_start+0x44>
80000358:	00000000 	nop
8000035c:	40806800 	mtc0	zero,c0_cause
80000360:	00000000 	nop
80000364:	00001021 	move	v0,zero
80000368:	3c088000 	lui	t0,0x8000
8000036c:	25081ad8 	addiu	t0,t0,6872
80000370:	3c098000 	lui	t1,0x8000
80000374:	25291af0 	addiu	t1,t1,6896
80000378:	2529ffe8 	addiu	t1,t1,-24
8000037c:	15090021 	bne	t0,t1,80000404 <_start+0xe0>
80000380:	00000000 	nop
80000384:	91090002 	lbu	t1,2(t0)
80000388:	2d230003 	sltiu	v1,t1,3
8000038c:	10600003 	beqz	v1,8000039c <_start+0x78>
80000390:	39290040 	xori	t1,t1,0x40
80000394:	3c030010 	lui	v1,0x10
80000398:	00431025 	or	v0,v0,v1
8000039c:	15200002 	bnez	t1,800003a8 <_start+0x84>
800003a0:	240300e0 	li	v1,224
800003a4:	00431025 	or	v0,v0,v1
800003a8:	8d09000c 	lw	t1,12(t0)
800003ac:	31290013 	andi	t1,t1,0x13
800003b0:	11200002 	beqz	t1,800003bc <_start+0x98>
800003b4:	3c030100 	lui	v1,0x100
800003b8:	00431025 	or	v0,v0,v1
800003bc:	91090007 	lbu	t1,7(t0)
800003c0:	39290003 	xori	t1,t1,0x3
800003c4:	11200010 	beqz	t1,80000408 <_start+0xe4>
800003c8:	3c032000 	lui	v1,0x2000
800003cc:	00431025 	or	v0,v0,v1
800003d0:	91090005 	lbu	t1,5(t0)
800003d4:	39290002 	xori	t1,t1,0x2
800003d8:	15200002 	bnez	t1,800003e4 <_start+0xc0>
800003dc:	3c030400 	lui	v1,0x400
800003e0:	00431025 	or	v0,v0,v1
800003e4:	8d09000c 	lw	t1,12(t0)
800003e8:	31290200 	andi	t1,t1,0x200
800003ec:	11200006 	beqz	t1,80000408 <_start+0xe4>
800003f0:	3c030400 	lui	v1,0x400
800003f4:	00431025 	or	v0,v0,v1
800003f8:	3c030800 	lui	v1,0x800
800003fc:	10000002 	b	80000408 <_start+0xe4>
80000400:	40838005 	mtc0	v1,$16,5
80000404:	24020000 	li	v0,0
80000408:	40826000 	mtc0	v0,c0_status
8000040c:	00000000 	nop
80000410:	3c080000 	lui	t0,0x0
80000414:	25080000 	addiu	t0,t0,0
80000418:	11000003 	beqz	t0,80000428 <_start+0x104>
8000041c:	00000000 	nop
80000420:	0100f809 	jalr	t0
80000424:	00000000 	nop
80000428:	3c028000 	lui	v0,0x8000
8000042c:	24420438 	addiu	v0,v0,1080
80000430:	00400008 	jr	v0
80000434:	00000000 	nop
80000438:	3c1c8001 	lui	gp,0x8001
8000043c:	279ca430 	addiu	gp,gp,-23504

80000440 <zerobss>:
80000440:	3c028000 	lui	v0,0x8000
80000444:	2442243c 	addiu	v0,v0,9276
80000448:	3c038000 	lui	v1,0x8000
8000044c:	2463245c 	addiu	v1,v1,9308
80000450:	10430004 	beq	v0,v1,80000464 <zerobss+0x24>
80000454:	00000000 	nop
80000458:	24420004 	addiu	v0,v0,4
8000045c:	1443fffe 	bne	v0,v1,80000458 <zerobss+0x18>
80000460:	ac40fffc 	sw	zero,-4(v0)
80000464:	3c088004 	lui	t0,0x8004
80000468:	25080000 	addiu	t0,t0,0
8000046c:	1500000b 	bnez	t0,8000049c <zerobss+0x5c>
80000470:	00000000 	nop
80000474:	3c1d8000 	lui	sp,0x8000
80000478:	27bd2860 	addiu	sp,sp,10336
8000047c:	24040000 	li	a0,0
80000480:	3c058000 	lui	a1,0x8000
80000484:	0c000333 	jal	80000ccc <_get_ram_range>
80000488:	24a52860 	addiu	a1,a1,10336
8000048c:	3c048000 	lui	a0,0x8000
80000490:	24842860 	addiu	a0,a0,10336
80000494:	8c880000 	lw	t0,0(a0)
80000498:	8d00fffc 	lw	zero,-4(t0)
8000049c:	2508ffc0 	addiu	t0,t0,-64
800004a0:	0100e821 	move	sp,t0

800004a4 <init>:
800004a4:	3c190000 	lui	t9,0x0
800004a8:	27390000 	addiu	t9,t9,0
800004ac:	13200003 	beqz	t9,800004bc <init+0x18>
800004b0:	00000000 	nop
800004b4:	0320f809 	jalr	t9
800004b8:	00000000 	nop
800004bc:	3c190000 	lui	t9,0x0
800004c0:	27390000 	addiu	t9,t9,0
800004c4:	13200003 	beqz	t9,800004d4 <init+0x30>
800004c8:	00000000 	nop
800004cc:	0320f809 	jalr	t9
800004d0:	00000000 	nop
800004d4:	3c048000 	lui	a0,0x8000
800004d8:	24841aa4 	addiu	a0,a0,6820
800004dc:	0c000228 	jal	800008a0 <atexit>
800004e0:	00000000 	nop
800004e4:	0c0006a0 	jal	80001a80 <_init>
800004e8:	00000000 	nop
800004ec:	3c088000 	lui	t0,0x8000
800004f0:	25081f98 	addiu	t0,t0,8088
800004f4:	8d040000 	lw	a0,0(t0)
800004f8:	8d050004 	lw	a1,4(t0)
800004fc:	8d060008 	lw	a2,8(t0)
80000500:	3c088000 	lui	t0,0x8000
80000504:	25081758 	addiu	t0,t0,5976
80000508:	11000003 	beqz	t0,80000518 <init+0x74>
8000050c:	00000000 	nop
80000510:	0100f809 	jalr	t0
80000514:	00000000 	nop
80000518:	1c800013 	bgtz	a0,80000568 <init+0xc4>
8000051c:	00000000 	nop
80000520:	1080000c 	beqz	a0,80000554 <init+0xb0>
80000524:	00000000 	nop
80000528:	2884ffff 	slti	a0,a0,-1
8000052c:	14800009 	bnez	a0,80000554 <init+0xb0>
80000530:	00000000 	nop
80000534:	3c088000 	lui	t0,0x8000
80000538:	25080c14 	addiu	t0,t0,3092
8000053c:	11000005 	beqz	t0,80000554 <init+0xb0>
80000540:	00000000 	nop
80000544:	0100f809 	jalr	t0
80000548:	00000000 	nop
8000054c:	10000006 	b	80000568 <init+0xc4>
80000550:	00000000 	nop
80000554:	00002021 	move	a0,zero
80000558:	27a50020 	addiu	a1,sp,32
8000055c:	27a60028 	addiu	a2,sp,40
80000560:	aca00000 	sw	zero,0(a1)
80000564:	acc00000 	sw	zero,0(a2)
80000568:	0c0001fd 	jal	800007f4 <main>
8000056c:	00000000 	nop
80000570:	0c000232 	jal	800008c8 <exit>
80000574:	00402021 	move	a0,v0

80000578 <_exit>:
80000578:	3c088000 	lui	t0,0x8000
8000057c:	25081f98 	addiu	t0,t0,8088
80000580:	ad040000 	sw	a0,0(t0)
80000584:	3c080000 	lui	t0,0x0
80000588:	25080000 	addiu	t0,t0,0
8000058c:	11000003 	beqz	t0,8000059c <_exit+0x24>
80000590:	00000000 	nop
80000594:	0100f809 	jalr	t0
80000598:	00000000 	nop
8000059c:	3c088000 	lui	t0,0x8000
800005a0:	25081f98 	addiu	t0,t0,8088
800005a4:	0c0002e3 	jal	80000b8c <__exit>
800005a8:	8d040000 	lw	a0,0(t0)
800005ac:	03ff000d 	break	0x3ff
800005b0:	1000fff1 	b	80000578 <_exit>
800005b4:	00000000 	nop

800005b8 <deregister_tm_clones>:
800005b8:	3c048000 	lui	a0,0x8000
800005bc:	3c028000 	lui	v0,0x8000
800005c0:	2484242c 	addiu	a0,a0,9260
800005c4:	2442242f 	addiu	v0,v0,9263
800005c8:	00441023 	subu	v0,v0,a0
800005cc:	2c420007 	sltiu	v0,v0,7
800005d0:	14400006 	bnez	v0,800005ec <deregister_tm_clones+0x34>
800005d4:	3c190000 	lui	t9,0x0
800005d8:	27390000 	addiu	t9,t9,0
800005dc:	13200003 	beqz	t9,800005ec <deregister_tm_clones+0x34>
800005e0:	00000000 	nop
800005e4:	03200008 	jr	t9
800005e8:	00000000 	nop
800005ec:	03e00008 	jr	ra
800005f0:	00000000 	nop

800005f4 <register_tm_clones>:
800005f4:	3c048000 	lui	a0,0x8000
800005f8:	3c028000 	lui	v0,0x8000
800005fc:	2484242c 	addiu	a0,a0,9260
80000600:	2442242c 	addiu	v0,v0,9260
80000604:	00441023 	subu	v0,v0,a0
80000608:	00021083 	sra	v0,v0,0x2
8000060c:	00022fc2 	srl	a1,v0,0x1f
80000610:	00a22821 	addu	a1,a1,v0
80000614:	00052843 	sra	a1,a1,0x1
80000618:	10a00006 	beqz	a1,80000634 <register_tm_clones+0x40>
8000061c:	3c190000 	lui	t9,0x0
80000620:	27390000 	addiu	t9,t9,0
80000624:	13200003 	beqz	t9,80000634 <register_tm_clones+0x40>
80000628:	00000000 	nop
8000062c:	03200008 	jr	t9
80000630:	00000000 	nop
80000634:	03e00008 	jr	ra
80000638:	00000000 	nop

8000063c <__do_global_dtors_aux>:
8000063c:	27bdffd8 	addiu	sp,sp,-40
80000640:	afb10018 	sw	s1,24(sp)
80000644:	3c118000 	lui	s1,0x8000
80000648:	afbf0024 	sw	ra,36(sp)
8000064c:	afb30020 	sw	s3,32(sp)
80000650:	afb2001c 	sw	s2,28(sp)
80000654:	afb00014 	sw	s0,20(sp)
80000658:	9222243c 	lbu	v0,9276(s1)
8000065c:	14400020 	bnez	v0,800006e0 <__do_global_dtors_aux+0xa4>
80000660:	3c028000 	lui	v0,0x8000
80000664:	3c108000 	lui	s0,0x8000
80000668:	24421ad0 	addiu	v0,v0,6864
8000066c:	26101ad4 	addiu	s0,s0,6868
80000670:	3c138000 	lui	s3,0x8000
80000674:	02028023 	subu	s0,s0,v0
80000678:	00409021 	move	s2,v0
8000067c:	00108083 	sra	s0,s0,0x2
80000680:	2610ffff 	addiu	s0,s0,-1
80000684:	8e622440 	lw	v0,9280(s3)
80000688:	0050182b 	sltu	v1,v0,s0
8000068c:	10600009 	beqz	v1,800006b4 <__do_global_dtors_aux+0x78>
80000690:	24420001 	addiu	v0,v0,1
80000694:	ae622440 	sw	v0,9280(s3)
80000698:	00021080 	sll	v0,v0,0x2
8000069c:	02421021 	addu	v0,s2,v0
800006a0:	8c420000 	lw	v0,0(v0)
800006a4:	0040f809 	jalr	v0
800006a8:	00000000 	nop
800006ac:	1000fff6 	b	80000688 <__do_global_dtors_aux+0x4c>
800006b0:	8e622440 	lw	v0,9280(s3)
800006b4:	0c00016e 	jal	800005b8 <deregister_tm_clones>
800006b8:	00000000 	nop
800006bc:	3c020000 	lui	v0,0x0
800006c0:	24420000 	addiu	v0,v0,0
800006c4:	10400005 	beqz	v0,800006dc <__do_global_dtors_aux+0xa0>
800006c8:	24020001 	li	v0,1
800006cc:	3c048000 	lui	a0,0x8000
800006d0:	0c000000 	jal	80000000 <__app_start>
800006d4:	24841ac0 	addiu	a0,a0,6848
800006d8:	24020001 	li	v0,1
800006dc:	a222243c 	sb	v0,9276(s1)
800006e0:	8fbf0024 	lw	ra,36(sp)
800006e4:	8fb30020 	lw	s3,32(sp)
800006e8:	8fb2001c 	lw	s2,28(sp)
800006ec:	8fb10018 	lw	s1,24(sp)
800006f0:	8fb00014 	lw	s0,20(sp)
800006f4:	03e00008 	jr	ra
800006f8:	27bd0028 	addiu	sp,sp,40

800006fc <frame_dummy>:
800006fc:	3c020000 	lui	v0,0x0
80000700:	27bdffe8 	addiu	sp,sp,-24
80000704:	24420000 	addiu	v0,v0,0
80000708:	10400006 	beqz	v0,80000724 <frame_dummy+0x28>
8000070c:	afbf0014 	sw	ra,20(sp)
80000710:	3c048000 	lui	a0,0x8000
80000714:	3c058000 	lui	a1,0x8000
80000718:	24841ac0 	addiu	a0,a0,6848
8000071c:	0c000000 	jal	80000000 <__app_start>
80000720:	24a52444 	addiu	a1,a1,9284
80000724:	3c048000 	lui	a0,0x8000
80000728:	24841ac4 	addiu	a0,a0,6852
8000072c:	8c820000 	lw	v0,0(a0)
80000730:	10400008 	beqz	v0,80000754 <frame_dummy+0x58>
80000734:	8fbf0014 	lw	ra,20(sp)
80000738:	3c020000 	lui	v0,0x0
8000073c:	24420000 	addiu	v0,v0,0
80000740:	10400004 	beqz	v0,80000754 <frame_dummy+0x58>
80000744:	00000000 	nop
80000748:	0040f809 	jalr	v0
8000074c:	00000000 	nop
80000750:	8fbf0014 	lw	ra,20(sp)
80000754:	0800017d 	j	800005f4 <register_tm_clones>
80000758:	27bd0018 	addiu	sp,sp,24

8000075c <delay_ms>:
8000075c:	27bdfff0 	addiu	sp,sp,-16
80000760:	afa00000 	sw	zero,0(sp)
80000764:	afa00004 	sw	zero,4(sp)
80000768:	afa00008 	sw	zero,8(sp)
8000076c:	3c02bf80 	lui	v0,0xbf80
80000770:	8c420034 	lw	v0,52(v0)
80000774:	afa20000 	sw	v0,0(sp)
80000778:	8fa20008 	lw	v0,8(sp)
8000077c:	0044102b 	sltu	v0,v0,a0
80000780:	1040000c 	beqz	v0,800007b4 <delay_ms+0x58>
80000784:	00000000 	nop
80000788:	3c05bf80 	lui	a1,0xbf80
8000078c:	8ca20034 	lw	v0,52(a1)
80000790:	afa20004 	sw	v0,4(sp)
80000794:	8fa20004 	lw	v0,4(sp)
80000798:	8fa30000 	lw	v1,0(sp)
8000079c:	00431023 	subu	v0,v0,v1
800007a0:	afa20008 	sw	v0,8(sp)
800007a4:	8fa20008 	lw	v0,8(sp)
800007a8:	0044102b 	sltu	v0,v0,a0
800007ac:	1440fff7 	bnez	v0,8000078c <delay_ms+0x30>
800007b0:	00000000 	nop
800007b4:	03e00008 	jr	ra
800007b8:	27bd0010 	addiu	sp,sp,16

800007bc <writeHexValTo7Segs>:
800007bc:	27bdfff8 	addiu	sp,sp,-8
800007c0:	afa00000 	sw	zero,0(sp)
800007c4:	3c02bf80 	lui	v0,0xbf80
800007c8:	240300f0 	li	v1,240
800007cc:	ac430010 	sw	v1,16(v0)
800007d0:	ac440014 	sw	a0,20(v0)
800007d4:	00041902 	srl	v1,a0,0x4
800007d8:	ac430018 	sw	v1,24(v0)
800007dc:	00041a02 	srl	v1,a0,0x8
800007e0:	ac43001c 	sw	v1,28(v0)
800007e4:	00042302 	srl	a0,a0,0xc
800007e8:	ac440020 	sw	a0,32(v0)
800007ec:	03e00008 	jr	ra
800007f0:	27bd0008 	addiu	sp,sp,8

800007f4 <main>:
800007f4:	27bdffe0 	addiu	sp,sp,-32
800007f8:	afbf001c 	sw	ra,28(sp)
800007fc:	afb10018 	sw	s1,24(sp)
80000800:	afb00014 	sw	s0,20(sp)
80000804:	3c1004c4 	lui	s0,0x4c4
80000808:	3610b400 	ori	s0,s0,0xb400
8000080c:	3c1104c4 	lui	s1,0x4c4
80000810:	3631b420 	ori	s1,s1,0xb420
80000814:	0c0001ef 	jal	800007bc <writeHexValTo7Segs>
80000818:	8e040000 	lw	a0,0(s0)
8000081c:	0c0001d7 	jal	8000075c <delay_ms>
80000820:	240407d0 	li	a0,2000
80000824:	26100004 	addiu	s0,s0,4
80000828:	1611fffa 	bne	s0,s1,80000814 <main+0x20>
8000082c:	00001021 	move	v0,zero
80000830:	8fbf001c 	lw	ra,28(sp)
80000834:	8fb10018 	lw	s1,24(sp)
80000838:	8fb00014 	lw	s0,20(sp)
8000083c:	03e00008 	jr	ra
80000840:	27bd0020 	addiu	sp,sp,32

80000844 <_mips_handle_exception>:
80000844:	34038001 	li	v1,0x8001
80000848:	3c02bf80 	lui	v0,0xbf80
8000084c:	ac430000 	sw	v1,0(v0)
80000850:	1000ffff 	b	80000850 <_mips_handle_exception+0xc>
80000854:	00000000 	nop

80000858 <__do_global_ctors_aux>:
80000858:	27bdffe0 	addiu	sp,sp,-32
8000085c:	afb00014 	sw	s0,20(sp)
80000860:	3c108000 	lui	s0,0x8000
80000864:	afb10018 	sw	s1,24(sp)
80000868:	2411ffff 	li	s1,-1
8000086c:	26101ac8 	addiu	s0,s0,6856
80000870:	afbf001c 	sw	ra,28(sp)
80000874:	8e020000 	lw	v0,0(s0)
80000878:	10510005 	beq	v0,s1,80000890 <__do_global_ctors_aux+0x38>
8000087c:	8fbf001c 	lw	ra,28(sp)
80000880:	0040f809 	jalr	v0
80000884:	2610fffc 	addiu	s0,s0,-4
80000888:	1000fffb 	b	80000878 <__do_global_ctors_aux+0x20>
8000088c:	8e020000 	lw	v0,0(s0)
80000890:	8fb10018 	lw	s1,24(sp)
80000894:	8fb00014 	lw	s0,20(sp)
80000898:	03e00008 	jr	ra
8000089c:	27bd0020 	addiu	sp,sp,32

800008a0 <atexit>:
800008a0:	27bdffe8 	addiu	sp,sp,-24
800008a4:	00802821 	move	a1,a0
800008a8:	00003021 	move	a2,zero
800008ac:	afbf0014 	sw	ra,20(sp)
800008b0:	00002021 	move	a0,zero
800008b4:	0c000241 	jal	80000904 <__register_exitproc>
800008b8:	00003821 	move	a3,zero
800008bc:	8fbf0014 	lw	ra,20(sp)
800008c0:	03e00008 	jr	ra
800008c4:	27bd0018 	addiu	sp,sp,24

800008c8 <exit>:
800008c8:	27bdffe8 	addiu	sp,sp,-24
800008cc:	00002821 	move	a1,zero
800008d0:	afb00010 	sw	s0,16(sp)
800008d4:	afbf0014 	sw	ra,20(sp)
800008d8:	0c000283 	jal	80000a0c <__call_exitprocs>
800008dc:	00808021 	move	s0,a0
800008e0:	3c028000 	lui	v0,0x8000
800008e4:	8c442434 	lw	a0,9268(v0)
800008e8:	8c82003c 	lw	v0,60(a0)
800008ec:	10400003 	beqz	v0,800008fc <exit+0x34>
800008f0:	00000000 	nop
800008f4:	0040f809 	jalr	v0
800008f8:	00000000 	nop
800008fc:	0c00015e 	jal	80000578 <_exit>
80000900:	02002021 	move	a0,s0

80000904 <__register_exitproc>:
80000904:	3c028000 	lui	v0,0x8000
80000908:	27bdffd8 	addiu	sp,sp,-40
8000090c:	afb00010 	sw	s0,16(sp)
80000910:	8c502434 	lw	s0,9268(v0)
80000914:	afb40020 	sw	s4,32(sp)
80000918:	00c0a021 	move	s4,a2
8000091c:	afb3001c 	sw	s3,28(sp)
80000920:	00e09821 	move	s3,a3
80000924:	afb20018 	sw	s2,24(sp)
80000928:	00a09021 	move	s2,a1
8000092c:	afb10014 	sw	s1,20(sp)
80000930:	afbf0024 	sw	ra,36(sp)
80000934:	8e020148 	lw	v0,328(s0)
80000938:	14400003 	bnez	v0,80000948 <__register_exitproc+0x44>
8000093c:	00808821 	move	s1,a0
80000940:	2602014c 	addiu	v0,s0,332
80000944:	ae020148 	sw	v0,328(s0)
80000948:	8c430004 	lw	v1,4(v0)
8000094c:	28630020 	slti	v1,v1,32
80000950:	1460000f 	bnez	v1,80000990 <__register_exitproc+0x8c>
80000954:	00000000 	nop
80000958:	3c020000 	lui	v0,0x0
8000095c:	24420000 	addiu	v0,v0,0
80000960:	10400022 	beqz	v0,800009ec <__register_exitproc+0xe8>
80000964:	2402ffff 	li	v0,-1
80000968:	0c000000 	jal	80000000 <__app_start>
8000096c:	24040190 	li	a0,400
80000970:	5040001e 	beqzl	v0,800009ec <__register_exitproc+0xe8>
80000974:	2402ffff 	li	v0,-1
80000978:	8e030148 	lw	v1,328(s0)
8000097c:	ac400004 	sw	zero,4(v0)
80000980:	ac430000 	sw	v1,0(v0)
80000984:	ae020148 	sw	v0,328(s0)
80000988:	ac400188 	sw	zero,392(v0)
8000098c:	ac40018c 	sw	zero,396(v0)
80000990:	1220000f 	beqz	s1,800009d0 <__register_exitproc+0xcc>
80000994:	8c430004 	lw	v1,4(v0)
80000998:	00034080 	sll	t0,v1,0x2
8000099c:	24060001 	li	a2,1
800009a0:	00484021 	addu	t0,v0,t0
800009a4:	00663004 	sllv	a2,a2,v1
800009a8:	ad140088 	sw	s4,136(t0)
800009ac:	24040002 	li	a0,2
800009b0:	8c490188 	lw	t1,392(v0)
800009b4:	01264825 	or	t1,t1,a2
800009b8:	ac490188 	sw	t1,392(v0)
800009bc:	16240004 	bne	s1,a0,800009d0 <__register_exitproc+0xcc>
800009c0:	ad130108 	sw	s3,264(t0)
800009c4:	8c44018c 	lw	a0,396(v0)
800009c8:	00863025 	or	a2,a0,a2
800009cc:	ac46018c 	sw	a2,396(v0)
800009d0:	24640001 	addiu	a0,v1,1
800009d4:	24630002 	addiu	v1,v1,2
800009d8:	00031880 	sll	v1,v1,0x2
800009dc:	ac440004 	sw	a0,4(v0)
800009e0:	00431021 	addu	v0,v0,v1
800009e4:	ac520000 	sw	s2,0(v0)
800009e8:	00001021 	move	v0,zero
800009ec:	8fbf0024 	lw	ra,36(sp)
800009f0:	8fb40020 	lw	s4,32(sp)
800009f4:	8fb3001c 	lw	s3,28(sp)
800009f8:	8fb20018 	lw	s2,24(sp)
800009fc:	8fb10014 	lw	s1,20(sp)
80000a00:	8fb00010 	lw	s0,16(sp)
80000a04:	03e00008 	jr	ra
80000a08:	27bd0028 	addiu	sp,sp,40

80000a0c <__call_exitprocs>:
80000a0c:	3c028000 	lui	v0,0x8000
80000a10:	27bdffc0 	addiu	sp,sp,-64
80000a14:	8c422434 	lw	v0,9268(v0)
80000a18:	afb30024 	sw	s3,36(sp)
80000a1c:	3c130000 	lui	s3,0x0
80000a20:	afb70034 	sw	s7,52(sp)
80000a24:	24170001 	li	s7,1
80000a28:	26730000 	addiu	s3,s3,0
80000a2c:	afb60030 	sw	s6,48(sp)
80000a30:	afb40028 	sw	s4,40(sp)
80000a34:	0080b021 	move	s6,a0
80000a38:	afbf003c 	sw	ra,60(sp)
80000a3c:	00a0a021 	move	s4,a1
80000a40:	afbe0038 	sw	s8,56(sp)
80000a44:	afb5002c 	sw	s5,44(sp)
80000a48:	afb20020 	sw	s2,32(sp)
80000a4c:	afb1001c 	sw	s1,28(sp)
80000a50:	afb00018 	sw	s0,24(sp)
80000a54:	afa20010 	sw	v0,16(sp)
80000a58:	8fa20010 	lw	v0,16(sp)
80000a5c:	24520148 	addiu	s2,v0,328
80000a60:	8c500148 	lw	s0,328(v0)
80000a64:	1200003e 	beqz	s0,80000b60 <__call_exitprocs+0x154>
80000a68:	8fbf003c 	lw	ra,60(sp)
80000a6c:	8e110004 	lw	s1,4(s0)
80000a70:	2635ffff 	addiu	s5,s1,-1
80000a74:	00118880 	sll	s1,s1,0x2
80000a78:	02118821 	addu	s1,s0,s1
80000a7c:	06a0001e 	bltz	s5,80000af8 <__call_exitprocs+0xec>
80000a80:	00000000 	nop
80000a84:	52800005 	beqzl	s4,80000a9c <__call_exitprocs+0x90>
80000a88:	8e040004 	lw	a0,4(s0)
80000a8c:	8e230104 	lw	v1,260(s1)
80000a90:	54740017 	bnel	v1,s4,80000af0 <__call_exitprocs+0xe4>
80000a94:	26b5ffff 	addiu	s5,s5,-1
80000a98:	8e040004 	lw	a0,4(s0)
80000a9c:	2484ffff 	addiu	a0,a0,-1
80000aa0:	16a40003 	bne	s5,a0,80000ab0 <__call_exitprocs+0xa4>
80000aa4:	8e230004 	lw	v1,4(s1)
80000aa8:	10000002 	b	80000ab4 <__call_exitprocs+0xa8>
80000aac:	ae150004 	sw	s5,4(s0)
80000ab0:	ae200004 	sw	zero,4(s1)
80000ab4:	1060000d 	beqz	v1,80000aec <__call_exitprocs+0xe0>
80000ab8:	02b72004 	sllv	a0,s7,s5
80000abc:	8e050188 	lw	a1,392(s0)
80000ac0:	00852824 	and	a1,a0,a1
80000ac4:	14a0001a 	bnez	a1,80000b30 <__call_exitprocs+0x124>
80000ac8:	8e1e0004 	lw	s8,4(s0)
80000acc:	0060f809 	jalr	v1
80000ad0:	00000000 	nop
80000ad4:	8e030004 	lw	v1,4(s0)
80000ad8:	17c3ffe0 	bne	s8,v1,80000a5c <__call_exitprocs+0x50>
80000adc:	8fa20010 	lw	v0,16(sp)
80000ae0:	8e430000 	lw	v1,0(s2)
80000ae4:	5470ffde 	bnel	v1,s0,80000a60 <__call_exitprocs+0x54>
80000ae8:	24520148 	addiu	s2,v0,328
80000aec:	26b5ffff 	addiu	s5,s5,-1
80000af0:	1000ffe2 	b	80000a7c <__call_exitprocs+0x70>
80000af4:	2631fffc 	addiu	s1,s1,-4
80000af8:	12600019 	beqz	s3,80000b60 <__call_exitprocs+0x154>
80000afc:	8fbf003c 	lw	ra,60(sp)
80000b00:	8e030004 	lw	v1,4(s0)
80000b04:	14600007 	bnez	v1,80000b24 <__call_exitprocs+0x118>
80000b08:	8e020000 	lw	v0,0(s0)
80000b0c:	10400005 	beqz	v0,80000b24 <__call_exitprocs+0x118>
80000b10:	02002021 	move	a0,s0
80000b14:	0c000000 	jal	80000000 <__app_start>
80000b18:	ae420000 	sw	v0,0(s2)
80000b1c:	1000ffd1 	b	80000a64 <__call_exitprocs+0x58>
80000b20:	8e500000 	lw	s0,0(s2)
80000b24:	02009021 	move	s2,s0
80000b28:	1000ffce 	b	80000a64 <__call_exitprocs+0x58>
80000b2c:	00408021 	move	s0,v0
80000b30:	8e06018c 	lw	a2,396(s0)
80000b34:	00863024 	and	a2,a0,a2
80000b38:	14c00005 	bnez	a2,80000b50 <__call_exitprocs+0x144>
80000b3c:	8e250084 	lw	a1,132(s1)
80000b40:	0060f809 	jalr	v1
80000b44:	02c02021 	move	a0,s6
80000b48:	1000ffe3 	b	80000ad8 <__call_exitprocs+0xcc>
80000b4c:	8e030004 	lw	v1,4(s0)
80000b50:	0060f809 	jalr	v1
80000b54:	00a02021 	move	a0,a1
80000b58:	1000ffdf 	b	80000ad8 <__call_exitprocs+0xcc>
80000b5c:	8e030004 	lw	v1,4(s0)
80000b60:	8fbe0038 	lw	s8,56(sp)
80000b64:	8fb70034 	lw	s7,52(sp)
80000b68:	8fb60030 	lw	s6,48(sp)
80000b6c:	8fb5002c 	lw	s5,44(sp)
80000b70:	8fb40028 	lw	s4,40(sp)
80000b74:	8fb30024 	lw	s3,36(sp)
80000b78:	8fb20020 	lw	s2,32(sp)
80000b7c:	8fb1001c 	lw	s1,28(sp)
80000b80:	8fb00018 	lw	s0,24(sp)
80000b84:	03e00008 	jr	ra
80000b88:	27bd0040 	addiu	sp,sp,64

80000b8c <__exit>:
80000b8c:	27bdffd8 	addiu	sp,sp,-40
80000b90:	afb2001c 	sw	s2,28(sp)
80000b94:	3c128000 	lui	s2,0x8000
80000b98:	afb10018 	sw	s1,24(sp)
80000b9c:	3c118000 	lui	s1,0x8000
80000ba0:	afb00014 	sw	s0,20(sp)
80000ba4:	3c100000 	lui	s0,0x0
80000ba8:	26311740 	addiu	s1,s1,5952
80000bac:	afb30020 	sw	s3,32(sp)
80000bb0:	26100001 	addiu	s0,s0,1
80000bb4:	afbf0024 	sw	ra,36(sp)
80000bb8:	265215e8 	addiu	s2,s2,5608
80000bbc:	00809821 	move	s3,a0
80000bc0:	02602021 	move	a0,s3
80000bc4:	24190001 	li	t9,1
80000bc8:	24020001 	li	v0,1
80000bcc:	0000004c 	syscall	0x1
80000bd0:	24020002 	li	v0,2
80000bd4:	16020005 	bne	s0,v0,80000bec <__exit+0x60>
80000bd8:	24020001 	li	v0,1
80000bdc:	1240fff9 	beqz	s2,80000bc4 <__exit+0x38>
80000be0:	02602021 	move	a0,s3
80000be4:	0c00057a 	jal	800015e8 <__return_to_boot>
80000be8:	02602021 	move	a0,s3
80000bec:	1602fff5 	bne	s0,v0,80000bc4 <__exit+0x38>
80000bf0:	02602021 	move	a0,s3
80000bf4:	1220fff4 	beqz	s1,80000bc8 <__exit+0x3c>
80000bf8:	24190001 	li	t9,1
80000bfc:	0c0005d0 	jal	80001740 <__get_startup_BEV>
80000c00:	00000000 	nop
80000c04:	1040fff5 	beqz	v0,80000bdc <__exit+0x50>
80000c08:	02602021 	move	a0,s3
80000c0c:	1000ffee 	b	80000bc8 <__exit+0x3c>
80000c10:	24190001 	li	t9,1

80000c14 <__getargs>:
80000c14:	00004021 	move	t0,zero
80000c18:	00004821 	move	t1,zero
80000c1c:	24190009 	li	t9,9
80000c20:	24020001 	li	v0,1
80000c24:	0000004c 	syscall	0x1
80000c28:	18400022 	blez	v0,80000cb4 <__getargs+0xa0>
80000c2c:	00000000 	nop
80000c30:	00404021 	move	t0,v0
80000c34:	00085880 	sll	t3,t0,0x2
80000c38:	256b0007 	addiu	t3,t3,7
80000c3c:	2401fff8 	li	at,-8
80000c40:	01615824 	and	t3,t3,at
80000c44:	03abe823 	subu	sp,sp,t3
80000c48:	03a04821 	move	t1,sp
80000c4c:	00005021 	move	t2,zero
80000c50:	2419000a 	li	t9,10
80000c54:	24020001 	li	v0,1
80000c58:	01402021 	move	a0,t2
80000c5c:	0000004c 	syscall	0x1
80000c60:	18400014 	blez	v0,80000cb4 <__getargs+0xa0>
80000c64:	00000000 	nop
80000c68:	24420001 	addiu	v0,v0,1
80000c6c:	24420007 	addiu	v0,v0,7
80000c70:	2401fff8 	li	at,-8
80000c74:	00411024 	and	v0,v0,at
80000c78:	03a2e823 	subu	sp,sp,v0
80000c7c:	000a5880 	sll	t3,t2,0x2
80000c80:	01695821 	addu	t3,t3,t1
80000c84:	ad7d0000 	sw	sp,0(t3)
80000c88:	2419000b 	li	t9,11
80000c8c:	24020001 	li	v0,1
80000c90:	01402021 	move	a0,t2
80000c94:	03a02821 	move	a1,sp
80000c98:	0000004c 	syscall	0x1
80000c9c:	04400005 	bltz	v0,80000cb4 <__getargs+0xa0>
80000ca0:	00000000 	nop
80000ca4:	254a0001 	addiu	t2,t2,1
80000ca8:	0148102a 	slt	v0,t2,t0
80000cac:	1440ffe8 	bnez	v0,80000c50 <__getargs+0x3c>
80000cb0:	00000000 	nop
80000cb4:	01002021 	move	a0,t0
80000cb8:	01202821 	move	a1,t1
80000cbc:	27bdffe0 	addiu	sp,sp,-32
80000cc0:	27a60010 	addiu	a2,sp,16
80000cc4:	03e00008 	jr	ra
80000cc8:	acc00000 	sw	zero,0(a2)

80000ccc <_get_ram_range>:
80000ccc:	3c030002 	lui	v1,0x2
80000cd0:	00803021 	move	a2,a0
80000cd4:	2463f800 	addiu	v1,v1,-2048
80000cd8:	00a03821 	move	a3,a1
80000cdc:	2419000c 	li	t9,12
80000ce0:	10600007 	beqz	v1,80000d00 <_get_ram_range+0x34>
80000ce4:	24020001 	li	v0,1
80000ce8:	3c028000 	lui	v0,0x8000
80000cec:	10800002 	beqz	a0,80000cf8 <_get_ram_range+0x2c>
80000cf0:	24420000 	addiu	v0,v0,0
80000cf4:	ac820000 	sw	v0,0(a0)
80000cf8:	10000004 	b	80000d0c <_get_ram_range+0x40>
80000cfc:	00621821 	addu	v1,v1,v0
80000d00:	0000004c 	syscall	0x1
80000d04:	54c00001 	bnezl	a2,80000d0c <_get_ram_range+0x40>
80000d08:	acc20000 	sw	v0,0(a2)
80000d0c:	03e00008 	jr	ra
80000d10:	ace30000 	sw	v1,0(a3)

80000d14 <putsnds.constprop.0>:
80000d14:	27bdffd8 	addiu	sp,sp,-40
80000d18:	afb20020 	sw	s2,32(sp)
80000d1c:	00a09021 	move	s2,a1
80000d20:	afb1001c 	sw	s1,28(sp)
80000d24:	00808821 	move	s1,a0
80000d28:	afb00018 	sw	s0,24(sp)
80000d2c:	00c08021 	move	s0,a2
80000d30:	10800007 	beqz	a0,80000d50 <putsnds.constprop.0+0x3c>
80000d34:	afbf0024 	sw	ra,36(sp)
80000d38:	0c0005fa 	jal	800017e8 <strlen>
80000d3c:	00000000 	nop
80000d40:	24040001 	li	a0,1
80000d44:	02202821 	move	a1,s1
80000d48:	0c000601 	jal	80001804 <write>
80000d4c:	00403021 	move	a2,v0
80000d50:	3c048000 	lui	a0,0x8000
80000d54:	00001821 	move	v1,zero
80000d58:	24841b6c 	addiu	a0,a0,7020
80000d5c:	24060008 	li	a2,8
80000d60:	00031023 	negu	v0,v1
80000d64:	27a50010 	addiu	a1,sp,16
80000d68:	00021080 	sll	v0,v0,0x2
80000d6c:	24630001 	addiu	v1,v1,1
80000d70:	2442001c 	addiu	v0,v0,28
80000d74:	00a33821 	addu	a3,a1,v1
80000d78:	00521006 	srlv	v0,s2,v0
80000d7c:	3042000f 	andi	v0,v0,0xf
80000d80:	00441021 	addu	v0,v0,a0
80000d84:	90420000 	lbu	v0,0(v0)
80000d88:	1466fff5 	bne	v1,a2,80000d60 <putsnds.constprop.0+0x4c>
80000d8c:	a0e2ffff 	sb	v0,-1(a3)
80000d90:	24040001 	li	a0,1
80000d94:	0c000601 	jal	80001804 <write>
80000d98:	24060008 	li	a2,8
80000d9c:	12000008 	beqz	s0,80000dc0 <putsnds.constprop.0+0xac>
80000da0:	8fbf0024 	lw	ra,36(sp)
80000da4:	0c0005fa 	jal	800017e8 <strlen>
80000da8:	02002021 	move	a0,s0
80000dac:	24040001 	li	a0,1
80000db0:	02002821 	move	a1,s0
80000db4:	0c000601 	jal	80001804 <write>
80000db8:	00403021 	move	a2,v0
80000dbc:	8fbf0024 	lw	ra,36(sp)
80000dc0:	8fb20020 	lw	s2,32(sp)
80000dc4:	8fb1001c 	lw	s1,28(sp)
80000dc8:	8fb00018 	lw	s0,24(sp)
80000dcc:	03e00008 	jr	ra
80000dd0:	27bd0028 	addiu	sp,sp,40

80000dd4 <putsns>:
80000dd4:	08000345 	j	80000d14 <putsnds.constprop.0>
80000dd8:	00000000 	nop

80000ddc <__exception_handle_verbose>:
80000ddc:	24a2ffff 	addiu	v0,a1,-1
80000de0:	27bdffe0 	addiu	sp,sp,-32
80000de4:	2c43001e 	sltiu	v1,v0,30
80000de8:	afb00010 	sw	s0,16(sp)
80000dec:	00808021 	move	s0,a0
80000df0:	afbf001c 	sw	ra,28(sp)
80000df4:	afb20018 	sw	s2,24(sp)
80000df8:	106000d5 	beqz	v1,80001150 <__exception_handle_verbose+0x374>
80000dfc:	afb10014 	sw	s1,20(sp)
80000e00:	00021880 	sll	v1,v0,0x2
80000e04:	3c028000 	lui	v0,0x8000
80000e08:	24421af0 	addiu	v0,v0,6896
80000e0c:	00431021 	addu	v0,v0,v1
80000e10:	8c420000 	lw	v0,0(v0)
80000e14:	00400008 	jr	v0
80000e18:	00000000 	nop
80000e1c:	3c058000 	lui	a1,0x8000
80000e20:	24040001 	li	a0,1
80000e24:	100000a5 	b	800010bc <__exception_handle_verbose+0x2e0>
80000e28:	24a51b80 	addiu	a1,a1,7040
80000e2c:	3c048000 	lui	a0,0x8000
80000e30:	10000006 	b	80000e4c <__exception_handle_verbose+0x70>
80000e34:	24841b9c 	addiu	a0,a0,7068
80000e38:	3c048000 	lui	a0,0x8000
80000e3c:	10000003 	b	80000e4c <__exception_handle_verbose+0x70>
80000e40:	24841bb8 	addiu	a0,a0,7096
80000e44:	3c048000 	lui	a0,0x8000
80000e48:	24841bd4 	addiu	a0,a0,7124
80000e4c:	8e050080 	lw	a1,128(s0)
80000e50:	0c000375 	jal	80000dd4 <putsns>
80000e54:	00003021 	move	a2,zero
80000e58:	3c048000 	lui	a0,0x8000
80000e5c:	100000a6 	b	800010f8 <__exception_handle_verbose+0x31c>
80000e60:	24841da8 	addiu	a0,a0,7592
80000e64:	3c048000 	lui	a0,0x8000
80000e68:	1000fff8 	b	80000e4c <__exception_handle_verbose+0x70>
80000e6c:	24841bf4 	addiu	a0,a0,7156
80000e70:	3c058000 	lui	a1,0x8000
80000e74:	24040001 	li	a0,1
80000e78:	24a51c14 	addiu	a1,a1,7188
80000e7c:	24060016 	li	a2,22
80000e80:	0c000601 	jal	80001804 <write>
80000e84:	3c118000 	lui	s1,0x8000
80000e88:	100000b8 	b	8000116c <__exception_handle_verbose+0x390>
80000e8c:	3c048000 	lui	a0,0x8000
80000e90:	3c058000 	lui	a1,0x8000
80000e94:	24040001 	li	a0,1
80000e98:	24a51c2c 	addiu	a1,a1,7212
80000e9c:	1000fff8 	b	80000e80 <__exception_handle_verbose+0xa4>
80000ea0:	2406000f 	li	a2,15
80000ea4:	8c830060 	lw	v1,96(a0)
80000ea8:	24020017 	li	v0,23
80000eac:	14620014 	bne	v1,v0,80000f00 <__exception_handle_verbose+0x124>
80000eb0:	3c020000 	lui	v0,0x0
80000eb4:	8c83000c 	lw	v1,12(a0)
80000eb8:	24020001 	li	v0,1
80000ebc:	14620005 	bne	v1,v0,80000ed4 <__exception_handle_verbose+0xf8>
80000ec0:	24040001 	li	a0,1
80000ec4:	3c058000 	lui	a1,0x8000
80000ec8:	2406001d 	li	a2,29
80000ecc:	10000004 	b	80000ee0 <__exception_handle_verbose+0x104>
80000ed0:	24a51c3c 	addiu	a1,a1,7228
80000ed4:	3c058000 	lui	a1,0x8000
80000ed8:	2406001b 	li	a2,27
80000edc:	24a51c5c 	addiu	a1,a1,7260
80000ee0:	0c000601 	jal	80001804 <write>
80000ee4:	00000000 	nop
80000ee8:	3c028000 	lui	v0,0x8000
80000eec:	24420b8c 	addiu	v0,v0,2956
80000ef0:	ae02007c 	sw	v0,124(s0)
80000ef4:	240200ff 	li	v0,255
80000ef8:	10000169 	b	800014a0 <__exception_handle_verbose+0x6c4>
80000efc:	ae02000c 	sw	v0,12(s0)
80000f00:	24030002 	li	v1,2
80000f04:	24420001 	addiu	v0,v0,1
80000f08:	14430009 	bne	v0,v1,80000f30 <__exception_handle_verbose+0x154>
80000f0c:	24030001 	li	v1,1
80000f10:	3c028000 	lui	v0,0x8000
80000f14:	24421688 	addiu	v0,v0,5768
80000f18:	1040000e 	beqz	v0,80000f54 <__exception_handle_verbose+0x178>
80000f1c:	00000000 	nop
80000f20:	0c0005a2 	jal	80001688 <__chain_uhi_excpt>
80000f24:	02002021 	move	a0,s0
80000f28:	1000015e 	b	800014a4 <__exception_handle_verbose+0x6c8>
80000f2c:	8fbf001c 	lw	ra,28(sp)
80000f30:	14430008 	bne	v0,v1,80000f54 <__exception_handle_verbose+0x178>
80000f34:	3c028000 	lui	v0,0x8000
80000f38:	24421740 	addiu	v0,v0,5952
80000f3c:	10400005 	beqz	v0,80000f54 <__exception_handle_verbose+0x178>
80000f40:	00000000 	nop
80000f44:	0c0005d0 	jal	80001740 <__get_startup_BEV>
80000f48:	00000000 	nop
80000f4c:	1040fff1 	beqz	v0,80000f14 <__exception_handle_verbose+0x138>
80000f50:	3c028000 	lui	v0,0x8000
80000f54:	0c00061a 	jal	80001868 <__uhi_indirect>
80000f58:	02002021 	move	a0,s0
80000f5c:	10000151 	b	800014a4 <__exception_handle_verbose+0x6c8>
80000f60:	8fbf001c 	lw	ra,28(sp)
80000f64:	3c048000 	lui	a0,0x8000
80000f68:	10000063 	b	800010f8 <__exception_handle_verbose+0x31c>
80000f6c:	24841c78 	addiu	a0,a0,7288
80000f70:	3c048000 	lui	a0,0x8000
80000f74:	10000060 	b	800010f8 <__exception_handle_verbose+0x31c>
80000f78:	24841c88 	addiu	a0,a0,7304
80000f7c:	3c048000 	lui	a0,0x8000
80000f80:	1000005d 	b	800010f8 <__exception_handle_verbose+0x31c>
80000f84:	24841ca0 	addiu	a0,a0,7328
80000f88:	3c058000 	lui	a1,0x8000
80000f8c:	24040001 	li	a0,1
80000f90:	24a51cbc 	addiu	a1,a1,7356
80000f94:	1000ffba 	b	80000e80 <__exception_handle_verbose+0xa4>
80000f98:	24060009 	li	a2,9
80000f9c:	3c058000 	lui	a1,0x8000
80000fa0:	24040001 	li	a0,1
80000fa4:	24a51cc8 	addiu	a1,a1,7368
80000fa8:	1000ffb5 	b	80000e80 <__exception_handle_verbose+0xa4>
80000fac:	24060005 	li	a2,5
80000fb0:	3c020000 	lui	v0,0x0
80000fb4:	24420001 	addiu	v0,v0,1
80000fb8:	10400012 	beqz	v0,80001004 <__exception_handle_verbose+0x228>
80000fbc:	3c058000 	lui	a1,0x8000
80000fc0:	787e0899 	cfcmsa	v0,msa_csr
80000fc4:	7c420440 	ext	v0,v0,0x11,0x1
80000fc8:	1040000e 	beqz	v0,80001004 <__exception_handle_verbose+0x228>
80000fcc:	3c058000 	lui	a1,0x8000
80000fd0:	787e08d9 	cfcmsa	v1,msa_csr
80000fd4:	3c050100 	lui	a1,0x100
80000fd8:	00651824 	and	v1,v1,a1
80000fdc:	54600009 	bnezl	v1,80001004 <__exception_handle_verbose+0x228>
80000fe0:	3c058000 	lui	a1,0x8000
80000fe4:	787e0899 	cfcmsa	v0,msa_csr
80000fe8:	3c04fffd 	lui	a0,0xfffd
80000fec:	3484ffff 	ori	a0,a0,0xffff
80000ff0:	00441024 	and	v0,v0,a0
80000ff4:	00451025 	or	v0,v0,a1
80000ff8:	783e1059 	ctcmsa	msa_csr,v0
80000ffc:	10000129 	b	800014a4 <__exception_handle_verbose+0x6c8>
80001000:	8fbf001c 	lw	ra,28(sp)
80001004:	24040001 	li	a0,1
80001008:	24a51cd0 	addiu	a1,a1,7376
8000100c:	1000ff9c 	b	80000e80 <__exception_handle_verbose+0xa4>
80001010:	24060019 	li	a2,25
80001014:	3c020000 	lui	v0,0x0
80001018:	24420001 	addiu	v0,v0,1
8000101c:	10400012 	beqz	v0,80001068 <__exception_handle_verbose+0x28c>
80001020:	3c058000 	lui	a1,0x8000
80001024:	4442f800 	cfc1	v0,c1_fcsr
80001028:	7c420440 	ext	v0,v0,0x11,0x1
8000102c:	1040000e 	beqz	v0,80001068 <__exception_handle_verbose+0x28c>
80001030:	3c058000 	lui	a1,0x8000
80001034:	4443f800 	cfc1	v1,c1_fcsr
80001038:	3c050100 	lui	a1,0x100
8000103c:	00651824 	and	v1,v1,a1
80001040:	54600009 	bnezl	v1,80001068 <__exception_handle_verbose+0x28c>
80001044:	3c058000 	lui	a1,0x8000
80001048:	4442f800 	cfc1	v0,c1_fcsr
8000104c:	3c04fffd 	lui	a0,0xfffd
80001050:	3484ffff 	ori	a0,a0,0xffff
80001054:	00441024 	and	v0,v0,a0
80001058:	00451025 	or	v0,v0,a1
8000105c:	44c2f800 	ctc1	v0,c1_fcsr
80001060:	10000110 	b	800014a4 <__exception_handle_verbose+0x6c8>
80001064:	8fbf001c 	lw	ra,28(sp)
80001068:	24040001 	li	a0,1
8000106c:	24a51cd4 	addiu	a1,a1,7380
80001070:	1000ff83 	b	80000e80 <__exception_handle_verbose+0xa4>
80001074:	24060015 	li	a2,21
80001078:	3c058000 	lui	a1,0x8000
8000107c:	24040001 	li	a0,1
80001080:	10000004 	b	80001094 <__exception_handle_verbose+0x2b8>
80001084:	24a51cec 	addiu	a1,a1,7404
80001088:	3c058000 	lui	a1,0x8000
8000108c:	24040001 	li	a0,1
80001090:	24a51d14 	addiu	a1,a1,7444
80001094:	1000ff7a 	b	80000e80 <__exception_handle_verbose+0xa4>
80001098:	24060027 	li	a2,39
8000109c:	3c058000 	lui	a1,0x8000
800010a0:	24040001 	li	a0,1
800010a4:	24a51d3c 	addiu	a1,a1,7484
800010a8:	1000ff75 	b	80000e80 <__exception_handle_verbose+0xa4>
800010ac:	24060020 	li	a2,32
800010b0:	3c058000 	lui	a1,0x8000
800010b4:	24040001 	li	a0,1
800010b8:	24a51d60 	addiu	a1,a1,7520
800010bc:	1000ff70 	b	80000e80 <__exception_handle_verbose+0xa4>
800010c0:	2406001b 	li	a2,27
800010c4:	3c058000 	lui	a1,0x8000
800010c8:	24040001 	li	a0,1
800010cc:	24a51d7c 	addiu	a1,a1,7548
800010d0:	1000ff6b 	b	80000e80 <__exception_handle_verbose+0xa4>
800010d4:	2406001e 	li	a2,30
800010d8:	3c048000 	lui	a0,0x8000
800010dc:	10000006 	b	800010f8 <__exception_handle_verbose+0x31c>
800010e0:	24841d9c 	addiu	a0,a0,7580
800010e4:	3c048000 	lui	a0,0x8000
800010e8:	10000003 	b	800010f8 <__exception_handle_verbose+0x31c>
800010ec:	24841db0 	addiu	a0,a0,7600
800010f0:	3c048000 	lui	a0,0x8000
800010f4:	24841dc4 	addiu	a0,a0,7620
800010f8:	10000017 	b	80001158 <__exception_handle_verbose+0x37c>
800010fc:	8e05007c 	lw	a1,124(s0)
80001100:	3c058000 	lui	a1,0x8000
80001104:	24040001 	li	a0,1
80001108:	24a51dd4 	addiu	a1,a1,7636
8000110c:	1000ff5c 	b	80000e80 <__exception_handle_verbose+0xa4>
80001110:	24060014 	li	a2,20
80001114:	3c058000 	lui	a1,0x8000
80001118:	24040001 	li	a0,1
8000111c:	24a51dec 	addiu	a1,a1,7660
80001120:	1000ff57 	b	80000e80 <__exception_handle_verbose+0xa4>
80001124:	24060011 	li	a2,17
80001128:	3c058000 	lui	a1,0x8000
8000112c:	24040001 	li	a0,1
80001130:	24a51e00 	addiu	a1,a1,7680
80001134:	1000ff52 	b	80000e80 <__exception_handle_verbose+0xa4>
80001138:	2406000d 	li	a2,13
8000113c:	3c058000 	lui	a1,0x8000
80001140:	24040001 	li	a0,1
80001144:	24a51e10 	addiu	a1,a1,7696
80001148:	1000ff4d 	b	80000e80 <__exception_handle_verbose+0xa4>
8000114c:	2406000c 	li	a2,12
80001150:	3c048000 	lui	a0,0x8000
80001154:	24841e20 	addiu	a0,a0,7712
80001158:	3c068000 	lui	a2,0x8000
8000115c:	0c000375 	jal	80000dd4 <putsns>
80001160:	24c61e0c 	addiu	a2,a2,7692
80001164:	3c118000 	lui	s1,0x8000
80001168:	3c048000 	lui	a0,0x8000
8000116c:	00002821 	move	a1,zero
80001170:	24841e38 	addiu	a0,a0,7736
80001174:	26261e40 	addiu	a2,s1,7744
80001178:	0c000375 	jal	80000dd4 <putsns>
8000117c:	3c128000 	lui	s2,0x8000
80001180:	3c048000 	lui	a0,0x8000
80001184:	8e050000 	lw	a1,0(s0)
80001188:	26261e40 	addiu	a2,s1,7744
8000118c:	0c000375 	jal	80000dd4 <putsns>
80001190:	24841e44 	addiu	a0,a0,7748
80001194:	3c048000 	lui	a0,0x8000
80001198:	8e050004 	lw	a1,4(s0)
8000119c:	26261e40 	addiu	a2,s1,7744
800011a0:	0c000375 	jal	80000dd4 <putsns>
800011a4:	24841e4c 	addiu	a0,a0,7756
800011a8:	3c048000 	lui	a0,0x8000
800011ac:	8e050008 	lw	a1,8(s0)
800011b0:	26461e0c 	addiu	a2,s2,7692
800011b4:	0c000375 	jal	80000dd4 <putsns>
800011b8:	24841e54 	addiu	a0,a0,7764
800011bc:	3c048000 	lui	a0,0x8000
800011c0:	8e05000c 	lw	a1,12(s0)
800011c4:	26261e40 	addiu	a2,s1,7744
800011c8:	0c000375 	jal	80000dd4 <putsns>
800011cc:	24841e5c 	addiu	a0,a0,7772
800011d0:	3c048000 	lui	a0,0x8000
800011d4:	8e050010 	lw	a1,16(s0)
800011d8:	26261e40 	addiu	a2,s1,7744
800011dc:	0c000375 	jal	80000dd4 <putsns>
800011e0:	24841e64 	addiu	a0,a0,7780
800011e4:	3c048000 	lui	a0,0x8000
800011e8:	8e050014 	lw	a1,20(s0)
800011ec:	26261e40 	addiu	a2,s1,7744
800011f0:	0c000375 	jal	80000dd4 <putsns>
800011f4:	24841e6c 	addiu	a0,a0,7788
800011f8:	3c048000 	lui	a0,0x8000
800011fc:	8e050018 	lw	a1,24(s0)
80001200:	26461e0c 	addiu	a2,s2,7692
80001204:	0c000375 	jal	80000dd4 <putsns>
80001208:	24841e74 	addiu	a0,a0,7796
8000120c:	3c048000 	lui	a0,0x8000
80001210:	8e05001c 	lw	a1,28(s0)
80001214:	26261e40 	addiu	a2,s1,7744
80001218:	0c000375 	jal	80000dd4 <putsns>
8000121c:	24841e7c 	addiu	a0,a0,7804
80001220:	3c048000 	lui	a0,0x8000
80001224:	8e050020 	lw	a1,32(s0)
80001228:	26261e40 	addiu	a2,s1,7744
8000122c:	0c000375 	jal	80000dd4 <putsns>
80001230:	24841e84 	addiu	a0,a0,7812
80001234:	3c048000 	lui	a0,0x8000
80001238:	8e050024 	lw	a1,36(s0)
8000123c:	26261e40 	addiu	a2,s1,7744
80001240:	0c000375 	jal	80000dd4 <putsns>
80001244:	24841e8c 	addiu	a0,a0,7820
80001248:	3c048000 	lui	a0,0x8000
8000124c:	8e050028 	lw	a1,40(s0)
80001250:	26461e0c 	addiu	a2,s2,7692
80001254:	0c000375 	jal	80000dd4 <putsns>
80001258:	24841e94 	addiu	a0,a0,7828
8000125c:	3c048000 	lui	a0,0x8000
80001260:	8e05002c 	lw	a1,44(s0)
80001264:	26261e40 	addiu	a2,s1,7744
80001268:	0c000375 	jal	80000dd4 <putsns>
8000126c:	24841e9c 	addiu	a0,a0,7836
80001270:	3c048000 	lui	a0,0x8000
80001274:	8e050030 	lw	a1,48(s0)
80001278:	26261e40 	addiu	a2,s1,7744
8000127c:	0c000375 	jal	80000dd4 <putsns>
80001280:	24841ea4 	addiu	a0,a0,7844
80001284:	3c048000 	lui	a0,0x8000
80001288:	8e050034 	lw	a1,52(s0)
8000128c:	26261e40 	addiu	a2,s1,7744
80001290:	0c000375 	jal	80000dd4 <putsns>
80001294:	24841eac 	addiu	a0,a0,7852
80001298:	3c048000 	lui	a0,0x8000
8000129c:	8e050038 	lw	a1,56(s0)
800012a0:	26461e0c 	addiu	a2,s2,7692
800012a4:	0c000375 	jal	80000dd4 <putsns>
800012a8:	24841eb4 	addiu	a0,a0,7860
800012ac:	3c048000 	lui	a0,0x8000
800012b0:	8e05003c 	lw	a1,60(s0)
800012b4:	26261e40 	addiu	a2,s1,7744
800012b8:	0c000375 	jal	80000dd4 <putsns>
800012bc:	24841ebc 	addiu	a0,a0,7868
800012c0:	3c048000 	lui	a0,0x8000
800012c4:	8e050040 	lw	a1,64(s0)
800012c8:	26261e40 	addiu	a2,s1,7744
800012cc:	0c000375 	jal	80000dd4 <putsns>
800012d0:	24841ec4 	addiu	a0,a0,7876
800012d4:	3c048000 	lui	a0,0x8000
800012d8:	8e050044 	lw	a1,68(s0)
800012dc:	26261e40 	addiu	a2,s1,7744
800012e0:	0c000375 	jal	80000dd4 <putsns>
800012e4:	24841ecc 	addiu	a0,a0,7884
800012e8:	3c048000 	lui	a0,0x8000
800012ec:	8e050048 	lw	a1,72(s0)
800012f0:	26461e0c 	addiu	a2,s2,7692
800012f4:	0c000375 	jal	80000dd4 <putsns>
800012f8:	24841ed4 	addiu	a0,a0,7892
800012fc:	3c048000 	lui	a0,0x8000
80001300:	8e05004c 	lw	a1,76(s0)
80001304:	26261e40 	addiu	a2,s1,7744
80001308:	0c000375 	jal	80000dd4 <putsns>
8000130c:	24841edc 	addiu	a0,a0,7900
80001310:	3c048000 	lui	a0,0x8000
80001314:	8e050050 	lw	a1,80(s0)
80001318:	26261e40 	addiu	a2,s1,7744
8000131c:	0c000375 	jal	80000dd4 <putsns>
80001320:	24841ee4 	addiu	a0,a0,7908
80001324:	3c048000 	lui	a0,0x8000
80001328:	8e050054 	lw	a1,84(s0)
8000132c:	26261e40 	addiu	a2,s1,7744
80001330:	0c000375 	jal	80000dd4 <putsns>
80001334:	24841eec 	addiu	a0,a0,7916
80001338:	3c048000 	lui	a0,0x8000
8000133c:	8e050058 	lw	a1,88(s0)
80001340:	26461e0c 	addiu	a2,s2,7692
80001344:	0c000375 	jal	80000dd4 <putsns>
80001348:	24841ef4 	addiu	a0,a0,7924
8000134c:	3c048000 	lui	a0,0x8000
80001350:	8e05005c 	lw	a1,92(s0)
80001354:	26261e40 	addiu	a2,s1,7744
80001358:	0c000375 	jal	80000dd4 <putsns>
8000135c:	24841efc 	addiu	a0,a0,7932
80001360:	3c048000 	lui	a0,0x8000
80001364:	8e050060 	lw	a1,96(s0)
80001368:	26261e40 	addiu	a2,s1,7744
8000136c:	0c000375 	jal	80000dd4 <putsns>
80001370:	24841f04 	addiu	a0,a0,7940
80001374:	3c048000 	lui	a0,0x8000
80001378:	8e050064 	lw	a1,100(s0)
8000137c:	26261e40 	addiu	a2,s1,7744
80001380:	0c000375 	jal	80000dd4 <putsns>
80001384:	24841f0c 	addiu	a0,a0,7948
80001388:	3c048000 	lui	a0,0x8000
8000138c:	8e050068 	lw	a1,104(s0)
80001390:	26461e0c 	addiu	a2,s2,7692
80001394:	0c000375 	jal	80000dd4 <putsns>
80001398:	24841f14 	addiu	a0,a0,7956
8000139c:	3c048000 	lui	a0,0x8000
800013a0:	8e05006c 	lw	a1,108(s0)
800013a4:	26261e40 	addiu	a2,s1,7744
800013a8:	0c000375 	jal	80000dd4 <putsns>
800013ac:	24841f1c 	addiu	a0,a0,7964
800013b0:	3c048000 	lui	a0,0x8000
800013b4:	8e050070 	lw	a1,112(s0)
800013b8:	26261e40 	addiu	a2,s1,7744
800013bc:	0c000375 	jal	80000dd4 <putsns>
800013c0:	24841f24 	addiu	a0,a0,7972
800013c4:	3c048000 	lui	a0,0x8000
800013c8:	8e050074 	lw	a1,116(s0)
800013cc:	26261e40 	addiu	a2,s1,7744
800013d0:	0c000375 	jal	80000dd4 <putsns>
800013d4:	24841f2c 	addiu	a0,a0,7980
800013d8:	3c048000 	lui	a0,0x8000
800013dc:	8e050078 	lw	a1,120(s0)
800013e0:	26461e0c 	addiu	a2,s2,7692
800013e4:	0c000375 	jal	80000dd4 <putsns>
800013e8:	24841f34 	addiu	a0,a0,7988
800013ec:	3c048000 	lui	a0,0x8000
800013f0:	8e050084 	lw	a1,132(s0)
800013f4:	26261e40 	addiu	a2,s1,7744
800013f8:	0c000375 	jal	80000dd4 <putsns>
800013fc:	24841f3c 	addiu	a0,a0,7996
80001400:	3c048000 	lui	a0,0x8000
80001404:	8e050088 	lw	a1,136(s0)
80001408:	26461e0c 	addiu	a2,s2,7692
8000140c:	0c000375 	jal	80000dd4 <putsns>
80001410:	24841f44 	addiu	a0,a0,8004
80001414:	3c048000 	lui	a0,0x8000
80001418:	8e05007c 	lw	a1,124(s0)
8000141c:	26461e0c 	addiu	a2,s2,7692
80001420:	0c000375 	jal	80000dd4 <putsns>
80001424:	24841f4c 	addiu	a0,a0,8012
80001428:	3c048000 	lui	a0,0x8000
8000142c:	8e050080 	lw	a1,128(s0)
80001430:	26461e0c 	addiu	a2,s2,7692
80001434:	0c000375 	jal	80000dd4 <putsns>
80001438:	24841f58 	addiu	a0,a0,8024
8000143c:	3c048000 	lui	a0,0x8000
80001440:	8e050090 	lw	a1,144(s0)
80001444:	26461e0c 	addiu	a2,s2,7692
80001448:	0c000345 	jal	80000d14 <putsnds.constprop.0>
8000144c:	24841f64 	addiu	a0,a0,8036
80001450:	3c048000 	lui	a0,0x8000
80001454:	8e050094 	lw	a1,148(s0)
80001458:	26461e0c 	addiu	a2,s2,7692
8000145c:	0c000345 	jal	80000d14 <putsnds.constprop.0>
80001460:	24841f70 	addiu	a0,a0,8048
80001464:	3c048000 	lui	a0,0x8000
80001468:	8e050098 	lw	a1,152(s0)
8000146c:	26461e0c 	addiu	a2,s2,7692
80001470:	0c000345 	jal	80000d14 <putsnds.constprop.0>
80001474:	24841f7c 	addiu	a0,a0,8060
80001478:	3c048000 	lui	a0,0x8000
8000147c:	8e05009c 	lw	a1,156(s0)
80001480:	26461e0c 	addiu	a2,s2,7692
80001484:	0c000345 	jal	80000d14 <putsnds.constprop.0>
80001488:	24841f88 	addiu	a0,a0,8072
8000148c:	00002821 	move	a1,zero
80001490:	0c000615 	jal	80001854 <__uhi_exception>
80001494:	02002021 	move	a0,s0
80001498:	1440fe94 	bnez	v0,80000eec <__exception_handle_verbose+0x110>
8000149c:	3c028000 	lui	v0,0x8000
800014a0:	8fbf001c 	lw	ra,28(sp)
800014a4:	8fb20018 	lw	s2,24(sp)
800014a8:	8fb10014 	lw	s1,20(sp)
800014ac:	8fb00010 	lw	s0,16(sp)
800014b0:	03e00008 	jr	ra
800014b4:	27bd0020 	addiu	sp,sp,32

800014b8 <__first_boot>:
800014b8:	00000001 	movf	zero,zero,$fcc0

800014bc <__register_excpt_handler>:
800014bc:	40056000 	mfc0	a1,c0_status
800014c0:	3c0a0040 	lui	t2,0x40
800014c4:	408a6000 	mtc0	t2,c0_status
800014c8:	000000c0 	ehb
800014cc:	3c098000 	lui	t1,0x8000
800014d0:	2529156c 	addiu	t1,t1,5484
800014d4:	11200005 	beqz	t1,800014ec <__register_excpt_handler+0x30>
800014d8:	00000000 	nop
800014dc:	03e03021 	move	a2,ra
800014e0:	0120f809 	jalr	t1
800014e4:	00000000 	nop
800014e8:	0040f821 	move	ra,v0
800014ec:	3c098000 	lui	t1,0x8000
800014f0:	252914b8 	addiu	t1,t1,5304
800014f4:	ad200000 	sw	zero,0(t1)
800014f8:	400c8003 	mfc0	t4,c0_config3
800014fc:	3c0a8000 	lui	t2,0x8000
80001500:	254a0000 	addiu	t2,t2,0
80001504:	354a0800 	ori	t2,t2,0x800
80001508:	408a7801 	mtc0	t2,c0_ebase
8000150c:	000000c0 	ehb
80001510:	00001021 	move	v0,zero
80001514:	3c090000 	lui	t1,0x0
80001518:	25290020 	addiu	t1,t1,32
8000151c:	7d8a0140 	ext	t2,t4,0x5,0x1
80001520:	7d8b0180 	ext	t3,t4,0x6,0x1
80001524:	014b5025 	or	t2,t2,t3
80001528:	11400005 	beqz	t2,80001540 <__register_excpt_handler+0x84>
8000152c:	00000000 	nop
80001530:	400a6001 	mfc0	t2,c0_intctl
80001534:	7d2a4804 	ins	t2,t1,0x0,0xa
80001538:	10000003 	b	80001548 <__register_excpt_handler+0x8c>
8000153c:	408a6001 	mtc0	t2,c0_intctl
80001540:	15200008 	bnez	t1,80001564 <__register_excpt_handler+0xa8>
80001544:	00000000 	nop
80001548:	3c090080 	lui	t1,0x80
8000154c:	40896800 	mtc0	t1,c0_cause
80001550:	000000c0 	ehb
80001554:	7d8a0180 	ext	t2,t4,0x6,0x1
80001558:	15400002 	bnez	t2,80001564 <__register_excpt_handler+0xa8>
8000155c:	00000000 	nop
80001560:	34420001 	ori	v0,v0,0x1
80001564:	03e00008 	jr	ra
80001568:	00000000 	nop

8000156c <__register_excpt_boot>:
8000156c:	3c098000 	lui	t1,0x8000
80001570:	252923d0 	addiu	t1,t1,9168
80001574:	ad240038 	sw	a0,56(t1)
80001578:	ad250000 	sw	a1,0(t1)
8000157c:	ad300004 	sw	s0,4(t1)
80001580:	ad310008 	sw	s1,8(t1)
80001584:	ad32000c 	sw	s2,12(t1)
80001588:	ad330010 	sw	s3,16(t1)
8000158c:	ad340014 	sw	s4,20(t1)
80001590:	ad350018 	sw	s5,24(t1)
80001594:	ad36001c 	sw	s6,28(t1)
80001598:	ad370020 	sw	s7,32(t1)
8000159c:	ad3a0024 	sw	k0,36(t1)
800015a0:	ad3b0028 	sw	k1,40(t1)
800015a4:	ad3c002c 	sw	gp,44(t1)
800015a8:	ad3d0030 	sw	sp,48(t1)
800015ac:	ad3e0034 	sw	s8,52(t1)
800015b0:	400c8003 	mfc0	t4,c0_config3
800015b4:	400c6001 	mfc0	t4,c0_intctl
800015b8:	ad2c003c 	sw	t4,60(t1)
800015bc:	400a7801 	mfc0	t2,c0_ebase
800015c0:	ad2a0040 	sw	t2,64(t1)
800015c4:	3c0b0040 	lui	t3,0x40
800015c8:	010b5824 	and	t3,t0,t3
800015cc:	11600003 	beqz	t3,800015dc <__register_excpt_boot+0x70>
800015d0:	00000000 	nop
800015d4:	3c0abfc0 	lui	t2,0xbfc0
800015d8:	354a0200 	ori	t2,t2,0x200
800015dc:	ad2a0044 	sw	t2,68(t1)
800015e0:	03e00008 	jr	ra
800015e4:	00c01021 	move	v0,a2

800015e8 <__return_to_boot>:
800015e8:	41606000 	di
800015ec:	000000c0 	ehb
800015f0:	40096000 	mfc0	t1,c0_status
800015f4:	3c0a0040 	lui	t2,0x40
800015f8:	012a4825 	or	t1,t1,t2
800015fc:	40896000 	mtc0	t1,c0_status
80001600:	000000c0 	ehb
80001604:	3c098000 	lui	t1,0x8000
80001608:	252923d0 	addiu	t1,t1,9168
8000160c:	8d290040 	lw	t1,64(t1)
80001610:	352a0800 	ori	t2,t1,0x800
80001614:	408a7801 	mtc0	t2,c0_ebase
80001618:	312b0800 	andi	t3,t1,0x800
8000161c:	15600002 	bnez	t3,80001628 <__return_to_boot+0x40>
80001620:	00000000 	nop
80001624:	40897801 	mtc0	t1,c0_ebase
80001628:	000000c0 	ehb
8000162c:	3c098000 	lui	t1,0x8000
80001630:	252923d0 	addiu	t1,t1,9168
80001634:	8d300004 	lw	s0,4(t1)
80001638:	8d310008 	lw	s1,8(t1)
8000163c:	8d32000c 	lw	s2,12(t1)
80001640:	8d330010 	lw	s3,16(t1)
80001644:	8d340014 	lw	s4,20(t1)
80001648:	8d350018 	lw	s5,24(t1)
8000164c:	8d36001c 	lw	s6,28(t1)
80001650:	8d370020 	lw	s7,32(t1)
80001654:	8d3a0024 	lw	k0,36(t1)
80001658:	8d3b0028 	lw	k1,40(t1)
8000165c:	8d3c002c 	lw	gp,44(t1)
80001660:	8d3d0030 	lw	sp,48(t1)
80001664:	8d3e0034 	lw	s8,52(t1)
80001668:	8d3f0038 	lw	ra,56(t1)
8000166c:	8d22003c 	lw	v0,60(t1)
80001670:	40826001 	mtc0	v0,c0_intctl
80001674:	8d290000 	lw	t1,0(t1)
80001678:	40896000 	mtc0	t1,c0_status
8000167c:	40806800 	mtc0	zero,c0_cause
80001680:	03e00408 	jr.hb	ra
80001684:	00801021 	move	v0,a0

80001688 <__chain_uhi_excpt>:
80001688:	00801821 	move	v1,a0
8000168c:	8c690084 	lw	t1,132(v1)
80001690:	8c6a0088 	lw	t2,136(v1)
80001694:	01200011 	mthi	t1
80001698:	01400013 	mtlo	t2
8000169c:	8c690090 	lw	t1,144(v1)
800016a0:	40896000 	mtc0	t1,c0_status
800016a4:	8c69007c 	lw	t1,124(v1)
800016a8:	40897000 	mtc0	t1,c0_epc
800016ac:	000000c0 	ehb
800016b0:	8c610000 	lw	at,0(v1)
800016b4:	8c620004 	lw	v0,4(v1)
800016b8:	8c64000c 	lw	a0,12(v1)
800016bc:	8c650010 	lw	a1,16(v1)
800016c0:	8c660014 	lw	a2,20(v1)
800016c4:	8c670018 	lw	a3,24(v1)
800016c8:	8c68001c 	lw	t0,28(v1)
800016cc:	8c690020 	lw	t1,32(v1)
800016d0:	8c6a0024 	lw	t2,36(v1)
800016d4:	8c6b0028 	lw	t3,40(v1)
800016d8:	8c6c002c 	lw	t4,44(v1)
800016dc:	8c6d0030 	lw	t5,48(v1)
800016e0:	8c6e0034 	lw	t6,52(v1)
800016e4:	8c6f0038 	lw	t7,56(v1)
800016e8:	8c70003c 	lw	s0,60(v1)
800016ec:	8c710040 	lw	s1,64(v1)
800016f0:	8c720044 	lw	s2,68(v1)
800016f4:	8c730048 	lw	s3,72(v1)
800016f8:	8c74004c 	lw	s4,76(v1)
800016fc:	8c750050 	lw	s5,80(v1)
80001700:	8c760054 	lw	s6,84(v1)
80001704:	8c770058 	lw	s7,88(v1)
80001708:	8c78005c 	lw	t8,92(v1)
8000170c:	8c790060 	lw	t9,96(v1)
80001710:	8c7c006c 	lw	gp,108(v1)
80001714:	8c7d0070 	lw	sp,112(v1)
80001718:	8c7e0074 	lw	s8,116(v1)
8000171c:	8c7f0078 	lw	ra,120(v1)
80001720:	3c038000 	lui	v1,0x8000
80001724:	246323d0 	addiu	v1,v1,9168
80001728:	8c7a0024 	lw	k0,36(v1)
8000172c:	8c7b0028 	lw	k1,40(v1)
80001730:	8c630044 	lw	v1,68(v1)
80001734:	24630180 	addiu	v1,v1,384
80001738:	00600008 	jr	v1
8000173c:	00000000 	nop

80001740 <__get_startup_BEV>:
80001740:	3c028000 	lui	v0,0x8000
80001744:	244223d0 	addiu	v0,v0,9168
80001748:	8c420000 	lw	v0,0(v0)
8000174c:	3c030040 	lui	v1,0x40
80001750:	03e00008 	jr	ra
80001754:	00431024 	and	v0,v0,v1

80001758 <__convert_argv_pointers>:
80001758:	18800021 	blez	a0,800017e0 <__convert_argv_pointers+0x88>
8000175c:	00000000 	nop
80001760:	3c088000 	lui	t0,0x8000
80001764:	250823d0 	addiu	t0,t0,9168
80001768:	8d080000 	lw	t0,0(t0)
8000176c:	7d0901c0 	ext	t1,t0,0x7,0x1
80001770:	1120001b 	beqz	t1,800017e0 <__convert_argv_pointers+0x88>
80001774:	00000000 	nop
80001778:	00804021 	move	t0,a0
8000177c:	00084880 	sll	t1,t0,0x2
80001780:	25290007 	addiu	t1,t1,7
80001784:	2401fff8 	li	at,-8
80001788:	01214824 	and	t1,t1,at
8000178c:	03a9e823 	subu	sp,sp,t1
80001790:	03a05021 	move	t2,sp
80001794:	00a05821 	move	t3,a1
80001798:	2409ffff 	li	t1,-1
8000179c:	8d780000 	lw	t8,0(t3)
800017a0:	8d790004 	lw	t9,4(t3)
800017a4:	13200005 	beqz	t9,800017bc <__convert_argv_pointers+0x64>
800017a8:	00000000 	nop
800017ac:	13290003 	beq	t9,t1,800017bc <__convert_argv_pointers+0x64>
800017b0:	00000000 	nop
800017b4:	3c188000 	lui	t8,0x8000
800017b8:	27182418 	addiu	t8,t8,9240
800017bc:	ad580000 	sw	t8,0(t2)
800017c0:	254a0004 	addiu	t2,t2,4
800017c4:	256b0008 	addiu	t3,t3,8
800017c8:	2508ffff 	addiu	t0,t0,-1
800017cc:	1500fff3 	bnez	t0,8000179c <__convert_argv_pointers+0x44>
800017d0:	00000000 	nop
800017d4:	03a02821 	move	a1,sp
800017d8:	27bdfff0 	addiu	sp,sp,-16
800017dc:	00003021 	move	a2,zero
800017e0:	03e00008 	jr	ra
800017e4:	00000000 	nop

800017e8 <strlen>:
800017e8:	24820001 	addiu	v0,a0,1
800017ec:	90830000 	lbu	v1,0(a0)
800017f0:	00000000 	nop
800017f4:	1460fffd 	bnez	v1,800017ec <strlen+0x4>
800017f8:	24840001 	addiu	a0,a0,1
800017fc:	03e00008 	jr	ra
80001800:	00821023 	subu	v0,a0,v0

80001804 <write>:
80001804:	27bdffe0 	addiu	sp,sp,-32
80001808:	24190005 	li	t9,5
8000180c:	afbf001c 	sw	ra,28(sp)
80001810:	24020001 	li	v0,1
80001814:	afb00018 	sw	s0,24(sp)
80001818:	0000004c 	syscall	0x1
8000181c:	00408021 	move	s0,v0
80001820:	2402ffff 	li	v0,-1
80001824:	16020007 	bne	s0,v0,80001844 <write+0x40>
80001828:	8fbf001c 	lw	ra,28(sp)
8000182c:	afa30010 	sw	v1,16(sp)
80001830:	0c00062b 	jal	800018ac <__errno>
80001834:	00000000 	nop
80001838:	8fa30010 	lw	v1,16(sp)
8000183c:	ac430000 	sw	v1,0(v0)
80001840:	8fbf001c 	lw	ra,28(sp)
80001844:	02001021 	move	v0,s0
80001848:	8fb00018 	lw	s0,24(sp)
8000184c:	03e00008 	jr	ra
80001850:	27bd0020 	addiu	sp,sp,32

80001854 <__uhi_exception>:
80001854:	2419000f 	li	t9,15
80001858:	24020001 	li	v0,1
8000185c:	0000004c 	syscall	0x1
80001860:	03e00008 	jr	ra
80001864:	00000000 	nop

80001868 <__uhi_indirect>:
80001868:	00804021 	move	t0,a0
8000186c:	8c84000c 	lw	a0,12(a0)
80001870:	24020001 	li	v0,1
80001874:	8d050010 	lw	a1,16(t0)
80001878:	8d060014 	lw	a2,20(t0)
8000187c:	8d070018 	lw	a3,24(t0)
80001880:	8d190060 	lw	t9,96(t0)
80001884:	7000007f 	sdbbp	0x1
80001888:	ad020004 	sw	v0,4(t0)
8000188c:	8d02007c 	lw	v0,124(t0)
80001890:	ad030008 	sw	v1,8(t0)
80001894:	ad04000c 	sw	a0,12(t0)
80001898:	24420004 	addiu	v0,v0,4
8000189c:	ad050010 	sw	a1,16(t0)
800018a0:	ad02007c 	sw	v0,124(t0)
800018a4:	03e00008 	jr	ra
800018a8:	24020001 	li	v0,1

800018ac <__errno>:
800018ac:	3c028000 	lui	v0,0x8000
800018b0:	03e00008 	jr	ra
800018b4:	8c422438 	lw	v0,9272(v0)

800018b8 <__exception_save>:
800018b8:	03a0d821 	move	k1,sp
800018bc:	27bdff50 	addiu	sp,sp,-176
800018c0:	afa10010 	sw	at,16(sp)
800018c4:	afa20014 	sw	v0,20(sp)
800018c8:	afa30018 	sw	v1,24(sp)
800018cc:	afa4001c 	sw	a0,28(sp)
800018d0:	afa50020 	sw	a1,32(sp)
800018d4:	afa60024 	sw	a2,36(sp)
800018d8:	afa70028 	sw	a3,40(sp)
800018dc:	afa8002c 	sw	t0,44(sp)
800018e0:	afa90030 	sw	t1,48(sp)
800018e4:	afaa0034 	sw	t2,52(sp)
800018e8:	afab0038 	sw	t3,56(sp)
800018ec:	afac003c 	sw	t4,60(sp)
800018f0:	afad0040 	sw	t5,64(sp)
800018f4:	afae0044 	sw	t6,68(sp)
800018f8:	afaf0048 	sw	t7,72(sp)
800018fc:	afb0004c 	sw	s0,76(sp)
80001900:	afb10050 	sw	s1,80(sp)
80001904:	afb20054 	sw	s2,84(sp)
80001908:	afb30058 	sw	s3,88(sp)
8000190c:	afb4005c 	sw	s4,92(sp)
80001910:	afb50060 	sw	s5,96(sp)
80001914:	afb60064 	sw	s6,100(sp)
80001918:	afb70068 	sw	s7,104(sp)
8000191c:	afb8006c 	sw	t8,108(sp)
80001920:	afb90070 	sw	t9,112(sp)
80001924:	afba0074 	sw	k0,116(sp)
80001928:	afbc007c 	sw	gp,124(sp)
8000192c:	afbb0080 	sw	k1,128(sp)
80001930:	afbe0084 	sw	s8,132(sp)
80001934:	afbf0088 	sw	ra,136(sp)
80001938:	afa0009c 	sw	zero,156(sp)
8000193c:	00004810 	mfhi	t1
80001940:	00005012 	mflo	t2
80001944:	afa90094 	sw	t1,148(sp)
80001948:	afaa0098 	sw	t2,152(sp)
8000194c:	401f7000 	mfc0	ra,c0_epc
80001950:	40136800 	mfc0	s3,c0_cause
80001954:	afbf008c 	sw	ra,140(sp)
80001958:	40094000 	mfc0	t1,c0_badvaddr
8000195c:	afa90090 	sw	t1,144(sp)
80001960:	afb300a4 	sw	s3,164(sp)
80001964:	00005821 	move	t3,zero
80001968:	00006021 	move	t4,zero
8000196c:	40098003 	mfc0	t1,c0_config3
80001970:	7d2a06c0 	ext	t2,t1,0x1b,0x1
80001974:	11400002 	beqz	t2,80001980 <__exception_save+0xc8>
80001978:	00000000 	nop
8000197c:	400b4002 	mfc0	t3,$8,2
80001980:	7d290680 	ext	t1,t1,0x1a,0x1
80001984:	11200002 	beqz	t1,80001990 <__exception_save+0xd8>
80001988:	00000000 	nop
8000198c:	400c4001 	mfc0	t4,$8,1
80001990:	afab00ac 	sw	t3,172(sp)
80001994:	afac00a8 	sw	t4,168(sp)
80001998:	03a02021 	move	a0,sp
8000199c:	40156000 	mfc0	s5,c0_status
800019a0:	afb500a0 	sw	s5,160(sp)
800019a4:	3c090000 	lui	t1,0x0
800019a8:	2529fffd 	addiu	t1,t1,-3
800019ac:	02a9a824 	and	s5,s5,t1
800019b0:	40956000 	mtc0	s5,c0_status
800019b4:	3c1f8000 	lui	ra,0x8000
800019b8:	27ff19d8 	addiu	ra,ra,6616
800019bc:	3265007c 	andi	a1,s3,0x7c
800019c0:	24840010 	addiu	a0,a0,16
800019c4:	00052882 	srl	a1,a1,0x2
800019c8:	3c198000 	lui	t9,0x8000
800019cc:	27390844 	addiu	t9,t9,2116
800019d0:	03200008 	jr	t9
800019d4:	00000000 	nop
800019d8:	8fa90094 	lw	t1,148(sp)
800019dc:	8faa0098 	lw	t2,152(sp)
800019e0:	01200011 	mthi	t1
800019e4:	01400013 	mtlo	t2
800019e8:	8fa10010 	lw	at,16(sp)
800019ec:	8fa20014 	lw	v0,20(sp)
800019f0:	8fa30018 	lw	v1,24(sp)
800019f4:	8fa4001c 	lw	a0,28(sp)
800019f8:	8fa50020 	lw	a1,32(sp)
800019fc:	8fa60024 	lw	a2,36(sp)
80001a00:	8fa70028 	lw	a3,40(sp)
80001a04:	8fa8002c 	lw	t0,44(sp)
80001a08:	8fa90030 	lw	t1,48(sp)
80001a0c:	8faa0034 	lw	t2,52(sp)
80001a10:	8fab0038 	lw	t3,56(sp)
80001a14:	8fac003c 	lw	t4,60(sp)
80001a18:	8fad0040 	lw	t5,64(sp)
80001a1c:	8fae0044 	lw	t6,68(sp)
80001a20:	8faf0048 	lw	t7,72(sp)
80001a24:	8fb0004c 	lw	s0,76(sp)
80001a28:	8fb10050 	lw	s1,80(sp)
80001a2c:	8fb20054 	lw	s2,84(sp)
80001a30:	8fb30058 	lw	s3,88(sp)
80001a34:	8fb4005c 	lw	s4,92(sp)
80001a38:	8fb50060 	lw	s5,96(sp)
80001a3c:	8fb60064 	lw	s6,100(sp)
80001a40:	8fb70068 	lw	s7,104(sp)
80001a44:	8fb8006c 	lw	t8,108(sp)
80001a48:	8fb90070 	lw	t9,112(sp)
80001a4c:	8fbc007c 	lw	gp,124(sp)
80001a50:	8fbe0084 	lw	s8,132(sp)
80001a54:	8fbf0088 	lw	ra,136(sp)
80001a58:	41606000 	di
80001a5c:	8fba00a0 	lw	k0,160(sp)
80001a60:	8fbb008c 	lw	k1,140(sp)
80001a64:	409a6000 	mtc0	k0,c0_status
80001a68:	409b7000 	mtc0	k1,c0_epc
80001a6c:	000000c0 	ehb
80001a70:	8fba0074 	lw	k0,116(sp)
80001a74:	8fbb0078 	lw	k1,120(sp)
80001a78:	8fbd0080 	lw	sp,128(sp)
80001a7c:	42000018 	eret

Disassembly of section .init:

80001a80 <_init>:
80001a80:	27bdffe0 	addiu	sp,sp,-32
80001a84:	afbf0014 	sw	ra,20(sp)
80001a88:	0c0001bf 	jal	800006fc <frame_dummy>
80001a8c:	00000000 	nop
80001a90:	0c000216 	jal	80000858 <__do_global_ctors_aux>
80001a94:	00000000 	nop

80001a98 <init>:
80001a98:	8fbf0014 	lw	ra,20(sp)
80001a9c:	03e00008 	jr	ra
80001aa0:	27bd0020 	addiu	sp,sp,32

Disassembly of section .fini:

80001aa4 <_fini>:
80001aa4:	27bdffe0 	addiu	sp,sp,-32
80001aa8:	afbf0014 	sw	ra,20(sp)
80001aac:	0c00018f 	jal	8000063c <__do_global_dtors_aux>
80001ab0:	00000000 	nop

80001ab4 <fini>:
80001ab4:	8fbf0014 	lw	ra,20(sp)
80001ab8:	03e00008 	jr	ra
80001abc:	27bd0020 	addiu	sp,sp,32

Disassembly of section .eh_frame:

80001ac0 <__EH_FRAME_BEGIN__>:
80001ac0:	00000000 	nop

Disassembly of section .jcr:

80001ac4 <__JCR_END__>:
80001ac4:	00000000 	nop

Disassembly of section .ctors:

80001ac8 <__CTOR_LIST__>:
80001ac8:	ffffffff 	sdc3	$31,-1(ra)

80001acc <__CTOR_END__>:
80001acc:	00000000 	nop

Disassembly of section .dtors:

80001ad0 <__DTOR_LIST__>:
80001ad0:	ffffffff 	sdc3	$31,-1(ra)

80001ad4 <__DTOR_END__>:
80001ad4:	00000000 	nop

Disassembly of section .MIPS.abiflags:

80001ad8 <__MIPS_abiflags_start>:
80001ad8:	02200000 	0x2200000
80001adc:	03000001 	movf	zero,t8,$fcc0
80001ae0:	00000000 	nop
80001ae4:	00000000 	nop
80001ae8:	00000001 	movf	zero,zero,$fcc0
80001aec:	00000000 	nop

Disassembly of section .rodata:

80001af0 <_fdata-0x4b0>:
80001af0:	80000e1c 	lb	zero,3612(zero)
80001af4:	80000e2c 	lb	zero,3628(zero)
80001af8:	80000e38 	lb	zero,3640(zero)
80001afc:	80000e44 	lb	zero,3652(zero)
80001b00:	80000e64 	lb	zero,3684(zero)
80001b04:	80000e70 	lb	zero,3696(zero)
80001b08:	80000e90 	lb	zero,3728(zero)
80001b0c:	80000ea4 	lb	zero,3748(zero)
80001b10:	80000f64 	lb	zero,3940(zero)
80001b14:	80000f70 	lb	zero,3952(zero)
80001b18:	80000f7c 	lb	zero,3964(zero)
80001b1c:	80000f88 	lb	zero,3976(zero)
80001b20:	80000f9c 	lb	zero,3996(zero)
80001b24:	80000fb0 	lb	zero,4016(zero)
80001b28:	80001014 	lb	zero,4116(zero)
80001b2c:	80001078 	lb	zero,4216(zero)
80001b30:	80001088 	lb	zero,4232(zero)
80001b34:	8000109c 	lb	zero,4252(zero)
80001b38:	800010b0 	lb	zero,4272(zero)
80001b3c:	800010c4 	lb	zero,4292(zero)
80001b40:	800010d8 	lb	zero,4312(zero)
80001b44:	800010e4 	lb	zero,4324(zero)
80001b48:	800010f0 	lb	zero,4336(zero)
80001b4c:	80001100 	lb	zero,4352(zero)
80001b50:	80001114 	lb	zero,4372(zero)
80001b54:	80001128 	lb	zero,4392(zero)
80001b58:	80001150 	lb	zero,4432(zero)
80001b5c:	80001150 	lb	zero,4432(zero)
80001b60:	80001150 	lb	zero,4432(zero)
80001b64:	8000113c 	lb	zero,4412(zero)
80001b68:	00000043 	sra	zero,zero,0x1
80001b6c:	33323130 	andi	s2,t9,0x3130
80001b70:	37363534 	ori	s6,t9,0x3534
80001b74:	42413938 	c0	0x413938
80001b78:	46454443 	c1	0x454443
80001b7c:	00000000 	nop
80001b80:	20424c54 	addi	v0,v0,19540
80001b84:	69646f6d 	0x69646f6d
80001b88:	61636966 	0x61636966
80001b8c:	6e6f6974 	0x6e6f6974
80001b90:	63786520 	0x63786520
80001b94:	69747065 	0x69747065
80001b98:	000a6e6f 	0xa6e6f
80001b9c:	20424c54 	addi	v0,v0,19540
80001ba0:	6f727265 	0x6f727265
80001ba4:	6e6f2072 	0x6e6f2072
80001ba8:	616f6c20 	0x616f6c20
80001bac:	72662064 	s8ldi	xr1,s3,-120,ptn1
80001bb0:	30206d6f 	andi	zero,at,0x6d6f
80001bb4:	00000078 	0x78
80001bb8:	20424c54 	addi	v0,v0,19540
80001bbc:	6f727265 	0x6f727265
80001bc0:	6e6f2072 	0x6e6f2072
80001bc4:	6f747320 	0x6f747320
80001bc8:	74206572 	jalx	808195c8 <__stack+0x7d95c8>
80001bcc:	7830206f 	0x7830206f
80001bd0:	00000000 	nop
80001bd4:	72646441 	0x72646441
80001bd8:	20737365 	addi	s3,v1,29541
80001bdc:	6f727265 	0x6f727265
80001be0:	6e6f2072 	0x6e6f2072
80001be4:	616f6c20 	0x616f6c20
80001be8:	72662064 	s8ldi	xr1,s3,-120,ptn1
80001bec:	30206d6f 	andi	zero,at,0x6d6f
80001bf0:	00000078 	0x78
80001bf4:	72646441 	0x72646441
80001bf8:	20737365 	addi	s3,v1,29541
80001bfc:	6f727265 	0x6f727265
80001c00:	6e6f2072 	0x6e6f2072
80001c04:	6f747320 	0x6f747320
80001c08:	74206572 	jalx	808195c8 <__stack+0x7d95c8>
80001c0c:	7830206f 	0x7830206f
80001c10:	00000000 	nop
80001c14:	74736e49 	jalx	81cdb924 <__stack+0x1c9b924>
80001c18:	74637572 	jalx	818dd5c8 <__stack+0x189d5c8>
80001c1c:	206e6f69 	addi	t6,v1,28521
80001c20:	20737562 	addi	s3,v1,30050
80001c24:	6f727265 	0x6f727265
80001c28:	00000a72 	tlt	zero,zero,0x29
80001c2c:	61746144 	0x61746144
80001c30:	73756220 	0x73756220
80001c34:	72726520 	0x72726520
80001c38:	000a726f 	0xa726f
80001c3c:	6320324c 	0x6320324c
80001c40:	65686361 	0x65686361
80001c44:	6e6f6320 	0x6e6f6320
80001c48:	75676966 	jalx	859da598 <__stack+0x599a598>
80001c4c:	69746172 	0x69746172
80001c50:	65206e6f 	0x65206e6f
80001c54:	726f7272 	0x726f7272
80001c58:	0000000a 	movz	zero,zero,zero
80001c5c:	6e6b6e55 	0x6e6b6e55
80001c60:	206e776f 	addi	t6,v1,30575
80001c64:	746f6f62 	jalx	81bdbd88 <__stack+0x1b9bd88>
80001c68:	69616620 	0x69616620
80001c6c:	6572756c 	0x6572756c
80001c70:	72726520 	0x72726520
80001c74:	000a726f 	0xa726f
80001c78:	61657242 	0x61657242
80001c7c:	696f706b 	0x696f706b
80001c80:	4020746e 	0x4020746e
80001c84:	00007830 	tge	zero,zero,0x1e0
80001c88:	656c6c49 	0x656c6c49
80001c8c:	206c6167 	addi	t4,v1,24935
80001c90:	74736e69 	jalx	81cdb9a4 <__stack+0x1c9b9a4>
80001c94:	74637572 	jalx	818dd5c8 <__stack+0x189d5c8>
80001c98:	206e6f69 	addi	t6,v1,28521
80001c9c:	00783040 	0x783040
80001ca0:	72706f43 	0x72706f43
80001ca4:	7365636f 	0x7365636f
80001ca8:	20726f73 	addi	s2,v1,28531
80001cac:	73756e75 	q16slr	xr9,xr11,xr5,xr13,13
80001cb0:	656c6261 	0x656c6261
80001cb4:	78304020 	ld.b	$w0,48(t0)
80001cb8:	00000000 	nop
80001cbc:	7265764f 	d16mace	xr9,xr13,xr5,xr9,SA,LW
80001cc0:	776f6c66 	jalx	8dbdb198 <__stack+0xdb9b198>
80001cc4:	0000000a 	movz	zero,zero,zero
80001cc8:	70617254 	s32ldi	xr9,v1,368
80001ccc:	0000000a 	movz	zero,zero,zero
80001cd0:	2041534d 	addi	at,v0,21325
80001cd4:	616f6c46 	0x616f6c46
80001cd8:	676e6974 	0x676e6974
80001cdc:	696f7020 	0x696f7020
80001ce0:	6520746e 	0x6520746e
80001ce4:	726f7272 	0x726f7272
80001ce8:	0000000a 	movz	zero,zero,zero
80001cec:	6c706d49 	0x6c706d49
80001cf0:	6e656d65 	0x6e656d65
80001cf4:	69746174 	0x69746174
80001cf8:	73206e6f 	0x73206e6f
80001cfc:	69636570 	0x69636570
80001d00:	20636966 	addi	v1,v1,26982
80001d04:	65637865 	0x65637865
80001d08:	6f697470 	0x6f697470
80001d0c:	3128206e 	andi	t0,t1,0x206e
80001d10:	000a2936 	tne	zero,t2,0xa4
80001d14:	6c706d49 	0x6c706d49
80001d18:	6e656d65 	0x6e656d65
80001d1c:	69746174 	0x69746174
80001d20:	73206e6f 	0x73206e6f
80001d24:	69636570 	0x69636570
80001d28:	20636966 	addi	v1,v1,26982
80001d2c:	65637865 	0x65637865
80001d30:	6f697470 	0x6f697470
80001d34:	3128206e 	andi	t0,t1,0x206e
80001d38:	000a2937 	0xa2937
80001d3c:	63657250 	0x63657250
80001d40:	20657369 	addi	a1,v1,29545
80001d44:	72706f43 	0x72706f43
80001d48:	7365636f 	0x7365636f
80001d4c:	20726f73 	addi	s2,v1,28531
80001d50:	78652032 	0x78652032
80001d54:	74706563 	jalx	81c1958c <__stack+0x1bd958c>
80001d58:	0a6e6f69 	j	89b9bda4 <__stack+0x9b5bda4>
80001d5c:	00000000 	nop
80001d60:	20424c54 	addi	v0,v0,19540
80001d64:	64616572 	0x64616572
80001d68:	686e6920 	0x686e6920
80001d6c:	74696269 	jalx	81a589a4 <__stack+0x1a189a4>
80001d70:	63786520 	0x63786520
80001d74:	69747065 	0x69747065
80001d78:	000a6e6f 	0xa6e6f
80001d7c:	20424c54 	addi	v0,v0,19540
80001d80:	63657865 	0x63657865
80001d84:	20657475 	addi	a1,v1,29813
80001d88:	69686e69 	0x69686e69
80001d8c:	20746962 	addi	s4,v1,26978
80001d90:	65637865 	0x65637865
80001d94:	6f697470 	0x6f697470
80001d98:	00000a6e 	0xa6e
80001d9c:	2041534d 	addi	at,v0,21325
80001da0:	73756e75 	q16slr	xr9,xr11,xr5,xr13,13
80001da4:	656c6261 	0x656c6261
80001da8:	78304020 	ld.b	$w0,48(t0)
80001dac:	00000000 	nop
80001db0:	584d444d 	0x584d444d
80001db4:	63786520 	0x63786520
80001db8:	69747065 	0x69747065
80001dbc:	40206e6f 	0x40206e6f
80001dc0:	00007830 	tge	zero,zero,0x1e0
80001dc4:	63746157 	0x63746157
80001dc8:	696f7068 	0x696f7068
80001dcc:	4020746e 	0x4020746e
80001dd0:	00007830 	tge	zero,zero,0x1e0
80001dd4:	6863614d 	0x6863614d
80001dd8:	20656e69 	addi	a1,v1,28265
80001ddc:	63656863 	0x63656863
80001de0:	7265206b 	s16std	xr1,s3,-368,ptn0
80001de4:	0a726f72 	j	89c9bdc8 <__stack+0x9c5bdc8>
80001de8:	00000000 	nop
80001dec:	65726854 	0x65726854
80001df0:	65206461 	0x65206461
80001df4:	70656378 	0x70656378
80001df8:	6e6f6974 	0x6e6f6974
80001dfc:	0000000a 	movz	zero,zero,zero
80001e00:	20505344 	addi	s0,v0,21316
80001e04:	73756e75 	q16slr	xr9,xr11,xr5,xr13,13
80001e08:	656c6261 	0x656c6261
80001e0c:	0000000a 	movz	zero,zero,zero
80001e10:	68636143 	0x68636143
80001e14:	72652065 	s8sdi	xr1,s3,72,ptn1
80001e18:	0a726f72 	j	89c9bdc8 <__stack+0x9c5bdc8>
80001e1c:	00000000 	nop
80001e20:	61686e55 	0x61686e55
80001e24:	656c646e 	0x656c646e
80001e28:	78652064 	st.b	$w1,101(a0)
80001e2c:	74706563 	jalx	81c1958c <__stack+0x1bd958c>
80001e30:	206e6f69 	addi	t6,v1,28521
80001e34:	00000000 	nop
80001e38:	093a3020 	j	84e8c080 <__stack+0x4e4c080>
80001e3c:	00000000 	nop
80001e40:	00000009 	jalr	zero,zero
80001e44:	093a7461 	j	84e9d184 <__stack+0x4e5d184>
80001e48:	00000000 	nop
80001e4c:	093a3076 	j	84e8c1d8 <__stack+0x4e4c1d8>
80001e50:	00000000 	nop
80001e54:	093a3176 	j	84e8c5d8 <__stack+0x4e4c5d8>
80001e58:	00000000 	nop
80001e5c:	093a3061 	j	84e8c184 <__stack+0x4e4c184>
80001e60:	00000000 	nop
80001e64:	093a3161 	j	84e8c584 <__stack+0x4e4c584>
80001e68:	00000000 	nop
80001e6c:	093a3261 	j	84e8c984 <__stack+0x4e4c984>
80001e70:	00000000 	nop
80001e74:	093a3361 	j	84e8cd84 <__stack+0x4e4cd84>
80001e78:	00000000 	nop
80001e7c:	093a3074 	j	84e8c1d0 <__stack+0x4e4c1d0>
80001e80:	00000000 	nop
80001e84:	093a3174 	j	84e8c5d0 <__stack+0x4e4c5d0>
80001e88:	00000000 	nop
80001e8c:	093a3274 	j	84e8c9d0 <__stack+0x4e4c9d0>
80001e90:	00000000 	nop
80001e94:	093a3374 	j	84e8cdd0 <__stack+0x4e4cdd0>
80001e98:	00000000 	nop
80001e9c:	093a3474 	j	84e8d1d0 <__stack+0x4e4d1d0>
80001ea0:	00000000 	nop
80001ea4:	093a3574 	j	84e8d5d0 <__stack+0x4e4d5d0>
80001ea8:	00000000 	nop
80001eac:	093a3674 	j	84e8d9d0 <__stack+0x4e4d9d0>
80001eb0:	00000000 	nop
80001eb4:	093a3774 	j	84e8ddd0 <__stack+0x4e4ddd0>
80001eb8:	00000000 	nop
80001ebc:	093a3073 	j	84e8c1cc <__stack+0x4e4c1cc>
80001ec0:	00000000 	nop
80001ec4:	093a3173 	j	84e8c5cc <__stack+0x4e4c5cc>
80001ec8:	00000000 	nop
80001ecc:	093a3273 	j	84e8c9cc <__stack+0x4e4c9cc>
80001ed0:	00000000 	nop
80001ed4:	093a3373 	j	84e8cdcc <__stack+0x4e4cdcc>
80001ed8:	00000000 	nop
80001edc:	093a3473 	j	84e8d1cc <__stack+0x4e4d1cc>
80001ee0:	00000000 	nop
80001ee4:	093a3573 	j	84e8d5cc <__stack+0x4e4d5cc>
80001ee8:	00000000 	nop
80001eec:	093a3673 	j	84e8d9cc <__stack+0x4e4d9cc>
80001ef0:	00000000 	nop
80001ef4:	093a3773 	j	84e8ddcc <__stack+0x4e4ddcc>
80001ef8:	00000000 	nop
80001efc:	093a3874 	j	84e8e1d0 <__stack+0x4e4e1d0>
80001f00:	00000000 	nop
80001f04:	093a3974 	j	84e8e5d0 <__stack+0x4e4e5d0>
80001f08:	00000000 	nop
80001f0c:	093a306b 	j	84e8c1ac <__stack+0x4e4c1ac>
80001f10:	00000000 	nop
80001f14:	093a316b 	j	84e8c5ac <__stack+0x4e4c5ac>
80001f18:	00000000 	nop
80001f1c:	093a7067 	j	84e9c19c <__stack+0x4e5c19c>
80001f20:	00000000 	nop
80001f24:	093a7073 	j	84e9c1cc <__stack+0x4e5c1cc>
80001f28:	00000000 	nop
80001f2c:	093a7066 	j	84e9c198 <__stack+0x4e5c198>
80001f30:	00000000 	nop
80001f34:	093a6172 	j	84e985c8 <__stack+0x4e585c8>
80001f38:	00000000 	nop
80001f3c:	093a6968 	j	84e9a5a0 <__stack+0x4e5a5a0>
80001f40:	00000000 	nop
80001f44:	093a6f6c 	j	84e9bdb0 <__stack+0x4e5bdb0>
80001f48:	00000000 	nop
80001f4c:	3a637065 	xori	v1,s3,0x7065
80001f50:	20202020 	addi	zero,at,8224
80001f54:	00000920 	0x920
80001f58:	56646142 	bnel	s3,a0,8001a464 <__global+0x10034>
80001f5c:	72646441 	0x72646441
80001f60:	0000093a 	0x93a
80001f64:	74617453 	jalx	8185d14c <__stack+0x181d14c>
80001f68:	203a7375 	addi	k0,at,29557
80001f6c:	00092020 	add	a0,zero,t1
80001f70:	73756143 	0x73756143
80001f74:	20203a65 	addi	zero,at,14949
80001f78:	00092020 	add	a0,zero,t1
80001f7c:	49646142 	0x49646142
80001f80:	7274736e 	0x7274736e
80001f84:	0009203a 	0x9203a
80001f88:	50646142 	beql	v1,a0,8001a494 <__global+0x10064>
80001f8c:	74736e49 	jalx	81cdb924 <__stack+0x1c9b924>
80001f90:	00093a72 	tlt	zero,t1,0xe9

Disassembly of section .data:

80001f98 <__temp_space>:
80001f98:	00000000 	nop
80001f9c:	00000000 	nop
80001fa0:	00000000 	nop
80001fa4:	00000000 	nop

80001fa8 <impure_data>:
80001fa8:	00000000 	nop
80001fac:	80002294 	lb	zero,8852(zero)
80001fb0:	800022fc 	lb	zero,8956(zero)
80001fb4:	80002364 	lb	zero,9060(zero)
80001fb8:	00000000 	nop
80001fbc:	00000000 	nop
80001fc0:	00000000 	nop
80001fc4:	00000000 	nop
80001fc8:	00000000 	nop
80001fcc:	00000000 	nop
80001fd0:	00000000 	nop
80001fd4:	00000000 	nop
80001fd8:	00000000 	nop
80001fdc:	80001b68 	lb	zero,7016(zero)
80001fe0:	00000000 	nop
80001fe4:	00000000 	nop
80001fe8:	00000000 	nop
80001fec:	00000000 	nop
80001ff0:	00000000 	nop
80001ff4:	00000000 	nop
80001ff8:	00000000 	nop
80001ffc:	00000000 	nop
80002000:	00000000 	nop
80002004:	00000000 	nop
80002008:	00000000 	nop
8000200c:	00000000 	nop
80002010:	00000000 	nop
80002014:	00000000 	nop
80002018:	00000000 	nop
8000201c:	00000000 	nop
80002020:	00000000 	nop
80002024:	00000000 	nop
80002028:	00000000 	nop
8000202c:	00000000 	nop
80002030:	00000000 	nop
80002034:	00000000 	nop
80002038:	00000000 	nop
8000203c:	00000000 	nop
80002040:	00000000 	nop
80002044:	00000000 	nop
80002048:	00000000 	nop
8000204c:	00000000 	nop
80002050:	00000001 	movf	zero,zero,$fcc0
80002054:	00000000 	nop
80002058:	abcd330e 	swl	t5,13070(s8)
8000205c:	e66d1234 	swc1	$f13,4660(s3)
80002060:	0005deec 	0x5deec
80002064:	0000000b 	movn	zero,zero,zero
80002068:	00000000 	nop
8000206c:	00000000 	nop
80002070:	00000000 	nop
80002074:	00000000 	nop
80002078:	00000000 	nop
8000207c:	00000000 	nop
80002080:	00000000 	nop
80002084:	00000000 	nop
80002088:	00000000 	nop
8000208c:	00000000 	nop
80002090:	00000000 	nop
80002094:	00000000 	nop
80002098:	00000000 	nop
8000209c:	00000000 	nop
800020a0:	00000000 	nop
800020a4:	00000000 	nop
800020a8:	00000000 	nop
800020ac:	00000000 	nop
800020b0:	00000000 	nop
800020b4:	00000000 	nop
800020b8:	00000000 	nop
800020bc:	00000000 	nop
800020c0:	00000000 	nop
800020c4:	00000000 	nop
800020c8:	00000000 	nop
800020cc:	00000000 	nop
800020d0:	00000000 	nop
800020d4:	00000000 	nop
800020d8:	00000000 	nop
800020dc:	00000000 	nop
800020e0:	00000000 	nop
800020e4:	00000000 	nop
800020e8:	00000000 	nop
800020ec:	00000000 	nop
800020f0:	00000000 	nop
800020f4:	00000000 	nop
800020f8:	00000000 	nop
800020fc:	00000000 	nop
80002100:	00000000 	nop
80002104:	00000000 	nop
80002108:	00000000 	nop
8000210c:	00000000 	nop
80002110:	00000000 	nop
80002114:	00000000 	nop
80002118:	00000000 	nop
8000211c:	00000000 	nop
80002120:	00000000 	nop
80002124:	00000000 	nop
80002128:	00000000 	nop
8000212c:	00000000 	nop
80002130:	00000000 	nop
80002134:	00000000 	nop
80002138:	00000000 	nop
8000213c:	00000000 	nop
80002140:	00000000 	nop
80002144:	00000000 	nop
80002148:	00000000 	nop
8000214c:	00000000 	nop
80002150:	00000000 	nop
80002154:	00000000 	nop
80002158:	00000000 	nop
8000215c:	00000000 	nop
80002160:	00000000 	nop
80002164:	00000000 	nop
80002168:	00000000 	nop
8000216c:	00000000 	nop
80002170:	00000000 	nop
80002174:	00000000 	nop
80002178:	00000000 	nop
8000217c:	00000000 	nop
80002180:	00000000 	nop
80002184:	00000000 	nop
80002188:	00000000 	nop
8000218c:	00000000 	nop
80002190:	00000000 	nop
80002194:	00000000 	nop
80002198:	00000000 	nop
8000219c:	00000000 	nop
800021a0:	00000000 	nop
800021a4:	00000000 	nop
800021a8:	00000000 	nop
800021ac:	00000000 	nop
800021b0:	00000000 	nop
800021b4:	00000000 	nop
800021b8:	00000000 	nop
800021bc:	00000000 	nop
800021c0:	00000000 	nop
800021c4:	00000000 	nop
800021c8:	00000000 	nop
800021cc:	00000000 	nop
800021d0:	00000000 	nop
800021d4:	00000000 	nop
800021d8:	00000000 	nop
800021dc:	00000000 	nop
800021e0:	00000000 	nop
800021e4:	00000000 	nop
800021e8:	00000000 	nop
800021ec:	00000000 	nop
800021f0:	00000000 	nop
800021f4:	00000000 	nop
800021f8:	00000000 	nop
800021fc:	00000000 	nop
80002200:	00000000 	nop
80002204:	00000000 	nop
80002208:	00000000 	nop
8000220c:	00000000 	nop
80002210:	00000000 	nop
80002214:	00000000 	nop
80002218:	00000000 	nop
8000221c:	00000000 	nop
80002220:	00000000 	nop
80002224:	00000000 	nop
80002228:	00000000 	nop
8000222c:	00000000 	nop
80002230:	00000000 	nop
80002234:	00000000 	nop
80002238:	00000000 	nop
8000223c:	00000000 	nop
80002240:	00000000 	nop
80002244:	00000000 	nop
80002248:	00000000 	nop
8000224c:	00000000 	nop
80002250:	00000000 	nop
80002254:	00000000 	nop
80002258:	00000000 	nop
8000225c:	00000000 	nop
80002260:	00000000 	nop
80002264:	00000000 	nop
80002268:	00000000 	nop
8000226c:	00000000 	nop
80002270:	00000000 	nop
80002274:	00000000 	nop
80002278:	00000000 	nop
8000227c:	00000000 	nop
80002280:	00000000 	nop
80002284:	00000000 	nop
80002288:	00000000 	nop
8000228c:	00000000 	nop
80002290:	00000000 	nop
80002294:	00000000 	nop
80002298:	00000000 	nop
8000229c:	00000000 	nop
800022a0:	00000000 	nop
800022a4:	00000000 	nop
800022a8:	00000000 	nop
800022ac:	00000000 	nop
800022b0:	00000000 	nop
800022b4:	00000000 	nop
800022b8:	00000000 	nop
800022bc:	00000000 	nop
800022c0:	00000000 	nop
800022c4:	00000000 	nop
800022c8:	00000000 	nop
800022cc:	00000000 	nop
800022d0:	00000000 	nop
800022d4:	00000000 	nop
800022d8:	00000000 	nop
800022dc:	00000000 	nop
800022e0:	00000000 	nop
800022e4:	00000000 	nop
800022e8:	00000000 	nop
800022ec:	00000000 	nop
800022f0:	00000000 	nop
800022f4:	00000000 	nop
800022f8:	00000000 	nop
800022fc:	00000000 	nop
80002300:	00000000 	nop
80002304:	00000000 	nop
80002308:	00000000 	nop
8000230c:	00000000 	nop
80002310:	00000000 	nop
80002314:	00000000 	nop
80002318:	00000000 	nop
8000231c:	00000000 	nop
80002320:	00000000 	nop
80002324:	00000000 	nop
80002328:	00000000 	nop
8000232c:	00000000 	nop
80002330:	00000000 	nop
80002334:	00000000 	nop
80002338:	00000000 	nop
8000233c:	00000000 	nop
80002340:	00000000 	nop
80002344:	00000000 	nop
80002348:	00000000 	nop
8000234c:	00000000 	nop
80002350:	00000000 	nop
80002354:	00000000 	nop
80002358:	00000000 	nop
8000235c:	00000000 	nop
80002360:	00000000 	nop
80002364:	00000000 	nop
80002368:	00000000 	nop
8000236c:	00000000 	nop
80002370:	00000000 	nop
80002374:	00000000 	nop
80002378:	00000000 	nop
8000237c:	00000000 	nop
80002380:	00000000 	nop
80002384:	00000000 	nop
80002388:	00000000 	nop
8000238c:	00000000 	nop
80002390:	00000000 	nop
80002394:	00000000 	nop
80002398:	00000000 	nop
8000239c:	00000000 	nop
800023a0:	00000000 	nop
800023a4:	00000000 	nop
800023a8:	00000000 	nop
800023ac:	00000000 	nop
800023b0:	00000000 	nop
800023b4:	00000000 	nop
800023b8:	00000000 	nop
800023bc:	00000000 	nop
800023c0:	00000000 	nop
800023c4:	00000000 	nop
800023c8:	00000000 	nop
800023cc:	00000000 	nop

800023d0 <__start_ctx>:
800023d0:	00000000 	nop
800023d4:	00000000 	nop
800023d8:	00000000 	nop
800023dc:	00000000 	nop
800023e0:	00000000 	nop
800023e4:	00000000 	nop
800023e8:	00000000 	nop
800023ec:	00000000 	nop
800023f0:	00000000 	nop
800023f4:	00000000 	nop
800023f8:	00000000 	nop
800023fc:	00000000 	nop
80002400:	00000000 	nop
80002404:	00000000 	nop
80002408:	00000000 	nop
8000240c:	00000000 	nop
80002410:	00000000 	nop
80002414:	00000000 	nop

80002418 <__MIPS_UHI_BAD_POINTER>:
80002418:	3a494855 	xori	t1,s2,0x4855
8000241c:	44414220 	0x44414220
80002420:	494f5020 	0x494f5020
80002424:	5245544e 	beql	s2,a1,80017560 <__global+0xd130>
80002428:	00000000 	nop

Disassembly of section .sdata:

80002430 <__dso_handle>:
80002430:	00000000 	nop

80002434 <_global_impure_ptr>:
80002434:	80001fa8 	lb	zero,8104(zero)

80002438 <_impure_ptr>:
80002438:	80001fa8 	lb	zero,8104(zero)

Disassembly of section .bss:

8000243c <_bss_start>:
8000243c:	00000000 	nop

80002440 <dtor_idx.3436>:
80002440:	00000000 	nop

80002444 <object.3446>:
80002444:	00000000 	nop
80002448:	00000000 	nop
8000244c:	00000000 	nop
80002450:	00000000 	nop
80002454:	00000000 	nop
80002458:	00000000 	nop

Disassembly of section .startdata:

80002460 <__lstack-0x400>:
80002460:	00000000 	nop
80002464:	00000000 	nop
80002468:	00000000 	nop
8000246c:	00000000 	nop
80002470:	00000000 	nop
80002474:	00000000 	nop
80002478:	00000000 	nop
8000247c:	00000000 	nop
80002480:	00000000 	nop
80002484:	00000000 	nop
80002488:	00000000 	nop
8000248c:	00000000 	nop
80002490:	00000000 	nop
80002494:	00000000 	nop
80002498:	00000000 	nop
8000249c:	00000000 	nop
800024a0:	00000000 	nop
800024a4:	00000000 	nop
800024a8:	00000000 	nop
800024ac:	00000000 	nop
800024b0:	00000000 	nop
800024b4:	00000000 	nop
800024b8:	00000000 	nop
800024bc:	00000000 	nop
800024c0:	00000000 	nop
800024c4:	00000000 	nop
800024c8:	00000000 	nop
800024cc:	00000000 	nop
800024d0:	00000000 	nop
800024d4:	00000000 	nop
800024d8:	00000000 	nop
800024dc:	00000000 	nop
800024e0:	00000000 	nop
800024e4:	00000000 	nop
800024e8:	00000000 	nop
800024ec:	00000000 	nop
800024f0:	00000000 	nop
800024f4:	00000000 	nop
800024f8:	00000000 	nop
800024fc:	00000000 	nop
80002500:	00000000 	nop
80002504:	00000000 	nop
80002508:	00000000 	nop
8000250c:	00000000 	nop
80002510:	00000000 	nop
80002514:	00000000 	nop
80002518:	00000000 	nop
8000251c:	00000000 	nop
80002520:	00000000 	nop
80002524:	00000000 	nop
80002528:	00000000 	nop
8000252c:	00000000 	nop
80002530:	00000000 	nop
80002534:	00000000 	nop
80002538:	00000000 	nop
8000253c:	00000000 	nop
80002540:	00000000 	nop
80002544:	00000000 	nop
80002548:	00000000 	nop
8000254c:	00000000 	nop
80002550:	00000000 	nop
80002554:	00000000 	nop
80002558:	00000000 	nop
8000255c:	00000000 	nop
80002560:	00000000 	nop
80002564:	00000000 	nop
80002568:	00000000 	nop
8000256c:	00000000 	nop
80002570:	00000000 	nop
80002574:	00000000 	nop
80002578:	00000000 	nop
8000257c:	00000000 	nop
80002580:	00000000 	nop
80002584:	00000000 	nop
80002588:	00000000 	nop
8000258c:	00000000 	nop
80002590:	00000000 	nop
80002594:	00000000 	nop
80002598:	00000000 	nop
8000259c:	00000000 	nop
800025a0:	00000000 	nop
800025a4:	00000000 	nop
800025a8:	00000000 	nop
800025ac:	00000000 	nop
800025b0:	00000000 	nop
800025b4:	00000000 	nop
800025b8:	00000000 	nop
800025bc:	00000000 	nop
800025c0:	00000000 	nop
800025c4:	00000000 	nop
800025c8:	00000000 	nop
800025cc:	00000000 	nop
800025d0:	00000000 	nop
800025d4:	00000000 	nop
800025d8:	00000000 	nop
800025dc:	00000000 	nop
800025e0:	00000000 	nop
800025e4:	00000000 	nop
800025e8:	00000000 	nop
800025ec:	00000000 	nop
800025f0:	00000000 	nop
800025f4:	00000000 	nop
800025f8:	00000000 	nop
800025fc:	00000000 	nop
80002600:	00000000 	nop
80002604:	00000000 	nop
80002608:	00000000 	nop
8000260c:	00000000 	nop
80002610:	00000000 	nop
80002614:	00000000 	nop
80002618:	00000000 	nop
8000261c:	00000000 	nop
80002620:	00000000 	nop
80002624:	00000000 	nop
80002628:	00000000 	nop
8000262c:	00000000 	nop
80002630:	00000000 	nop
80002634:	00000000 	nop
80002638:	00000000 	nop
8000263c:	00000000 	nop
80002640:	00000000 	nop
80002644:	00000000 	nop
80002648:	00000000 	nop
8000264c:	00000000 	nop
80002650:	00000000 	nop
80002654:	00000000 	nop
80002658:	00000000 	nop
8000265c:	00000000 	nop
80002660:	00000000 	nop
80002664:	00000000 	nop
80002668:	00000000 	nop
8000266c:	00000000 	nop
80002670:	00000000 	nop
80002674:	00000000 	nop
80002678:	00000000 	nop
8000267c:	00000000 	nop
80002680:	00000000 	nop
80002684:	00000000 	nop
80002688:	00000000 	nop
8000268c:	00000000 	nop
80002690:	00000000 	nop
80002694:	00000000 	nop
80002698:	00000000 	nop
8000269c:	00000000 	nop
800026a0:	00000000 	nop
800026a4:	00000000 	nop
800026a8:	00000000 	nop
800026ac:	00000000 	nop
800026b0:	00000000 	nop
800026b4:	00000000 	nop
800026b8:	00000000 	nop
800026bc:	00000000 	nop
800026c0:	00000000 	nop
800026c4:	00000000 	nop
800026c8:	00000000 	nop
800026cc:	00000000 	nop
800026d0:	00000000 	nop
800026d4:	00000000 	nop
800026d8:	00000000 	nop
800026dc:	00000000 	nop
800026e0:	00000000 	nop
800026e4:	00000000 	nop
800026e8:	00000000 	nop
800026ec:	00000000 	nop
800026f0:	00000000 	nop
800026f4:	00000000 	nop
800026f8:	00000000 	nop
800026fc:	00000000 	nop
80002700:	00000000 	nop
80002704:	00000000 	nop
80002708:	00000000 	nop
8000270c:	00000000 	nop
80002710:	00000000 	nop
80002714:	00000000 	nop
80002718:	00000000 	nop
8000271c:	00000000 	nop
80002720:	00000000 	nop
80002724:	00000000 	nop
80002728:	00000000 	nop
8000272c:	00000000 	nop
80002730:	00000000 	nop
80002734:	00000000 	nop
80002738:	00000000 	nop
8000273c:	00000000 	nop
80002740:	00000000 	nop
80002744:	00000000 	nop
80002748:	00000000 	nop
8000274c:	00000000 	nop
80002750:	00000000 	nop
80002754:	00000000 	nop
80002758:	00000000 	nop
8000275c:	00000000 	nop
80002760:	00000000 	nop
80002764:	00000000 	nop
80002768:	00000000 	nop
8000276c:	00000000 	nop
80002770:	00000000 	nop
80002774:	00000000 	nop
80002778:	00000000 	nop
8000277c:	00000000 	nop
80002780:	00000000 	nop
80002784:	00000000 	nop
80002788:	00000000 	nop
8000278c:	00000000 	nop
80002790:	00000000 	nop
80002794:	00000000 	nop
80002798:	00000000 	nop
8000279c:	00000000 	nop
800027a0:	00000000 	nop
800027a4:	00000000 	nop
800027a8:	00000000 	nop
800027ac:	00000000 	nop
800027b0:	00000000 	nop
800027b4:	00000000 	nop
800027b8:	00000000 	nop
800027bc:	00000000 	nop
800027c0:	00000000 	nop
800027c4:	00000000 	nop
800027c8:	00000000 	nop
800027cc:	00000000 	nop
800027d0:	00000000 	nop
800027d4:	00000000 	nop
800027d8:	00000000 	nop
800027dc:	00000000 	nop
800027e0:	00000000 	nop
800027e4:	00000000 	nop
800027e8:	00000000 	nop
800027ec:	00000000 	nop
800027f0:	00000000 	nop
800027f4:	00000000 	nop
800027f8:	00000000 	nop
800027fc:	00000000 	nop
80002800:	00000000 	nop
80002804:	00000000 	nop
80002808:	00000000 	nop
8000280c:	00000000 	nop
80002810:	00000000 	nop
80002814:	00000000 	nop
80002818:	00000000 	nop
8000281c:	00000000 	nop
80002820:	00000000 	nop
80002824:	00000000 	nop
80002828:	00000000 	nop
8000282c:	00000000 	nop
80002830:	00000000 	nop
80002834:	00000000 	nop
80002838:	00000000 	nop
8000283c:	00000000 	nop
80002840:	00000000 	nop
80002844:	00000000 	nop
80002848:	00000000 	nop
8000284c:	00000000 	nop
80002850:	00000000 	nop
80002854:	00000000 	nop
80002858:	00000000 	nop
8000285c:	00000000 	nop

80002860 <__lstack>:
80002860:	00000000 	nop
80002864:	00000000 	nop
80002868:	00000000 	nop
8000286c:	00000000 	nop

Disassembly of section .debug_aranges:

00000000 <.debug_aranges>:
   0:	0000001c 	0x1c
   4:	00000002 	srl	zero,zero,0x0
   8:	00040000 	sll	zero,a0,0x0
   c:	00000000 	nop
  10:	80000320 	lb	zero,800(zero)
  14:	00000298 	0x298
  18:	00000000 	nop
  1c:	00000000 	nop
  20:	0000001c 	0x1c
  24:	00b00002 	0xb00002
  28:	00040000 	sll	zero,a0,0x0
  2c:	00000000 	nop
  30:	9fc00000 	0x9fc00000
  34:	0000049c 	0x49c
  38:	00000000 	nop
  3c:	00000000 	nop
  40:	0000001c 	0x1c
  44:	01190002 	0x1190002
  48:	00040000 	sll	zero,a0,0x0
  4c:	00000000 	nop
  50:	8000075c 	lb	zero,1884(zero)
  54:	000000fc 	0xfc
  58:	00000000 	nop
  5c:	00000000 	nop
  60:	0000001c 	0x1c
  64:	03600002 	0x3600002
  68:	00040000 	sll	zero,a0,0x0
  6c:	00000000 	nop
  70:	800008a0 	lb	zero,2208(zero)
  74:	00000028 	0x28
  78:	00000000 	nop
  7c:	00000000 	nop
  80:	0000001c 	0x1c
  84:	04660002 	0x4660002
  88:	00040000 	sll	zero,a0,0x0
  8c:	00000000 	nop
  90:	800008c8 	lb	zero,2248(zero)
  94:	0000003c 	0x3c
  98:	00000000 	nop
  9c:	00000000 	nop
  a0:	00000014 	0x14
  a4:	0d460002 	jal	5180008 <__memory_size+0x5160808>
  a8:	00040000 	sll	zero,a0,0x0
  ac:	00000000 	nop
  b0:	00000000 	nop
  b4:	00000000 	nop
  b8:	0000001c 	0x1c
  bc:	15d60002 	bne	t6,s6,c8 <__isr_vec_space+0xa8>
  c0:	00040000 	sll	zero,a0,0x0
  c4:	00000000 	nop
  c8:	80000904 	lb	zero,2308(zero)
  cc:	00000108 	0x108
  d0:	00000000 	nop
  d4:	00000000 	nop
  d8:	0000001c 	0x1c
  dc:	1f060002 	0x1f060002
  e0:	00040000 	sll	zero,a0,0x0
  e4:	00000000 	nop
  e8:	80000a0c 	lb	zero,2572(zero)
  ec:	00000180 	sll	zero,zero,0x6
  f0:	00000000 	nop
  f4:	00000000 	nop
  f8:	0000001c 	0x1c
  fc:	285b0002 	slti	k1,v0,2
 100:	00040000 	sll	zero,a0,0x0
 104:	00000000 	nop
 108:	80000b8c 	lb	zero,2956(zero)
 10c:	00000088 	0x88
 110:	00000000 	nop
 114:	00000000 	nop
 118:	0000001c 	0x1c
 11c:	29810002 	slti	at,t4,2
 120:	00040000 	sll	zero,a0,0x0
 124:	00000000 	nop
 128:	80000c14 	lb	zero,3092(zero)
 12c:	000000b8 	0xb8
 130:	00000000 	nop
 134:	00000000 	nop
 138:	0000001c 	0x1c
 13c:	2a380002 	slti	t8,s1,2
 140:	00040000 	sll	zero,a0,0x0
 144:	00000000 	nop
 148:	80000ccc 	lb	zero,3276(zero)
 14c:	00000048 	0x48
 150:	00000000 	nop
 154:	00000000 	nop
 158:	00000024 	and	zero,zero,zero
 15c:	2b470002 	slti	a3,k0,2
 160:	00040000 	sll	zero,a0,0x0
 164:	00000000 	nop
 168:	80000000 	lb	zero,0(zero)
 16c:	00000194 	0x194
 170:	800018b8 	lb	zero,6328(zero)
 174:	000001c8 	0x1c8
 178:	00000000 	nop
 17c:	00000000 	nop
 180:	0000001c 	0x1c
 184:	2c0c0002 	sltiu	t4,zero,2
 188:	00040000 	sll	zero,a0,0x0
 18c:	00000000 	nop
 190:	80000d14 	lb	zero,3348(zero)
 194:	000007a4 	0x7a4
 198:	00000000 	nop
 19c:	00000000 	nop
 1a0:	0000001c 	0x1c
 1a4:	37810002 	ori	at,gp,0x2
 1a8:	00040000 	sll	zero,a0,0x0
 1ac:	00000000 	nop
 1b0:	800014b8 	lb	zero,5304(zero)
 1b4:	000000b4 	teq	zero,zero,0x2
 1b8:	00000000 	nop
 1bc:	00000000 	nop
 1c0:	0000001c 	0x1c
 1c4:	384d0002 	xori	t5,v0,0x2
 1c8:	00040000 	sll	zero,a0,0x0
 1cc:	00000000 	nop
 1d0:	8000156c 	lb	zero,5484(zero)
 1d4:	0000027c 	0x27c
 1d8:	00000000 	nop
 1dc:	00000000 	nop
 1e0:	0000001c 	0x1c
 1e4:	39150002 	xori	s5,t0,0x2
 1e8:	00040000 	sll	zero,a0,0x0
 1ec:	00000000 	nop
 1f0:	80000200 	lb	zero,512(zero)
 1f4:	00000118 	0x118
 1f8:	00000000 	nop
 1fc:	00000000 	nop
 200:	00000014 	0x14
 204:	39dc0002 	xori	gp,t6,0x2
 208:	00040000 	sll	zero,a0,0x0
 20c:	00000000 	nop
 210:	00000000 	nop
 214:	00000000 	nop
 218:	0000001c 	0x1c
 21c:	3a4a0002 	xori	t2,s2,0x2
 220:	00040000 	sll	zero,a0,0x0
 224:	00000000 	nop
 228:	80001804 	lb	zero,6148(zero)
 22c:	00000050 	0x50
 230:	00000000 	nop
 234:	00000000 	nop
 238:	0000001c 	0x1c
 23c:	3bc80002 	xori	t0,s8,0x2
 240:	00040000 	sll	zero,a0,0x0
 244:	00000000 	nop
 248:	80001854 	lb	zero,6228(zero)
 24c:	00000014 	0x14
 250:	00000000 	nop
 254:	00000000 	nop
 258:	0000001c 	0x1c
 25c:	3e780002 	0x3e780002
 260:	00040000 	sll	zero,a0,0x0
 264:	00000000 	nop
 268:	80001868 	lb	zero,6248(zero)
 26c:	00000044 	0x44
 270:	00000000 	nop
 274:	00000000 	nop
 278:	0000001c 	0x1c
 27c:	412e0002 	0x412e0002
 280:	00040000 	sll	zero,a0,0x0
 284:	00000000 	nop
 288:	800018ac 	lb	zero,6316(zero)
 28c:	0000000c 	syscall
 290:	00000000 	nop
 294:	00000000 	nop

Disassembly of section .debug_info:

00000000 <.debug_info>:
       0:	000000ac 	0xac
       4:	00000002 	srl	zero,zero,0x0
       8:	01040000 	0x1040000
       c:	00000000 	nop
      10:	80000320 	lb	zero,800(zero)
      14:	800005b8 	lb	zero,1464(zero)
      18:	6573752f 	0x6573752f
      1c:	696d2f72 	0x696d2f72
      20:	77737370 	jalx	dcdcdc0 <__memory_size+0xdcbd5c0>
      24:	69672f74 	0x69672f74
      28:	656e2f74 	0x656e2f74
      2c:	62696c77 	0x62696c77
      30:	62696c2f 	0x62696c2f
      34:	736f6c67 	0x736f6c67
      38:	696d2f73 	0x696d2f73
      3c:	632f7370 	0x632f7370
      40:	2e307472 	sltiu	s0,s1,29810
      44:	752f0053 	jalx	4bc014c <__memory_size+0x4ba094c>
      48:	2f726573 	sltiu	s2,k1,25971
      4c:	7370696d 	s16sdi	xr5,k1,52,
      50:	2f747773 	sltiu	s4,k1,30579
      54:	6c697562 	0x6c697562
      58:	30322d64 	andi	s2,at,0x2d64
      5c:	302e3531 	andi	t6,at,0x3531
      60:	35302d36 	ori	s0,t1,0x2d36
      64:	6a626f2f 	0x6a626f2f
      68:	70696d2d 	s16sdi	xr4,v1,182,ptn1
      6c:	746d2d73 	jalx	1b4b5cc <__memory_size+0x1b2bdcc>
      70:	6c652d69 	0x6c652d69
      74:	656e2f66 	0x656e2f66
      78:	62696c77 	0x62696c77
      7c:	70696d2f 	0x70696d2f
      80:	746d2d73 	jalx	1b4b5cc <__memory_size+0x1b2bdcc>
      84:	6c652d69 	0x6c652d69
      88:	6c652f66 	0x6c652f66
      8c:	666f732f 	0x666f732f
      90:	62696c2f 	0x62696c2f
      94:	736f6c67 	0x736f6c67
      98:	696d2f73 	0x696d2f73
      9c:	47007370 	bz.b	$w0,1ce60 <__isr_vec_space+0x1ce40>
      a0:	4120554e 	0x4120554e
      a4:	2e322053 	sltiu	s2,s1,8275
      a8:	392e3432 	xori	t6,t1,0x3432
      ac:	80010030 	lb	at,48(zero)
      b0:	00000065 	0x65
      b4:	00140002 	srl	zero,s4,0x0
      b8:	01040000 	0x1040000
      bc:	000000de 	0xde
      c0:	9fc00000 	0x9fc00000
      c4:	9fc0049c 	0x9fc0049c
      c8:	746f6f62 	jalx	1bdbd88 <__memory_size+0x1bbc588>
      cc:	2f00532e 	sltiu	zero,t8,21294
      d0:	656d6f68 	0x656d6f68
      d4:	6177732f 	0x6177732f
      d8:	6b616c6c 	0x6b616c6c
      dc:	636f442f 	0x636f442f
      e0:	6e656d75 	0x6e656d75
      e4:	542f7374 	bnel	at,t7,1ceb8 <__isr_vec_space+0x1ce98>
      e8:	50472f55 	beql	v0,a3,be40 <__isr_vec_space+0xbe20>
      ec:	4c2f4145 	0x4c2f4145
      f0:	2f736261 	sltiu	s3,k1,25185
      f4:	3762614c 	ori	v0,k1,0x614c
      f8:	6f72502f 	0x6f72502f
      fc:	6d617267 	0x6d617267
     100:	4d442f73 	0x4d442f73
     104:	00315f41 	0x315f41
     108:	20554e47 	addi	s5,v0,20039
     10c:	32205341 	andi	zero,s1,0x5341
     110:	2e34322e 	sltiu	s4,s1,12846
     114:	01003039 	0x1003039
     118:	00024380 	sll	t0,v0,0xe
     11c:	28000400 	slti	zero,zero,1024
     120:	04000000 	bltz	zero,124 <__isr_vec_space+0x104>
     124:	00000001 	movf	zero,zero,$fcc0
     128:	01810100 	0x1810100
     12c:	01270000 	0x1270000
     130:	075c0000 	0x75c0000
     134:	00fc8000 	0xfc8000
     138:	02020000 	0x2020000
     13c:	04020000 	bltzl	zero,140 <__isr_vec_space+0x120>
     140:	0000fd07 	0xfd07
     144:	05040300 	0x5040300
     148:	00746e69 	0x746e69
     14c:	78050402 	shf.b	$w16,$w0,0x5
     150:	02000001 	movf	zero,s0,$fcc0
     154:	00850601 	0x850601
     158:	01020000 	0x1020000
     15c:	00008308 	0x8308
     160:	05020200 	bltzl	t0,964 <__isr_vec_space+0x944>
     164:	00000190 	0x190
     168:	9a070202 	lwr	a3,514(s0)
     16c:	02000000 	0x2000000
     170:	01730508 	0x1730508
     174:	08020000 	j	80000 <__memory_size+0x60800>
     178:	0000f807 	srav	ra,zero,zero
     17c:	07040200 	0x7040200
     180:	00000102 	srl	zero,zero,0x4
     184:	1e070402 	0x1e070402
     188:	04000001 	bltz	zero,190 <__isr_vec_space+0x170>
     18c:	08010204 	j	40810 <__memory_size+0x21010>
     190:	0000008c 	syscall	0x2
     194:	00009105 	0x9105
     198:	5c250100 	0x5c250100
     19c:	60800007 	0x60800007
     1a0:	01000000 	0x1000000
     1a4:	0000d89c 	0xd89c
     1a8:	756e0600 	jalx	5b81800 <__memory_size+0x5b62000>
     1ac:	2501006d 	addiu	at,t0,109
     1b0:	00000064 	0x64
     1b4:	ee075401 	swc3	$7,21505(s0)
     1b8:	01000000 	0x1000000
     1bc:	0000d826 	xor	k1,zero,zero
     1c0:	8080b400 	lb	zero,-19456(a0)
     1c4:	b2087bfc 	0xb2087bfc
     1c8:	01000000 	0x1000000
     1cc:	0000e327 	0xe327
     1d0:	70910200 	0x70910200
     1d4:	00007308 	0x7308
     1d8:	e3270100 	sc	a3,256(t9)
     1dc:	02000000 	0x2000000
     1e0:	ad087491 	sw	t0,29841(t0)
     1e4:	01000000 	0x1000000
     1e8:	0000e327 	0xe327
     1ec:	78910200 	andi.b	$w8,$w0,0x91
     1f0:	de040900 	ldc3	$4,2304(s0)
     1f4:	0a000000 	j	8000000 <__memory_size+0x7fe0800>
     1f8:	0000002c 	0x2c
     1fc:	0000640a 	0x640a
     200:	01600500 	0x1600500
     204:	30010000 	andi	at,zero,0x0
     208:	800007bc 	lb	zero,1980(zero)
     20c:	00000038 	0x38
     210:	01699c01 	0x1699c01
     214:	760b0000 	jalx	82c0000 <__memory_size+0x82a0800>
     218:	01006c61 	0x1006c61
     21c:	00006430 	tge	zero,zero,0x190
     220:	00000000 	nop
     224:	00c00700 	0xc00700
     228:	31010000 	andi	at,t0,0x0
     22c:	000000d8 	0xd8
     230:	fc808090 	sdc3	$0,-32624(a0)
     234:	00ca077b 	0xca077b
     238:	32010000 	andi	at,s0,0x0
     23c:	000000d8 	0xd8
     240:	fc808094 	sdc3	$0,-32620(a0)
     244:	00d3077b 	0xd3077b
     248:	33010000 	andi	at,t8,0x0
     24c:	000000d8 	0xd8
     250:	fc808098 	sdc3	$0,-32616(a0)
     254:	00dc077b 	0xdc077b
     258:	34010000 	li	at,0x0
     25c:	000000d8 	0xd8
     260:	fc80809c 	sdc3	$0,-32612(a0)
     264:	00e5077b 	0xe5077b
     268:	35010000 	ori	at,t0,0x0
     26c:	000000d8 	0xd8
     270:	fc8080a0 	sdc3	$0,-32608(a0)
     274:	00690c7b 	0x690c7b
     278:	00e33701 	0xe33701
     27c:	91020000 	lbu	v0,0(t0)
     280:	bb0d0078 	swr	t5,120(t8)
     284:	01000000 	0x1000000
     288:	00002c0d 	break	0x0,0xb0
     28c:	0007f400 	sll	s8,a3,0x10
     290:	00005080 	sll	t2,zero,0x2
     294:	049c0100 	0x49c0100
     298:	07000002 	bltz	t8,2a4 <__isr_vec_space+0x284>
     29c:	0000007b 	0x7b
     2a0:	00d80f01 	0xd80f01
     2a4:	80800000 	lb	zero,0(a0)
     2a8:	077bf9c0 	0x77bf9c0
     2ac:	0000010f 	sync_wmb
     2b0:	00d81001 	movf	v0,a2,$fcc6
     2b4:	80840000 	lb	a0,0(a0)
     2b8:	077bf9c0 	0x77bf9c0
     2bc:	0000006a 	0x6a
     2c0:	00d81101 	0xd81101
     2c4:	80880000 	lb	t0,0(a0)
     2c8:	077bf9c0 	0x77bf9c0
     2cc:	0000019a 	0x19a
     2d0:	00d81201 	0xd81201
     2d4:	808c0000 	lb	t4,0(a0)
     2d8:	0e7bf9c0 	jal	9efe700 <__memory_size+0x9edef00>
     2dc:	13010078 	beq	t8,at,4c0 <__isr_vec_space+0x4a0>
     2e0:	00000204 	0x204
     2e4:	04c4b400 	0x4c4b400
     2e8:	0100790e 	0x100790e
     2ec:	00020414 	0x20414
     2f0:	c4b46400 	lwc1	$f20,25600(a1)
     2f4:	00690f04 	0x690f04
     2f8:	002c1601 	0x2c1601
     2fc:	002d0000 	0x2d0000
     300:	1c100000 	0x1c100000
     304:	e8800008 	swc2	$0,8(a0)
     308:	11000000 	beqz	t0,30c <__isr_vec_space+0x2ec>
     30c:	80000824 	lb	zero,2084(zero)
     310:	0000007b 	0x7b
     314:	03540112 	0x3540112
     318:	0007d00a 	movz	k0,zero,a3
     31c:	2c040900 	sltiu	a0,zero,2304
     320:	13000000 	beqz	t8,324 <__isr_vec_space+0x304>
     324:	00000053 	mtlhx	zero
     328:	08444301 	j	1110c04 <__memory_size+0x10f1404>
     32c:	00148000 	sll	s0,s4,0x0
     330:	9c010000 	0x9c010000
     334:	78746306 	addvi.d	$w12,$w12,20
     338:	72430100 	0x72430100
     33c:	01000000 	0x1000000
     340:	01171454 	0x1171454
     344:	43010000 	c0	0x1010000
     348:	0000002c 	0x2c
     34c:	88075501 	lwl	a3,21761(zero)
     350:	01000001 	movf	zero,t0,$fcc0
     354:	0000d844 	0xd844
     358:	80808000 	lb	zero,-32768(a0)
     35c:	00007bfc 	0x7bfc
     360:	00000102 	srl	zero,zero,0x4
     364:	014f0004 	sllv	zero,t7,t2
     368:	01040000 	0x1040000
     36c:	000001e8 	0x1e8
     370:	0001b301 	0x1b301
     374:	0008a000 	sll	s4,t0,0x0
     378:	00002880 	sll	a1,zero,0x2
     37c:	00026d00 	sll	t5,v0,0x14
     380:	07040200 	0x7040200
     384:	000000fd 	0xfd
     388:	69050403 	0x69050403
     38c:	0200746e 	0x200746e
     390:	01780504 	0x1780504
     394:	01020000 	0x1020000
     398:	00008506 	0x8506
     39c:	08010200 	j	40800 <__memory_size+0x21000>
     3a0:	00000083 	sra	zero,zero,0x2
     3a4:	90050202 	lbu	a1,514(zero)
     3a8:	02000001 	movf	zero,s0,$fcc0
     3ac:	009a0702 	0x9a0702
     3b0:	08020000 	j	80000 <__memory_size+0x60800>
     3b4:	00017305 	0x17305
     3b8:	07080200 	tgei	t8,512
     3bc:	000000f8 	0xf8
     3c0:	02070402 	0x2070402
     3c4:	02000001 	movf	zero,s0,$fcc0
     3c8:	011e0704 	0x11e0704
     3cc:	04040000 	0x4040000
     3d0:	00760405 	0x760405
     3d4:	02060000 	0x2060000
     3d8:	008c0801 	movf	at,a0,$fcc3
     3dc:	a4070000 	sh	a3,0(zero)
     3e0:	04000001 	bltz	zero,3e8 <__isr_vec_space+0x3c8>
     3e4:	009d0502 	0x9d0502
     3e8:	b9080000 	swr	t0,0(t0)
     3ec:	00000002 	srl	zero,zero,0x0
     3f0:	0002a408 	0x2a408
     3f4:	b0080100 	0xb0080100
     3f8:	02000002 	0x2000002
     3fc:	02be0900 	0x2be0900
     400:	44030000 	mfc1	v1,$f0
     404:	00000028 	0x28
     408:	800008a0 	lb	zero,2208(zero)
     40c:	00000028 	0x28
     410:	00e59c01 	0xe59c01
     414:	660a0000 	0x660a0000
     418:	3d01006e 	0x3d01006e
     41c:	00000070 	tge	zero,zero,0x1
     420:	00000041 	0x41
     424:	0008bc0b 	0x8bc0b
     428:	0000e580 	sll	gp,zero,0x16
     42c:	57010c00 	bnel	t8,at,3430 <__isr_vec_space+0x3410>
     430:	010c3001 	movf	a2,t0,$fcc3
     434:	0c300156 	jal	c00558 <__memory_size+0xbe0d58>
     438:	f3035501 	0xf3035501
     43c:	010c5401 	0x10c5401
     440:	00300154 	0x300154
     444:	02900d00 	0x2900d00
     448:	0d020000 	jal	4080000 <__memory_size+0x4060800>
     44c:	00000028 	0x28
     450:	0000280e 	0x280e
     454:	00700e00 	0x700e00
     458:	6e0e0000 	0x6e0e0000
     45c:	0e000000 	jal	8000000 <__memory_size+0x7fe0800>
     460:	0000006e 	0x6e
     464:	08dc0000 	j	3700000 <__memory_size+0x36e0800>
     468:	00040000 	sll	zero,a0,0x0
     46c:	00000202 	srl	zero,zero,0x8
     470:	01e80104 	0x1e80104
     474:	bc010000 	cache	0x1,0(zero)
     478:	c8000003 	lwc2	$0,3(zero)
     47c:	3c800008 	0x3c800008
     480:	1a000000 	blez	s0,484 <__isr_vec_space+0x464>
     484:	02000003 	0x2000003
     488:	00fd0704 	0xfd0704
     48c:	04030000 	bgezl	zero,490 <__isr_vec_space+0x470>
     490:	746e6905 	jalx	1b9a414 <__memory_size+0x1b7ac14>
     494:	05040200 	0x5040200
     498:	00000178 	0x178
     49c:	85060102 	lh	a2,258(t0)
     4a0:	02000000 	0x2000000
     4a4:	00830801 	0x830801
     4a8:	02020000 	0x2020000
     4ac:	00019005 	lsa	s2,zero,at,0x1
     4b0:	07020200 	bltzl	t8,cb4 <__isr_vec_space+0xc94>
     4b4:	0000009a 	0x9a
     4b8:	73050802 	mul	at,t8,a1
     4bc:	02000001 	movf	zero,s0,$fcc0
     4c0:	00f80708 	0xf80708
     4c4:	de040000 	ldc3	$4,0(s0)
     4c8:	02000004 	sllv	zero,zero,s0
     4cc:	00002807 	srav	a1,zero,zero
     4d0:	04bc0400 	0x4bc0400
     4d4:	10030000 	beq	zero,v1,4d8 <__isr_vec_space+0x4b8>
     4d8:	0000002f 	0x2f
     4dc:	00059f04 	0x59f04
     4e0:	2f270300 	sltiu	a3,t9,768
     4e4:	05000000 	bltz	t0,4e8 <__isr_vec_space+0x4c8>
     4e8:	0000048b 	0x48b
     4ec:	8d016104 	lw	at,24836(t0)
     4f0:	02000000 	0x2000000
     4f4:	01020704 	0x1020704
     4f8:	04060000 	0x4060000
     4fc:	00b34a03 	0xb34a03
     500:	85070000 	lh	a3,0(t0)
     504:	03000004 	sllv	zero,zero,t8
     508:	0000814c 	syscall	0x205
     50c:	04370700 	0x4370700
     510:	4d030000 	lwxc1	$f0,v1(t0)
     514:	000000b3 	tltu	zero,zero,0x2
     518:	003d0800 	0x3d0800
     51c:	00c30000 	0xc30000
     520:	c3090000 	ll	t1,0(t8)
     524:	03000000 	0x3000000
     528:	07040200 	0x7040200
     52c:	0000011e 	0x11e
     530:	4703080a 	bz.b	$w3,255c <__isr_vec_space+0x253c>
     534:	000000eb 	0xeb
     538:	0005890b 	0x5890b
     53c:	28490300 	slti	t1,v0,768
     540:	00000000 	nop
     544:	0005910b 	0x5910b
     548:	944e0300 	lhu	t6,768(v0)
     54c:	04000000 	bltz	zero,550 <__isr_vec_space+0x530>
     550:	051c0400 	0x51c0400
     554:	4f030000 	lwxc1	$f0,v1(t8)
     558:	000000ca 	0xca
     55c:	0003fa04 	0x3fa04
     560:	60530300 	0x60530300
     564:	0c000000 	jal	0 <hardware_exit_hook>
     568:	05db0404 	0x5db0404
     56c:	16050000 	bne	s0,a1,570 <__isr_vec_space+0x550>
     570:	00000021 	move	zero,zero
     574:	00040b0d 	break	0x4,0x2c
     578:	2d051800 	sltiu	a1,t0,6144
     57c:	00000161 	0x161
     580:	00053d0b 	0x53d0b
     584:	612f0500 	0x612f0500
     588:	00000001 	movf	zero,zero,$fcc0
     58c:	006b5f0e 	0x6b5f0e
     590:	00283005 	lsa	a2,at,t0,0x1
     594:	0b040000 	j	c100000 <__memory_size+0xc0e0800>
     598:	00000574 	teq	zero,zero,0x15
     59c:	00283005 	lsa	a2,at,t0,0x1
     5a0:	0b080000 	j	c200000 <__memory_size+0xc1e0800>
     5a4:	000003f4 	teq	zero,zero,0xf
     5a8:	00283005 	lsa	a2,at,t0,0x1
     5ac:	0b0c0000 	j	c300000 <__memory_size+0xc2e0800>
     5b0:	00000622 	0x622
     5b4:	00283005 	lsa	a2,at,t0,0x1
     5b8:	0e100000 	jal	8400000 <__memory_size+0x83e0800>
     5bc:	0500785f 	bltz	t0,1e73c <__isr_vec_space+0x1e71c>
     5c0:	00016731 	tgeu	zero,at,0x19c
     5c4:	0f001400 	jal	c005000 <__memory_size+0xbfe5800>
     5c8:	00010e04 	0x10e04
     5cc:	01030800 	0x1030800
     5d0:	01770000 	0x1770000
     5d4:	c3090000 	ll	t1,0(t8)
     5d8:	00000000 	nop
     5dc:	04320d00 	bltzall	at,39e0 <__isr_vec_space+0x39c0>
     5e0:	05240000 	0x5240000
     5e4:	0001f035 	0x1f035
     5e8:	03320b00 	0x3320b00
     5ec:	37050000 	ori	a1,t8,0x0
     5f0:	00000028 	0x28
     5f4:	05b10b00 	bgezal	t5,31f8 <__isr_vec_space+0x31d8>
     5f8:	38050000 	xori	a1,zero,0x0
     5fc:	00000028 	0x28
     600:	03410b04 	0x3410b04
     604:	39050000 	xori	a1,t0,0x0
     608:	00000028 	0x28
     60c:	069b0b08 	0x69b0b08
     610:	3a050000 	xori	a1,s0,0x0
     614:	00000028 	0x28
     618:	04a80b0c 	tgei	a1,2828
     61c:	3b050000 	xori	a1,t8,0x0
     620:	00000028 	0x28
     624:	05a70b10 	aclr	0x0,-1264(t5)
     628:	3c050000 	lui	a1,0x0
     62c:	00000028 	0x28
     630:	06270b14 	aclr	0x0,-1260(s1)
     634:	3d050000 	0x3d050000
     638:	00000028 	0x28
     63c:	04fe0b18 	0x4fe0b18
     640:	3e050000 	0x3e050000
     644:	00000028 	0x28
     648:	06620b1c 	bltzl	s3,32bc <__isr_vec_space+0x329c>
     64c:	3f050000 	0x3f050000
     650:	00000028 	0x28
     654:	50100020 	beql	zero,s0,6d8 <__isr_vec_space+0x6b8>
     658:	08000003 	j	c <ABIFlags_ases>
     65c:	30480501 	andi	t0,v0,0x501
     660:	0b000002 	j	c000008 <__memory_size+0xbfe0808>
     664:	000002d1 	0x2d1
     668:	02304905 	0x2304905
     66c:	0b000000 	j	c000000 <__memory_size+0xbfe0800>
     670:	000002c5 	0x2c5
     674:	02304a05 	0x2304a05
     678:	11800000 	beqz	t4,67c <__isr_vec_space+0x65c>
     67c:	000005cd 	break	0x0,0x17
     680:	01034c05 	0x1034c05
     684:	01000000 	0x1000000
     688:	00037511 	0x37511
     68c:	034f0500 	0x34f0500
     690:	04000001 	bltz	zero,698 <__isr_vec_space+0x678>
     694:	01080001 	movf	zero,t0,$fcc2
     698:	40000001 	mfc0	zero,c0_mvpcontrol
     69c:	09000002 	j	4000008 <__memory_size+0x3fe0808>
     6a0:	000000c3 	sra	zero,zero,0x3
     6a4:	bd10001f 	cache	0x10,31(t0)
     6a8:	90000002 	lbu	zero,2(zero)
     6ac:	7e5b0501 	0x7e5b0501
     6b0:	0b000002 	j	c000008 <__memory_size+0xbfe0808>
     6b4:	0000053d 	0x53d
     6b8:	027e5c05 	0x27e5c05
     6bc:	0b000000 	j	c000000 <__memory_size+0xbfe0800>
     6c0:	00000555 	0x555
     6c4:	00285d05 	0x285d05
     6c8:	0b040000 	j	c100000 <__memory_size+0xc0e0800>
     6cc:	000003ef 	0x3ef
     6d0:	02845f05 	0x2845f05
     6d4:	0b080000 	j	c200000 <__memory_size+0xc1e0800>
     6d8:	00000350 	0x350
     6dc:	01f06005 	lsa	t4,t7,s0,0x1
     6e0:	00880000 	0x880000
     6e4:	0240040f 	0x240040f
     6e8:	94080000 	lhu	t0,0(zero)
     6ec:	94000002 	lhu	zero,2(zero)
     6f0:	09000002 	j	4000008 <__memory_size+0x3fe0808>
     6f4:	000000c3 	sra	zero,zero,0x3
     6f8:	040f001f 	0x40f001f
     6fc:	0000029a 	0x29a
     700:	05080d12 	tgei	t0,3346
     704:	05080000 	tgei	t0,0
     708:	0002c073 	tltu	zero,v0,0x301
     70c:	092e0b00 	j	4b82c00 <__memory_size+0x4b63400>
     710:	74050000 	jalx	140000 <__memory_size+0x120800>
     714:	000002c0 	sll	zero,zero,0xb
     718:	08fc0b00 	j	3f02c00 <__memory_size+0x3ee3400>
     71c:	75050000 	jalx	4140000 <__memory_size+0x4120800>
     720:	00000028 	0x28
     724:	040f0004 	0x40f0004
     728:	0000003d 	0x3d
     72c:	0005270d 	break	0x5,0x9c
     730:	b3056800 	0xb3056800
     734:	000003f0 	tge	zero,zero,0xf
     738:	00705f0e 	0x705f0e
     73c:	02c0b405 	0x2c0b405
     740:	0e000000 	jal	8000000 <__memory_size+0x7fe0800>
     744:	0500725f 	bltz	t0,1d0c4 <__isr_vec_space+0x1d0a4>
     748:	000028b5 	0x28b5
     74c:	5f0e0400 	0x5f0e0400
     750:	b6050077 	0xb6050077
     754:	00000028 	0x28
     758:	036e0b08 	0x36e0b08
     75c:	b7050000 	0xb7050000
     760:	00000044 	0x44
     764:	044e0b0c 	tnei	v0,2828
     768:	b8050000 	swr	a1,0(zero)
     76c:	00000044 	0x44
     770:	625f0e0e 	0x625f0e0e
     774:	b9050066 	swr	a1,102(t0)
     778:	0000029b 	0x29b
     77c:	030c0b10 	0x30c0b10
     780:	ba050000 	swr	a1,0(s0)
     784:	00000028 	0x28
     788:	035e0b18 	0x35e0b18
     78c:	c1050000 	ll	a1,0(t0)
     790:	00000101 	0x101
     794:	04220b1c 	bltzl	at,3408 <__isr_vec_space+0x33e8>
     798:	c3050000 	ll	a1,0(t8)
     79c:	00000553 	0x553
     7a0:	049a0b20 	0x49a0b20
     7a4:	c5050000 	lwc1	$f5,0(t0)
     7a8:	00000582 	srl	zero,zero,0x16
     7ac:	05990b24 	0x5990b24
     7b0:	c8050000 	lwc2	$5,0(zero)
     7b4:	000005a6 	0x5a6
     7b8:	067c0b28 	0x67c0b28
     7bc:	c9050000 	lwc2	$5,0(t0)
     7c0:	000005c0 	sll	zero,zero,0x17
     7c4:	755f0e2c 	jalx	57c38b0 <__memory_size+0x57a40b0>
     7c8:	cc050062 	pref	0x5,98(zero)
     7cc:	0000029b 	0x29b
     7d0:	755f0e30 	jalx	57c38c0 <__memory_size+0x57a40c0>
     7d4:	cd050070 	pref	0x5,112(t0)
     7d8:	000002c0 	sll	zero,zero,0xb
     7dc:	755f0e38 	jalx	57c38e0 <__memory_size+0x57a40e0>
     7e0:	ce050072 	pref	0x5,114(s0)
     7e4:	00000028 	0x28
     7e8:	033b0b3c 	0x33b0b3c
     7ec:	d1050000 	0xd1050000
     7f0:	000005c6 	0x5c6
     7f4:	06540b40 	0x6540b40
     7f8:	d2050000 	0xd2050000
     7fc:	000005d6 	0x5d6
     800:	6c5f0e43 	0x6c5f0e43
     804:	d5050062 	ldc1	$f5,98(t0)
     808:	0000029b 	0x29b
     80c:	03840b44 	0x3840b44
     810:	d8050000 	ldc2	$5,0(zero)
     814:	00000028 	0x28
     818:	03950b4c 	syscall	0xe542d
     81c:	d9050000 	ldc2	$5,0(t0)
     820:	0000006b 	0x6b
     824:	06ab0b50 	tltiu	s5,2896
     828:	dc050000 	ldc3	$5,0(zero)
     82c:	0000040e 	0x40e
     830:	077a0b54 	0x77a0b54
     834:	e0050000 	sc	a1,0(zero)
     838:	000000f6 	tne	zero,zero,0x3
     83c:	052f0b58 	0x52f0b58
     840:	e2050000 	sc	a1,0(s0)
     844:	000000eb 	0xeb
     848:	04920b5c 	bltzall	a0,35bc <__isr_vec_space+0x359c>
     84c:	e3050000 	sc	a1,0(t8)
     850:	00000028 	0x28
     854:	28130064 	slti	s3,zero,100
     858:	0e000000 	jal	8000000 <__memory_size+0x7fe0800>
     85c:	14000004 	bnez	zero,870 <__isr_vec_space+0x850>
     860:	0000040e 	0x40e
     864:	00010114 	0x10114
     868:	05461400 	0x5461400
     86c:	28140000 	slti	s4,zero,0
     870:	00000000 	nop
     874:	0414040f 	0x414040f
     878:	7c150000 	ext	s5,zero,0x0,0x1
     87c:	28000005 	slti	zero,zero,5
     880:	02390504 	0x2390504
     884:	00000546 	0x546
     888:	000aee16 	0xaee16
     88c:	023b0500 	0x23b0500
     890:	00000028 	0x28
     894:	037d1600 	0x37d1600
     898:	40050000 	mfc0	a1,c0_index
     89c:	00062d02 	srl	a1,a2,0x14
     8a0:	3e160400 	0x3e160400
     8a4:	05000004 	bltz	t0,8b8 <__isr_vec_space+0x898>
     8a8:	062d0240 	0x62d0240
     8ac:	16080000 	bne	s0,t0,8b0 <__isr_vec_space+0x890>
     8b0:	00000403 	sra	zero,zero,0x10
     8b4:	2d024005 	sltiu	v0,t0,16389
     8b8:	0c000006 	jal	18 <ABIFlags_flags2+0x4>
     8bc:	00055016 	0x55016
     8c0:	02420500 	0x2420500
     8c4:	00000028 	0x28
     8c8:	02e11610 	0x2e11610
     8cc:	43050000 	c0	0x1050000
     8d0:	00080f02 	srl	at,t0,0x1c
     8d4:	03161400 	0x3161400
     8d8:	05000006 	bltz	t0,8f4 <__isr_vec_space+0x8d4>
     8dc:	00280245 	0x280245
     8e0:	16300000 	bne	s1,s0,8e4 <__isr_vec_space+0x8c4>
     8e4:	0000055a 	0x55a
     8e8:	77024605 	jalx	c091814 <__memory_size+0xc072014>
     8ec:	34000005 	li	zero,0x5
     8f0:	0004b116 	0x4b116
     8f4:	02480500 	0x2480500
     8f8:	00000028 	0x28
     8fc:	056a1638 	tlti	t3,5688
     900:	4a050000 	c2	0x50000
     904:	00082a02 	srl	a1,t0,0x8
     908:	7d163c00 	ext	s6,t0,0x10,0x8
     90c:	05000004 	bltz	t0,920 <__isr_vec_space+0x900>
     910:	0161024d 	break	0x161,0x9
     914:	16400000 	bnez	s2,918 <__isr_vec_space+0x8f8>
     918:	00000428 	0x428
     91c:	28024e05 	slti	v0,zero,19973
     920:	44000000 	mfc1	zero,$f0
     924:	00069616 	0x69616
     928:	024f0500 	0x24f0500
     92c:	00000161 	0x161
     930:	04d41648 	0x4d41648
     934:	50050000 	beql	zero,a1,938 <__isr_vec_space+0x918>
     938:	00083002 	srl	a2,t0,0x0
     93c:	46164c00 	add.s	$f16,$f9,$f22
     940:	05000004 	bltz	t0,954 <__isr_vec_space+0x934>
     944:	00280253 	0x280253
     948:	16500000 	bne	s2,s0,94c <__isr_vec_space+0x92c>
     94c:	0000038d 	break	0x0,0xe
     950:	46025405 	c1	0x25405
     954:	54000005 	bnezl	zero,96c <__isr_vec_space+0x94c>
     958:	0004f016 	0x4f016
     95c:	02770500 	0x2770500
     960:	000007ed 	0x7ed
     964:	02bd1758 	0x2bd1758
     968:	7b050000 	xori.b	$w0,$w0,0x5
     96c:	00027e02 	srl	t7,v0,0x18
     970:	17014800 	bne	t8,at,12974 <__isr_vec_space+0x12954>
     974:	0000045b 	0x45b
     978:	40027c05 	0x40027c05
     97c:	4c000002 	mfc3	zero,$0,2
     980:	064a1701 	tlti	s2,5889
     984:	80050000 	lb	a1,0(zero)
     988:	00084102 	srl	t0,t0,0x4
     98c:	1702dc00 	bne	t8,v0,ffff7990 <__entry+0x403f7990>
     990:	00000366 	0x366
     994:	f2028505 	0xf2028505
     998:	e0000005 	sc	zero,5(zero)
     99c:	034b1702 	0x34b1702
     9a0:	86050000 	lh	a1,0(s0)
     9a4:	00084d02 	srl	t1,t0,0x14
     9a8:	0002ec00 	sll	sp,v0,0x10
     9ac:	054c040f 	teqi	t2,1039
     9b0:	01020000 	0x1020000
     9b4:	00008c08 	0x8c08
     9b8:	f0040f00 	0xf0040f00
     9bc:	13000003 	beqz	t8,9cc <__isr_vec_space+0x9ac>
     9c0:	00000028 	0x28
     9c4:	00000577 	0x577
     9c8:	00040e14 	0x40e14
     9cc:	01011400 	0x1011400
     9d0:	77140000 	jalx	c500000 <__memory_size+0xc4e0800>
     9d4:	14000005 	bnez	zero,9ec <__isr_vec_space+0x9cc>
     9d8:	00000028 	0x28
     9dc:	7d040f00 	ext	a0,t0,0x1c,0x2
     9e0:	18000005 	blez	zero,9f8 <__isr_vec_space+0x9d8>
     9e4:	0000054c 	syscall	0x15
     9e8:	0559040f 	0x559040f
     9ec:	76130000 	jalx	84c0000 <__memory_size+0x84a0800>
     9f0:	a6000000 	sh	zero,0(s0)
     9f4:	14000005 	bnez	zero,a0c <__isr_vec_space+0x9ec>
     9f8:	0000040e 	0x40e
     9fc:	00010114 	0x10114
     a00:	00761400 	0x761400
     a04:	28140000 	slti	s4,zero,0
     a08:	00000000 	nop
     a0c:	0588040f 	tgei	t4,1039
     a10:	28130000 	slti	s3,zero,0
     a14:	c0000000 	ll	zero,0(zero)
     a18:	14000005 	bnez	zero,a30 <__isr_vec_space+0xa10>
     a1c:	0000040e 	0x40e
     a20:	00010114 	0x10114
     a24:	040f0000 	0x40f0000
     a28:	000005ac 	0x5ac
     a2c:	00003d08 	0x3d08
     a30:	0005d600 	sll	k0,a1,0x18
     a34:	00c30900 	0xc30900
     a38:	00020000 	sll	zero,v0,0x0
     a3c:	00003d08 	0x3d08
     a40:	0005e600 	sll	gp,a1,0x18
     a44:	00c30900 	0xc30900
     a48:	00000000 	nop
     a4c:	00051505 	0x51505
     a50:	011d0500 	0x11d0500
     a54:	000002c6 	0x2c6
     a58:	00063119 	0x63119
     a5c:	21050c00 	addi	a1,t0,3072
     a60:	00062701 	0x62701
     a64:	053d1600 	0x53d1600
     a68:	23050000 	addi	a1,t8,0
     a6c:	00062701 	0x62701
     a70:	54160000 	bnel	zero,s6,a74 <__isr_vec_space+0xa54>
     a74:	05000004 	bltz	t0,a88 <__isr_vec_space+0xa68>
     a78:	00280124 	0x280124
     a7c:	16040000 	bne	s0,a0,a80 <__isr_vec_space+0xa60>
     a80:	0000050f 	sync	0x14
     a84:	2d012505 	sltiu	at,t0,9477
     a88:	08000006 	j	18 <ABIFlags_flags2+0x4>
     a8c:	f2040f00 	0xf2040f00
     a90:	0f000005 	jal	c000014 <__memory_size+0xbfe0814>
     a94:	0005e604 	0x5e604
     a98:	02d91900 	0x2d91900
     a9c:	050e0000 	tnei	t0,0
     aa0:	0668013d 	tgei	s3,317
     aa4:	83160000 	lb	s6,0(t8)
     aa8:	05000005 	bltz	t0,ac0 <__isr_vec_space+0xaa0>
     aac:	0668013e 	tgei	s3,318
     ab0:	16000000 	bnez	s0,ab4 <__isr_vec_space+0xa94>
     ab4:	000005ba 	0x5ba
     ab8:	68013f05 	0x68013f05
     abc:	06000006 	bltz	s0,ad8 <__isr_vec_space+0xab8>
     ac0:	0005d616 	0x5d616
     ac4:	01400500 	0x1400500
     ac8:	0000004b 	0x4b
     acc:	4b08000c 	c2	0x108000c
     ad0:	78000000 	andi.b	$w0,$w0,0x0
     ad4:	09000006 	j	4000018 <__memory_size+0x3fe0818>
     ad8:	000000c3 	sra	zero,zero,0x3
     adc:	d01a0002 	0xd01a0002
     ae0:	79025805 	0x79025805
     ae4:	16000007 	bnez	s0,b04 <__isr_vec_space+0xae4>
     ae8:	00000615 	0x615
     aec:	8d025a05 	lw	v0,23045(t0)
     af0:	00000000 	nop
     af4:	0005c016 	0x5c016
     af8:	025b0500 	0x25b0500
     afc:	00000546 	0x546
     b00:	04701604 	bltzal	v1,6314 <__isr_vec_space+0x62f4>
     b04:	5c050000 	0x5c050000
     b08:	00077902 	srl	t7,a3,0x4
     b0c:	6d160800 	0x6d160800
     b10:	05000006 	bltz	t0,b2c <__isr_vec_space+0xb0c>
     b14:	0177025d 	0x177025d
     b18:	16240000 	bne	s1,a0,b1c <__isr_vec_space+0xafc>
     b1c:	00000413 	0x413
     b20:	28025e05 	slti	v0,zero,24069
     b24:	48000000 	mfc2	zero,$0
     b28:	00053816 	0x53816
     b2c:	025f0500 	0x25f0500
     b30:	00000059 	0x59
     b34:	06831650 	bgezl	s4,6478 <__isr_vec_space+0x6458>
     b38:	60050000 	0x60050000
     b3c:	00063302 	srl	a2,a2,0xc
     b40:	43165800 	c0	0x1165800
     b44:	05000005 	bltz	t0,b5c <__isr_vec_space+0xb3c>
     b48:	00eb0261 	0xeb0261
     b4c:	16680000 	bne	s3,t0,b50 <__isr_vec_space+0xb30>
     b50:	00000688 	0x688
     b54:	eb026205 	swc2	$2,25093(t8)
     b58:	70000000 	madd	zero,zero
     b5c:	00032416 	0x32416
     b60:	02630500 	0x2630500
     b64:	000000eb 	0xeb
     b68:	06401678 	bltz	s2,654c <__isr_vec_space+0x652c>
     b6c:	64050000 	0x64050000
     b70:	00078902 	srl	s1,a3,0x4
     b74:	64168000 	0x64168000
     b78:	05000004 	bltz	t0,b8c <__isr_vec_space+0xb6c>
     b7c:	07990265 	0x7990265
     b80:	16880000 	bne	s4,t0,b84 <__isr_vec_space+0xb64>
     b84:	000005e3 	0x5e3
     b88:	28026605 	slti	v0,zero,26117
     b8c:	a0000000 	sb	zero,0(zero)
     b90:	0003ae16 	0x3ae16
     b94:	02670500 	0x2670500
     b98:	000000eb 	0xeb
     b9c:	031516a4 	0x31516a4
     ba0:	68050000 	0x68050000
     ba4:	0000eb02 	srl	sp,zero,0xc
     ba8:	9d16ac00 	0x9d16ac00
     bac:	05000003 	bltz	t0,bbc <__isr_vec_space+0xb9c>
     bb0:	00eb0269 	0xeb0269
     bb4:	16b40000 	bne	s5,s4,bb8 <__isr_vec_space+0xb98>
     bb8:	000002ec 	0x2ec
     bbc:	eb026a05 	swc2	$2,27141(t8)
     bc0:	bc000000 	cache	0x0,0(zero)
     bc4:	0002fb16 	0x2fb16
     bc8:	026b0500 	0x26b0500
     bcc:	000000eb 	0xeb
     bd0:	04f516c4 	0x4f516c4
     bd4:	6c050000 	0x6c050000
     bd8:	00002802 	srl	a1,zero,0x0
     bdc:	0800cc00 	j	33000 <__memory_size+0x13800>
     be0:	0000054c 	syscall	0x15
     be4:	00000789 	0x789
     be8:	0000c309 	0xc309
     bec:	08001900 	j	6400 <__isr_vec_space+0x63e0>
     bf0:	0000054c 	syscall	0x15
     bf4:	00000799 	0x799
     bf8:	0000c309 	0xc309
     bfc:	08000700 	j	1c00 <__isr_vec_space+0x1be0>
     c00:	0000054c 	syscall	0x15
     c04:	000007a9 	0x7a9
     c08:	0000c309 	0xc309
     c0c:	1a001700 	blez	s0,6810 <__isr_vec_space+0x67f0>
     c10:	027105f0 	tge	s3,s1,0x17
     c14:	000007cd 	break	0x0,0x1f
     c18:	0004a116 	0x4a116
     c1c:	02740500 	0x2740500
     c20:	000007cd 	break	0x0,0x1f
     c24:	06371600 	0x6371600
     c28:	75050000 	jalx	4140000 <__memory_size+0x4120800>
     c2c:	0007dd02 	srl	k1,a3,0x14
     c30:	08007800 	j	1e000 <__isr_vec_space+0x1dfe0>
     c34:	000002c0 	sll	zero,zero,0xb
     c38:	000007dd 	0x7dd
     c3c:	0000c309 	0xc309
     c40:	08001d00 	j	7400 <__isr_vec_space+0x73e0>
     c44:	0000008d 	break	0x0,0x2
     c48:	000007ed 	0x7ed
     c4c:	0000c309 	0xc309
     c50:	1b001d00 	blez	t8,8054 <__isr_vec_space+0x8034>
     c54:	025605f0 	tge	s2,s6,0x17
     c58:	0000080f 	0x80f
     c5c:	00057c1c 	0x57c1c
     c60:	026d0500 	0x26d0500
     c64:	00000678 	0x678
     c68:	00065a1c 	0x65a1c
     c6c:	02760500 	0x2760500
     c70:	000007a9 	0x7a9
     c74:	054c0800 	teqi	t2,2048
     c78:	081f0000 	j	7c0000 <__memory_size+0x7a0800>
     c7c:	c3090000 	ll	t1,0(t8)
     c80:	18000000 	blez	zero,c84 <__isr_vec_space+0xc64>
     c84:	082a1d00 	j	a87400 <__memory_size+0xa67c00>
     c88:	0e140000 	jal	8500000 <__memory_size+0x84e0800>
     c8c:	00000004 	sllv	zero,zero,zero
     c90:	081f040f 	j	7c103c <__memory_size+0x7a183c>
     c94:	040f0000 	0x40f0000
     c98:	00000161 	0x161
     c9c:	0008411d 	0x8411d
     ca0:	00281400 	0x281400
     ca4:	0f000000 	jal	c000000 <__memory_size+0xbfe0800>
     ca8:	00084704 	0x84704
     cac:	36040f00 	ori	a0,s0,0xf00
     cb0:	08000008 	j	20 <__isr_vec_space>
     cb4:	000005e6 	0x5e6
     cb8:	0000085d 	0x85d
     cbc:	0000c309 	0xc309
     cc0:	1e000200 	bgtz	s0,14c4 <__isr_vec_space+0x14a4>
     cc4:	00000850 	0x850
     cc8:	08c85406 	j	3215018 <__memory_size+0x31f5818>
     ccc:	003c8000 	0x3c8000
     cd0:	9c010000 	0x9c010000
     cd4:	000008ab 	0x8ab
     cd8:	0008491f 	0x8491f
     cdc:	283a0100 	slti	k0,at,256
     ce0:	6d000000 	0x6d000000
     ce4:	20000000 	addi	zero,zero,0
     ce8:	800008e0 	lb	zero,2272(zero)
     cec:	000008bc 	0x8bc
     cf0:	0000089a 	0x89a
     cf4:	01550121 	0x1550121
     cf8:	54012130 	bnel	zero,at,91bc <__isr_vec_space+0x919c>
     cfc:	00008002 	srl	s0,zero,0x0
     d00:	00090422 	0x90422
     d04:	0008d280 	sll	k0,t0,0xa
     d08:	54012100 	bnel	zero,at,910c <__isr_vec_space+0x90ec>
     d0c:	00008002 	srl	s0,zero,0x0
     d10:	05f02300 	bltzal	t7,9914 <__isr_vec_space+0x98f4>
     d14:	fb050000 	sdc2	$5,0(t8)
     d18:	0008b702 	srl	s6,t0,0x1c
     d1c:	040e1800 	tnei	zero,6144
     d20:	c3240000 	ll	a0,0(t9)
     d24:	07000004 	bltz	t8,d38 <__isr_vec_space+0xd18>
     d28:	0008d20c 	syscall	0x2348
     d2c:	00281400 	0x281400
     d30:	01140000 	0x1140000
     d34:	00000001 	movf	zero,zero,$fcc0
     d38:	00084f25 	0x84f25
     d3c:	14110800 	bne	zero,s1,2d40 <__isr_vec_space+0x2d20>
     d40:	00000028 	0x28
     d44:	088c0000 	j	2300000 <__memory_size+0x22e0800>
     d48:	00040000 	sll	zero,a0,0x0
     d4c:	000003e6 	0x3e6
     d50:	01e80104 	0x1e80104
     d54:	b1010000 	0xb1010000
     d58:	8b000006 	lwl	zero,6(t8)
     d5c:	02000004 	sllv	zero,zero,s0
     d60:	01780504 	0x1780504
     d64:	04020000 	bltzl	zero,d68 <__isr_vec_space+0xd48>
     d68:	0000fd07 	0xfd07
     d6c:	05040300 	0x5040300
     d70:	00746e69 	0x746e69
     d74:	85060102 	lh	a2,258(t0)
     d78:	02000000 	0x2000000
     d7c:	00830801 	0x830801
     d80:	02020000 	0x2020000
     d84:	00019005 	lsa	s2,zero,at,0x1
     d88:	07020200 	bltzl	t8,158c <__isr_vec_space+0x156c>
     d8c:	0000009a 	0x9a
     d90:	73050802 	mul	at,t8,a1
     d94:	02000001 	movf	zero,s0,$fcc0
     d98:	00f80708 	0xf80708
     d9c:	de040000 	ldc3	$4,0(s0)
     da0:	01000004 	sllv	zero,zero,t0
     da4:	00002707 	0x2707
     da8:	04bc0400 	0x4bc0400
     dac:	10020000 	beq	zero,v0,db0 <__isr_vec_space+0xd90>
     db0:	00000019 	multu	zero,zero
     db4:	00059f04 	0x59f04
     db8:	19270200 	0x19270200
     dbc:	05000000 	bltz	t0,dc0 <__isr_vec_space+0xda0>
     dc0:	0000048b 	0x48b
     dc4:	85016103 	lh	at,24835(t0)
     dc8:	02000000 	0x2000000
     dcc:	01020704 	0x1020704
     dd0:	04060000 	0x4060000
     dd4:	00ab4a02 	0xab4a02
     dd8:	85070000 	lh	a3,0(t0)
     ddc:	02000004 	sllv	zero,zero,s0
     de0:	0000794c 	syscall	0x1e5
     de4:	04370700 	0x4370700
     de8:	4d020000 	lwxc1	$f0,v0(t0)
     dec:	000000ab 	0xab
     df0:	00350800 	0x350800
     df4:	00bb0000 	0xbb0000
     df8:	bb090000 	swr	t1,0(t8)
     dfc:	03000000 	0x3000000
     e00:	07040200 	0x7040200
     e04:	0000011e 	0x11e
     e08:	4702080a 	bz.b	$w2,2e34 <__isr_vec_space+0x2e14>
     e0c:	000000e3 	0xe3
     e10:	0005890b 	0x5890b
     e14:	27490200 	addiu	t1,k0,512
     e18:	00000000 	nop
     e1c:	0005910b 	0x5910b
     e20:	8c4e0200 	lw	t6,512(v0)
     e24:	04000000 	bltz	zero,e28 <__isr_vec_space+0xe08>
     e28:	051c0400 	0x51c0400
     e2c:	4f020000 	lwxc1	$f0,v0(t8)
     e30:	000000c2 	srl	zero,zero,0x3
     e34:	0003fa04 	0x3fa04
     e38:	58530200 	0x58530200
     e3c:	0c000000 	jal	0 <hardware_exit_hook>
     e40:	05db0404 	0x5db0404
     e44:	16040000 	bne	s0,a0,e48 <__isr_vec_space+0xe28>
     e48:	00000020 	add	zero,zero,zero
     e4c:	00040b0d 	break	0x4,0x2c
     e50:	2d041800 	sltiu	a0,t0,6144
     e54:	00000159 	0x159
     e58:	00053d0b 	0x53d0b
     e5c:	592f0400 	0x592f0400
     e60:	00000001 	movf	zero,zero,$fcc0
     e64:	006b5f0e 	0x6b5f0e
     e68:	00273004 	sllv	a2,a3,at
     e6c:	0b040000 	j	c100000 <__memory_size+0xc0e0800>
     e70:	00000574 	teq	zero,zero,0x15
     e74:	00273004 	sllv	a2,a3,at
     e78:	0b080000 	j	c200000 <__memory_size+0xc1e0800>
     e7c:	000003f4 	teq	zero,zero,0xf
     e80:	00273004 	sllv	a2,a3,at
     e84:	0b0c0000 	j	c300000 <__memory_size+0xc2e0800>
     e88:	00000622 	0x622
     e8c:	00273004 	sllv	a2,a3,at
     e90:	0e100000 	jal	8400000 <__memory_size+0x83e0800>
     e94:	0400785f 	bltz	zero,1f014 <__isr_vec_space+0x1eff4>
     e98:	00015f31 	tgeu	zero,at,0x17c
     e9c:	0f001400 	jal	c005000 <__memory_size+0xbfe5800>
     ea0:	00010604 	0x10604
     ea4:	00fb0800 	0xfb0800
     ea8:	016f0000 	0x16f0000
     eac:	bb090000 	swr	t1,0(t8)
     eb0:	00000000 	nop
     eb4:	04320d00 	bltzall	at,42b8 <__isr_vec_space+0x4298>
     eb8:	04240000 	0x4240000
     ebc:	0001e835 	0x1e835
     ec0:	03320b00 	0x3320b00
     ec4:	37040000 	ori	a0,t8,0x0
     ec8:	00000027 	nor	zero,zero,zero
     ecc:	05b10b00 	bgezal	t5,3ad0 <__isr_vec_space+0x3ab0>
     ed0:	38040000 	xori	a0,zero,0x0
     ed4:	00000027 	nor	zero,zero,zero
     ed8:	03410b04 	0x3410b04
     edc:	39040000 	xori	a0,t0,0x0
     ee0:	00000027 	nor	zero,zero,zero
     ee4:	069b0b08 	0x69b0b08
     ee8:	3a040000 	xori	a0,s0,0x0
     eec:	00000027 	nor	zero,zero,zero
     ef0:	04a80b0c 	tgei	a1,2828
     ef4:	3b040000 	xori	a0,t8,0x0
     ef8:	00000027 	nor	zero,zero,zero
     efc:	05a70b10 	aclr	0x0,-1264(t5)
     f00:	3c040000 	lui	a0,0x0
     f04:	00000027 	nor	zero,zero,zero
     f08:	06270b14 	aclr	0x0,-1260(s1)
     f0c:	3d040000 	0x3d040000
     f10:	00000027 	nor	zero,zero,zero
     f14:	04fe0b18 	0x4fe0b18
     f18:	3e040000 	0x3e040000
     f1c:	00000027 	nor	zero,zero,zero
     f20:	06620b1c 	bltzl	s3,3b94 <__isr_vec_space+0x3b74>
     f24:	3f040000 	0x3f040000
     f28:	00000027 	nor	zero,zero,zero
     f2c:	50100020 	beql	zero,s0,fb0 <__isr_vec_space+0xf90>
     f30:	08000003 	j	c <ABIFlags_ases>
     f34:	28480401 	slti	t0,v0,1025
     f38:	0b000002 	j	c000008 <__memory_size+0xbfe0808>
     f3c:	000002d1 	0x2d1
     f40:	02284904 	0x2284904
     f44:	0b000000 	j	c000000 <__memory_size+0xbfe0800>
     f48:	000002c5 	0x2c5
     f4c:	02284a04 	0x2284a04
     f50:	11800000 	beqz	t4,f54 <__isr_vec_space+0xf34>
     f54:	000005cd 	break	0x0,0x17
     f58:	00fb4c04 	0xfb4c04
     f5c:	01000000 	0x1000000
     f60:	00037511 	0x37511
     f64:	fb4f0400 	sdc2	$15,1024(k0)
     f68:	04000000 	bltz	zero,f6c <__isr_vec_space+0xf4c>
     f6c:	f9080001 	sdc2	$8,1(t0)
     f70:	38000000 	xori	zero,zero,0x0
     f74:	09000002 	j	4000008 <__memory_size+0x3fe0808>
     f78:	000000bb 	0xbb
     f7c:	bd10001f 	cache	0x10,31(t0)
     f80:	90000002 	lbu	zero,2(zero)
     f84:	765b0401 	jalx	96c1004 <__memory_size+0x96a1804>
     f88:	0b000002 	j	c000008 <__memory_size+0xbfe0808>
     f8c:	0000053d 	0x53d
     f90:	02765c04 	0x2765c04
     f94:	0b000000 	j	c000000 <__memory_size+0xbfe0800>
     f98:	00000555 	0x555
     f9c:	00275d04 	0x275d04
     fa0:	0b040000 	j	c100000 <__memory_size+0xc0e0800>
     fa4:	000003ef 	0x3ef
     fa8:	027c5f04 	0x27c5f04
     fac:	0b080000 	j	c200000 <__memory_size+0xc1e0800>
     fb0:	00000350 	0x350
     fb4:	01e86004 	sllv	t4,t0,t7
     fb8:	00880000 	0x880000
     fbc:	0238040f 	0x238040f
     fc0:	8c080000 	lw	t0,0(zero)
     fc4:	8c000002 	lw	zero,2(zero)
     fc8:	09000002 	j	4000008 <__memory_size+0x3fe0808>
     fcc:	000000bb 	0xbb
     fd0:	040f001f 	0x40f001f
     fd4:	00000292 	0x292
     fd8:	05080d12 	tgei	t0,3346
     fdc:	04080000 	tgei	zero,0
     fe0:	0002b873 	tltu	zero,v0,0x2e1
     fe4:	092e0b00 	j	4b82c00 <__memory_size+0x4b63400>
     fe8:	74040000 	jalx	100000 <__memory_size+0xe0800>
     fec:	000002b8 	0x2b8
     ff0:	08fc0b00 	j	3f02c00 <__memory_size+0x3ee3400>
     ff4:	75040000 	jalx	4100000 <__memory_size+0x40e0800>
     ff8:	00000027 	nor	zero,zero,zero
     ffc:	040f0004 	0x40f0004
    1000:	00000035 	0x35
    1004:	0005270d 	break	0x5,0x9c
    1008:	b3046800 	0xb3046800
    100c:	000003e8 	0x3e8
    1010:	00705f0e 	0x705f0e
    1014:	02b8b404 	0x2b8b404
    1018:	0e000000 	jal	8000000 <__memory_size+0x7fe0800>
    101c:	0400725f 	bltz	zero,1d99c <__isr_vec_space+0x1d97c>
    1020:	000027b5 	0x27b5
    1024:	5f0e0400 	0x5f0e0400
    1028:	b6040077 	0xb6040077
    102c:	00000027 	nor	zero,zero,zero
    1030:	036e0b08 	0x36e0b08
    1034:	b7040000 	0xb7040000
    1038:	0000003c 	0x3c
    103c:	044e0b0c 	tnei	v0,2828
    1040:	b8040000 	swr	a0,0(zero)
    1044:	0000003c 	0x3c
    1048:	625f0e0e 	0x625f0e0e
    104c:	b9040066 	swr	a0,102(t0)
    1050:	00000293 	0x293
    1054:	030c0b10 	0x30c0b10
    1058:	ba040000 	swr	a0,0(s0)
    105c:	00000027 	nor	zero,zero,zero
    1060:	035e0b18 	0x35e0b18
    1064:	c1040000 	ll	a0,0(t0)
    1068:	000000f9 	0xf9
    106c:	04220b1c 	bltzl	at,3ce0 <__isr_vec_space+0x3cc0>
    1070:	c3040000 	ll	a0,0(t8)
    1074:	0000054b 	0x54b
    1078:	049a0b20 	0x49a0b20
    107c:	c5040000 	lwc1	$f4,0(t0)
    1080:	0000057a 	0x57a
    1084:	05990b24 	0x5990b24
    1088:	c8040000 	lwc2	$4,0(zero)
    108c:	0000059e 	0x59e
    1090:	067c0b28 	0x67c0b28
    1094:	c9040000 	lwc2	$4,0(t0)
    1098:	000005b8 	0x5b8
    109c:	755f0e2c 	jalx	57c38b0 <__memory_size+0x57a40b0>
    10a0:	cc040062 	pref	0x4,98(zero)
    10a4:	00000293 	0x293
    10a8:	755f0e30 	jalx	57c38c0 <__memory_size+0x57a40c0>
    10ac:	cd040070 	pref	0x4,112(t0)
    10b0:	000002b8 	0x2b8
    10b4:	755f0e38 	jalx	57c38e0 <__memory_size+0x57a40e0>
    10b8:	ce040072 	pref	0x4,114(s0)
    10bc:	00000027 	nor	zero,zero,zero
    10c0:	033b0b3c 	0x33b0b3c
    10c4:	d1040000 	0xd1040000
    10c8:	000005be 	0x5be
    10cc:	06540b40 	0x6540b40
    10d0:	d2040000 	0xd2040000
    10d4:	000005ce 	0x5ce
    10d8:	6c5f0e43 	0x6c5f0e43
    10dc:	d5040062 	ldc1	$f4,98(t0)
    10e0:	00000293 	0x293
    10e4:	03840b44 	0x3840b44
    10e8:	d8040000 	ldc2	$4,0(zero)
    10ec:	00000027 	nor	zero,zero,zero
    10f0:	03950b4c 	syscall	0xe542d
    10f4:	d9040000 	ldc2	$4,0(t0)
    10f8:	00000063 	0x63
    10fc:	06ab0b50 	tltiu	s5,2896
    1100:	dc040000 	ldc3	$4,0(zero)
    1104:	00000406 	0x406
    1108:	077a0b54 	0x77a0b54
    110c:	e0040000 	sc	a0,0(zero)
    1110:	000000ee 	0xee
    1114:	052f0b58 	0x52f0b58
    1118:	e2040000 	sc	a0,0(s0)
    111c:	000000e3 	0xe3
    1120:	04920b5c 	bltzall	a0,3e94 <__isr_vec_space+0x3e74>
    1124:	e3040000 	sc	a0,0(t8)
    1128:	00000027 	nor	zero,zero,zero
    112c:	27130064 	addiu	s3,t8,100
    1130:	06000000 	bltz	s0,1134 <__isr_vec_space+0x1114>
    1134:	14000004 	bnez	zero,1148 <__isr_vec_space+0x1128>
    1138:	00000406 	0x406
    113c:	0000f914 	0xf914
    1140:	053e1400 	0x53e1400
    1144:	27140000 	addiu	s4,t8,0
    1148:	00000000 	nop
    114c:	040c040f 	teqi	zero,1039
    1150:	7c150000 	ext	s5,zero,0x0,0x1
    1154:	28000005 	slti	zero,zero,5
    1158:	02390404 	0x2390404
    115c:	0000053e 	0x53e
    1160:	000aee16 	0xaee16
    1164:	023b0400 	0x23b0400
    1168:	00000027 	nor	zero,zero,zero
    116c:	037d1600 	0x37d1600
    1170:	40040000 	mfc0	a0,c0_index
    1174:	00062502 	srl	a0,a2,0x14
    1178:	3e160400 	0x3e160400
    117c:	04000004 	bltz	zero,1190 <__isr_vec_space+0x1170>
    1180:	06250240 	0x6250240
    1184:	16080000 	bne	s0,t0,1188 <__isr_vec_space+0x1168>
    1188:	00000403 	sra	zero,zero,0x10
    118c:	25024004 	addiu	v0,t0,16388
    1190:	0c000006 	jal	18 <ABIFlags_flags2+0x4>
    1194:	00055016 	0x55016
    1198:	02420400 	0x2420400
    119c:	00000027 	nor	zero,zero,zero
    11a0:	02e11610 	0x2e11610
    11a4:	43040000 	c0	0x1040000
    11a8:	00080702 	srl	zero,t0,0x1c
    11ac:	03161400 	0x3161400
    11b0:	04000006 	bltz	zero,11cc <__isr_vec_space+0x11ac>
    11b4:	00270245 	0x270245
    11b8:	16300000 	bne	s1,s0,11bc <__isr_vec_space+0x119c>
    11bc:	0000055a 	0x55a
    11c0:	6f024604 	0x6f024604
    11c4:	34000005 	li	zero,0x5
    11c8:	0004b116 	0x4b116
    11cc:	02480400 	0x2480400
    11d0:	00000027 	nor	zero,zero,zero
    11d4:	056a1638 	tlti	t3,5688
    11d8:	4a040000 	c2	0x40000
    11dc:	00082202 	srl	a0,t0,0x8
    11e0:	7d163c00 	ext	s6,t0,0x10,0x8
    11e4:	04000004 	bltz	zero,11f8 <__isr_vec_space+0x11d8>
    11e8:	0159024d 	break	0x159,0x9
    11ec:	16400000 	bnez	s2,11f0 <__isr_vec_space+0x11d0>
    11f0:	00000428 	0x428
    11f4:	27024e04 	addiu	v0,t8,19972
    11f8:	44000000 	mfc1	zero,$f0
    11fc:	00069616 	0x69616
    1200:	024f0400 	0x24f0400
    1204:	00000159 	0x159
    1208:	04d41648 	0x4d41648
    120c:	50040000 	beql	zero,a0,1210 <__isr_vec_space+0x11f0>
    1210:	00082802 	srl	a1,t0,0x0
    1214:	46164c00 	add.s	$f16,$f9,$f22
    1218:	04000004 	bltz	zero,122c <__isr_vec_space+0x120c>
    121c:	00270253 	0x270253
    1220:	16500000 	bne	s2,s0,1224 <__isr_vec_space+0x1204>
    1224:	0000038d 	break	0x0,0xe
    1228:	3e025404 	0x3e025404
    122c:	54000005 	bnezl	zero,1244 <__isr_vec_space+0x1224>
    1230:	0004f016 	0x4f016
    1234:	02770400 	0x2770400
    1238:	000007e5 	0x7e5
    123c:	02bd1758 	0x2bd1758
    1240:	7b040000 	xori.b	$w0,$w0,0x4
    1244:	00027602 	srl	t6,v0,0x18
    1248:	17014800 	bne	t8,at,1324c <__isr_vec_space+0x1322c>
    124c:	0000045b 	0x45b
    1250:	38027c04 	xori	v0,zero,0x7c04
    1254:	4c000002 	mfc3	zero,$0,2
    1258:	064a1701 	tlti	s2,5889
    125c:	80040000 	lb	a0,0(zero)
    1260:	00083902 	srl	a3,t0,0x4
    1264:	1702dc00 	bne	t8,v0,ffff8268 <__entry+0x403f8268>
    1268:	00000366 	0x366
    126c:	ea028504 	swc2	$2,-31484(s0)
    1270:	e0000005 	sc	zero,5(zero)
    1274:	034b1702 	0x34b1702
    1278:	86040000 	lh	a0,0(s0)
    127c:	00084502 	srl	t0,t0,0x14
    1280:	0002ec00 	sll	sp,v0,0x10
    1284:	0544040f 	0x544040f
    1288:	01020000 	0x1020000
    128c:	00008c08 	0x8c08
    1290:	e8040f00 	swc2	$4,3840(zero)
    1294:	13000003 	beqz	t8,12a4 <__isr_vec_space+0x1284>
    1298:	00000027 	nor	zero,zero,zero
    129c:	0000056f 	0x56f
    12a0:	00040614 	0x40614
    12a4:	00f91400 	0xf91400
    12a8:	6f140000 	0x6f140000
    12ac:	14000005 	bnez	zero,12c4 <__isr_vec_space+0x12a4>
    12b0:	00000027 	nor	zero,zero,zero
    12b4:	75040f00 	jalx	4103c00 <__memory_size+0x40e4400>
    12b8:	18000005 	blez	zero,12d0 <__isr_vec_space+0x12b0>
    12bc:	00000544 	0x544
    12c0:	0551040f 	bgezal	t2,2300 <__isr_vec_space+0x22e0>
    12c4:	6e130000 	0x6e130000
    12c8:	9e000000 	0x9e000000
    12cc:	14000005 	bnez	zero,12e4 <__isr_vec_space+0x12c4>
    12d0:	00000406 	0x406
    12d4:	0000f914 	0xf914
    12d8:	006e1400 	0x6e1400
    12dc:	27140000 	addiu	s4,t8,0
    12e0:	00000000 	nop
    12e4:	0580040f 	bltz	t4,2324 <__isr_vec_space+0x2304>
    12e8:	27130000 	addiu	s3,t8,0
    12ec:	b8000000 	swr	zero,0(zero)
    12f0:	14000005 	bnez	zero,1308 <__isr_vec_space+0x12e8>
    12f4:	00000406 	0x406
    12f8:	0000f914 	0xf914
    12fc:	040f0000 	0x40f0000
    1300:	000005a4 	0x5a4
    1304:	00003508 	0x3508
    1308:	0005ce00 	sll	t9,a1,0x18
    130c:	00bb0900 	0xbb0900
    1310:	00020000 	sll	zero,v0,0x0
    1314:	00003508 	0x3508
    1318:	0005de00 	sll	k1,a1,0x18
    131c:	00bb0900 	0xbb0900
    1320:	00000000 	nop
    1324:	00051505 	0x51505
    1328:	011d0400 	0x11d0400
    132c:	000002be 	0x2be
    1330:	00063119 	0x63119
    1334:	21040c00 	addi	a0,t0,3072
    1338:	00061f01 	0x61f01
    133c:	053d1600 	0x53d1600
    1340:	23040000 	addi	a0,t8,0
    1344:	00061f01 	0x61f01
    1348:	54160000 	bnel	zero,s6,134c <__isr_vec_space+0x132c>
    134c:	04000004 	bltz	zero,1360 <__isr_vec_space+0x1340>
    1350:	00270124 	0x270124
    1354:	16040000 	bne	s0,a0,1358 <__isr_vec_space+0x1338>
    1358:	0000050f 	sync	0x14
    135c:	25012504 	addiu	at,t0,9476
    1360:	08000006 	j	18 <ABIFlags_flags2+0x4>
    1364:	ea040f00 	swc2	$4,3840(s0)
    1368:	0f000005 	jal	c000014 <__memory_size+0xbfe0814>
    136c:	0005de04 	0x5de04
    1370:	02d91900 	0x2d91900
    1374:	040e0000 	tnei	zero,0
    1378:	0660013d 	bltz	s3,1870 <__isr_vec_space+0x1850>
    137c:	83160000 	lb	s6,0(t8)
    1380:	04000005 	bltz	zero,1398 <__isr_vec_space+0x1378>
    1384:	0660013e 	bltz	s3,1880 <__isr_vec_space+0x1860>
    1388:	16000000 	bnez	s0,138c <__isr_vec_space+0x136c>
    138c:	000005ba 	0x5ba
    1390:	60013f04 	0x60013f04
    1394:	06000006 	bltz	s0,13b0 <__isr_vec_space+0x1390>
    1398:	0005d616 	0x5d616
    139c:	01400400 	0x1400400
    13a0:	00000043 	sra	zero,zero,0x1
    13a4:	4308000c 	c0	0x108000c
    13a8:	70000000 	madd	zero,zero
    13ac:	09000006 	j	4000018 <__memory_size+0x3fe0818>
    13b0:	000000bb 	0xbb
    13b4:	d01a0002 	0xd01a0002
    13b8:	71025804 	0x71025804
    13bc:	16000007 	bnez	s0,13dc <__isr_vec_space+0x13bc>
    13c0:	00000615 	0x615
    13c4:	85025a04 	lh	v0,23044(t0)
    13c8:	00000000 	nop
    13cc:	0005c016 	0x5c016
    13d0:	025b0400 	0x25b0400
    13d4:	0000053e 	0x53e
    13d8:	04701604 	bltzal	v1,6bec <__isr_vec_space+0x6bcc>
    13dc:	5c040000 	0x5c040000
    13e0:	00077102 	srl	t6,a3,0x4
    13e4:	6d160800 	0x6d160800
    13e8:	04000006 	bltz	zero,1404 <__isr_vec_space+0x13e4>
    13ec:	016f025d 	0x16f025d
    13f0:	16240000 	bne	s1,a0,13f4 <__isr_vec_space+0x13d4>
    13f4:	00000413 	0x413
    13f8:	27025e04 	addiu	v0,t8,24068
    13fc:	48000000 	mfc2	zero,$0
    1400:	00053816 	0x53816
    1404:	025f0400 	0x25f0400
    1408:	00000051 	0x51
    140c:	06831650 	bgezl	s4,6d50 <__isr_vec_space+0x6d30>
    1410:	60040000 	0x60040000
    1414:	00062b02 	srl	a1,a2,0xc
    1418:	43165800 	c0	0x1165800
    141c:	04000005 	bltz	zero,1434 <__isr_vec_space+0x1414>
    1420:	00e30261 	0xe30261
    1424:	16680000 	bne	s3,t0,1428 <__isr_vec_space+0x1408>
    1428:	00000688 	0x688
    142c:	e3026204 	sc	v0,25092(t8)
    1430:	70000000 	madd	zero,zero
    1434:	00032416 	0x32416
    1438:	02630400 	0x2630400
    143c:	000000e3 	0xe3
    1440:	06401678 	bltz	s2,6e24 <__isr_vec_space+0x6e04>
    1444:	64040000 	0x64040000
    1448:	00078102 	srl	s0,a3,0x4
    144c:	64168000 	0x64168000
    1450:	04000004 	bltz	zero,1464 <__isr_vec_space+0x1444>
    1454:	07910265 	bgezal	gp,1dec <__isr_vec_space+0x1dcc>
    1458:	16880000 	bne	s4,t0,145c <__isr_vec_space+0x143c>
    145c:	000005e3 	0x5e3
    1460:	27026604 	addiu	v0,t8,26116
    1464:	a0000000 	sb	zero,0(zero)
    1468:	0003ae16 	0x3ae16
    146c:	02670400 	0x2670400
    1470:	000000e3 	0xe3
    1474:	031516a4 	0x31516a4
    1478:	68040000 	0x68040000
    147c:	0000e302 	srl	gp,zero,0xc
    1480:	9d16ac00 	0x9d16ac00
    1484:	04000003 	bltz	zero,1494 <__isr_vec_space+0x1474>
    1488:	00e30269 	0xe30269
    148c:	16b40000 	bne	s5,s4,1490 <__isr_vec_space+0x1470>
    1490:	000002ec 	0x2ec
    1494:	e3026a04 	sc	v0,27140(t8)
    1498:	bc000000 	cache	0x0,0(zero)
    149c:	0002fb16 	0x2fb16
    14a0:	026b0400 	0x26b0400
    14a4:	000000e3 	0xe3
    14a8:	04f516c4 	0x4f516c4
    14ac:	6c040000 	0x6c040000
    14b0:	00002702 	srl	a0,zero,0x1c
    14b4:	0800cc00 	j	33000 <__memory_size+0x13800>
    14b8:	00000544 	0x544
    14bc:	00000781 	0x781
    14c0:	0000bb09 	0xbb09
    14c4:	08001900 	j	6400 <__isr_vec_space+0x63e0>
    14c8:	00000544 	0x544
    14cc:	00000791 	0x791
    14d0:	0000bb09 	0xbb09
    14d4:	08000700 	j	1c00 <__isr_vec_space+0x1be0>
    14d8:	00000544 	0x544
    14dc:	000007a1 	0x7a1
    14e0:	0000bb09 	0xbb09
    14e4:	1a001700 	blez	s0,70e8 <__isr_vec_space+0x70c8>
    14e8:	027104f0 	tge	s3,s1,0x13
    14ec:	000007c5 	0x7c5
    14f0:	0004a116 	0x4a116
    14f4:	02740400 	0x2740400
    14f8:	000007c5 	0x7c5
    14fc:	06371600 	0x6371600
    1500:	75040000 	jalx	4100000 <__memory_size+0x40e0800>
    1504:	0007d502 	srl	k0,a3,0x14
    1508:	08007800 	j	1e000 <__isr_vec_space+0x1dfe0>
    150c:	000002b8 	0x2b8
    1510:	000007d5 	0x7d5
    1514:	0000bb09 	0xbb09
    1518:	08001d00 	j	7400 <__isr_vec_space+0x73e0>
    151c:	00000085 	lsa	zero,zero,zero,0x3
    1520:	000007e5 	0x7e5
    1524:	0000bb09 	0xbb09
    1528:	1b001d00 	blez	t8,892c <__isr_vec_space+0x890c>
    152c:	025604f0 	tge	s2,s6,0x13
    1530:	00000807 	srav	at,zero,zero
    1534:	00057c1c 	0x57c1c
    1538:	026d0400 	0x26d0400
    153c:	00000670 	tge	zero,zero,0x19
    1540:	00065a1c 	0x65a1c
    1544:	02760400 	0x2760400
    1548:	000007a1 	0x7a1
    154c:	05440800 	0x5440800
    1550:	08170000 	j	5c0000 <__memory_size+0x5a0800>
    1554:	bb090000 	swr	t1,0(t8)
    1558:	18000000 	blez	zero,155c <__isr_vec_space+0x153c>
    155c:	08221d00 	j	887400 <__memory_size+0x867c00>
    1560:	06140000 	0x6140000
    1564:	00000004 	sllv	zero,zero,zero
    1568:	0817040f 	j	5c103c <__memory_size+0x5a183c>
    156c:	040f0000 	0x40f0000
    1570:	00000159 	0x159
    1574:	0008391d 	0x8391d
    1578:	00271400 	0x271400
    157c:	0f000000 	jal	c000000 <__memory_size+0xbfe0800>
    1580:	00083f04 	0x83f04
    1584:	2e040f00 	sltiu	a0,s0,3840
    1588:	08000008 	j	20 <__isr_vec_space>
    158c:	000005de 	0x5de
    1590:	00000855 	0x855
    1594:	0000bb09 	0xbb09
    1598:	1e000200 	bgtz	s0,1d9c <__isr_vec_space+0x1d7c>
    159c:	000006a5 	0x6a5
    15a0:	040c1705 	teqi	zero,5893
    15a4:	03050000 	0x3050000
    15a8:	80001fa8 	lb	zero,8104(zero)
    15ac:	0005f71f 	0x5f71f
    15b0:	02fa0400 	0x2fa0400
    15b4:	00000406 	0x406
    15b8:	24380305 	addiu	t8,at,773
    15bc:	f01f8000 	0xf01f8000
    15c0:	04000005 	bltz	zero,15d8 <__isr_vec_space+0x15b8>
    15c4:	088a02fb 	j	2280bec <__memory_size+0x22613ec>
    15c8:	03050000 	0x3050000
    15cc:	80002434 	lb	zero,9268(zero)
    15d0:	00040618 	0x40618
    15d4:	092c0000 	j	4b00000 <__memory_size+0x4ae0800>
    15d8:	00040000 	sll	zero,a0,0x0
    15dc:	00000564 	0x564
    15e0:	01e80104 	0x1e80104
    15e4:	ec010000 	swc3	$1,0(zero)
    15e8:	04000006 	bltz	zero,1604 <__isr_vec_space+0x15e4>
    15ec:	08800009 	j	2000024 <__memory_size+0x1fe0824>
    15f0:	94000001 	lhu	zero,1(zero)
    15f4:	02000005 	lsa	zero,s0,zero,0x1
    15f8:	01780504 	0x1780504
    15fc:	e5030000 	swc1	$f3,0(t0)
    1600:	02000006 	srlv	zero,zero,s0
    1604:	000033d4 	0x33d4
    1608:	07040200 	0x7040200
    160c:	000000fd 	0xfd
    1610:	69050404 	0x69050404
    1614:	0200746e 	0x200746e
    1618:	00850601 	0x850601
    161c:	01020000 	0x1020000
    1620:	00008308 	0x8308
    1624:	05020200 	bltzl	t0,1e28 <__isr_vec_space+0x1e08>
    1628:	00000190 	0x190
    162c:	9a070202 	lwr	a3,514(s0)
    1630:	02000000 	0x2000000
    1634:	01730508 	0x1730508
    1638:	08020000 	j	80000 <__memory_size+0x60800>
    163c:	0000f807 	srav	ra,zero,zero
    1640:	04de0300 	0x4de0300
    1644:	07030000 	bgezl	t8,1648 <__isr_vec_space+0x1628>
    1648:	0000003a 	0x3a
    164c:	0004bc03 	sra	s7,a0,0x10
    1650:	21100400 	addi	s0,t0,1024
    1654:	03000000 	0x3000000
    1658:	0000059f 	0x59f
    165c:	00212704 	0x212704
    1660:	8b050000 	lwl	a1,0(t8)
    1664:	02000004 	sllv	zero,zero,s0
    1668:	00980161 	0x980161
    166c:	04020000 	bltzl	zero,1670 <__isr_vec_space+0x1650>
    1670:	00010207 	0x10207
    1674:	04040600 	0x4040600
    1678:	0000be4a 	0xbe4a
    167c:	04850700 	0x4850700
    1680:	4c040000 	lwxc1	$f0,a0(zero)
    1684:	0000008c 	syscall	0x2
    1688:	00043707 	0x43707
    168c:	be4d0400 	cache	0xd,1024(s2)
    1690:	00000000 	nop
    1694:	00004808 	0x4808
    1698:	0000ce00 	sll	t9,zero,0x18
    169c:	00ce0900 	0xce0900
    16a0:	00030000 	sll	zero,v1,0x0
    16a4:	1e070402 	0x1e070402
    16a8:	0a000001 	j	8000004 <__memory_size+0x7fe0804>
    16ac:	f6470408 	sdc1	$f7,1032(s2)
    16b0:	0b000000 	j	c000000 <__memory_size+0xbfe0800>
    16b4:	00000589 	0x589
    16b8:	003a4904 	0x3a4904
    16bc:	0b000000 	j	c000000 <__memory_size+0xbfe0800>
    16c0:	00000591 	0x591
    16c4:	009f4e04 	0x9f4e04
    16c8:	00040000 	sll	zero,a0,0x0
    16cc:	00051c03 	sra	v1,a1,0x10
    16d0:	d54f0400 	ldc1	$f15,1024(t2)
    16d4:	03000000 	0x3000000
    16d8:	000003fa 	0x3fa
    16dc:	006b5304 	0x6b5304
    16e0:	040c0000 	teqi	zero,0
    16e4:	0005db03 	sra	k1,a1,0xc
    16e8:	33160500 	andi	s6,t8,0x500
    16ec:	0d000000 	jal	4000000 <__memory_size+0x3fe0800>
    16f0:	0000040b 	0x40b
    16f4:	6c2d0518 	0x6c2d0518
    16f8:	0b000001 	j	c000004 <__memory_size+0xbfe0804>
    16fc:	0000053d 	0x53d
    1700:	016c2f05 	0x16c2f05
    1704:	0e000000 	jal	8000000 <__memory_size+0x7fe0800>
    1708:	05006b5f 	bltz	t0,1c488 <__isr_vec_space+0x1c468>
    170c:	00003a30 	tge	zero,zero,0xe8
    1710:	740b0400 	jalx	2c1000 <__memory_size+0x2a1800>
    1714:	05000005 	bltz	t0,172c <__isr_vec_space+0x170c>
    1718:	00003a30 	tge	zero,zero,0xe8
    171c:	f40b0800 	sdc1	$f11,2048(zero)
    1720:	05000003 	bltz	t0,1730 <__isr_vec_space+0x1710>
    1724:	00003a30 	tge	zero,zero,0xe8
    1728:	220b0c00 	addi	t3,s0,3072
    172c:	05000006 	bltz	t0,1748 <__isr_vec_space+0x1728>
    1730:	00003a30 	tge	zero,zero,0xe8
    1734:	5f0e1000 	0x5f0e1000
    1738:	31050078 	andi	a1,t0,0x78
    173c:	00000172 	tlt	zero,zero,0x5
    1740:	040f0014 	0x40f0014
    1744:	00000119 	0x119
    1748:	00010e08 	0x10e08
    174c:	00018200 	sll	s0,at,0x8
    1750:	00ce0900 	0xce0900
    1754:	00000000 	nop
    1758:	0004320d 	break	0x4,0xc8
    175c:	35052400 	ori	a1,t0,0x2400
    1760:	000001fb 	0x1fb
    1764:	0003320b 	0x3320b
    1768:	3a370500 	xori	s7,s1,0x500
    176c:	00000000 	nop
    1770:	0005b10b 	0x5b10b
    1774:	3a380500 	xori	t8,s1,0x500
    1778:	04000000 	bltz	zero,177c <__isr_vec_space+0x175c>
    177c:	0003410b 	0x3410b
    1780:	3a390500 	xori	t9,s1,0x500
    1784:	08000000 	j	0 <hardware_exit_hook>
    1788:	00069b0b 	0x69b0b
    178c:	3a3a0500 	xori	k0,s1,0x500
    1790:	0c000000 	jal	0 <hardware_exit_hook>
    1794:	0004a80b 	movn	s5,zero,a0
    1798:	3a3b0500 	xori	k1,s1,0x500
    179c:	10000000 	b	17a0 <__isr_vec_space+0x1780>
    17a0:	0005a70b 	0x5a70b
    17a4:	3a3c0500 	xori	gp,s1,0x500
    17a8:	14000000 	bnez	zero,17ac <__isr_vec_space+0x178c>
    17ac:	0006270b 	0x6270b
    17b0:	3a3d0500 	xori	sp,s1,0x500
    17b4:	18000000 	blez	zero,17b8 <__isr_vec_space+0x1798>
    17b8:	0004fe0b 	0x4fe0b
    17bc:	3a3e0500 	xori	s8,s1,0x500
    17c0:	1c000000 	bgtz	zero,17c4 <__isr_vec_space+0x17a4>
    17c4:	0006620b 	0x6620b
    17c8:	3a3f0500 	xori	ra,s1,0x500
    17cc:	20000000 	addi	zero,zero,0
    17d0:	03501000 	0x3501000
    17d4:	01080000 	0x1080000
    17d8:	023b4805 	lsa	t1,s1,k1,0x1
    17dc:	d10b0000 	0xd10b0000
    17e0:	05000002 	bltz	t0,17ec <__isr_vec_space+0x17cc>
    17e4:	00023b49 	0x23b49
    17e8:	c50b0000 	lwc1	$f11,0(t0)
    17ec:	05000002 	bltz	t0,17f8 <__isr_vec_space+0x17d8>
    17f0:	00023b4a 	0x23b4a
    17f4:	cd118000 	pref	0x11,-32768(t0)
    17f8:	05000005 	bltz	t0,1810 <__isr_vec_space+0x17f0>
    17fc:	00010e4c 	syscall	0x439
    1800:	11010000 	beq	t0,at,1804 <__isr_vec_space+0x17e4>
    1804:	00000375 	0x375
    1808:	010e4f05 	0x10e4f05
    180c:	01040000 	0x1040000
    1810:	010c0800 	0x10c0800
    1814:	024b0000 	0x24b0000
    1818:	ce090000 	pref	0x9,0(s0)
    181c:	1f000000 	bgtz	t8,1820 <__isr_vec_space+0x1800>
    1820:	02bd1000 	0x2bd1000
    1824:	01900000 	0x1900000
    1828:	02895b05 	0x2895b05
    182c:	3d0b0000 	0x3d0b0000
    1830:	05000005 	bltz	t0,1848 <__isr_vec_space+0x1828>
    1834:	0002895c 	0x2895c
    1838:	550b0000 	bnel	t0,t3,183c <__isr_vec_space+0x181c>
    183c:	05000005 	bltz	t0,1854 <__isr_vec_space+0x1834>
    1840:	00003a5d 	0x3a5d
    1844:	ef0b0400 	swc3	$11,1024(t8)
    1848:	05000003 	bltz	t0,1858 <__isr_vec_space+0x1838>
    184c:	00028f5f 	0x28f5f
    1850:	500b0800 	beql	zero,t3,3854 <__isr_vec_space+0x3834>
    1854:	05000003 	bltz	t0,1864 <__isr_vec_space+0x1844>
    1858:	0001fb60 	0x1fb60
    185c:	0f008800 	jal	c022000 <__memory_size+0xc002800>
    1860:	00024b04 	0x24b04
    1864:	029f0800 	0x29f0800
    1868:	029f0000 	0x29f0000
    186c:	ce090000 	pref	0x9,0(s0)
    1870:	1f000000 	bgtz	t8,1874 <__isr_vec_space+0x1854>
    1874:	a5040f00 	sh	a0,3840(t0)
    1878:	12000002 	beqz	s0,1884 <__isr_vec_space+0x1864>
    187c:	0005080d 	break	0x5,0x20
    1880:	73050800 	madd	$ac1,t8,a1
    1884:	000002cb 	0x2cb
    1888:	00092e0b 	0x92e0b
    188c:	cb740500 	lwc2	$20,1280(k1)
    1890:	00000002 	srl	zero,zero,0x0
    1894:	0008fc0b 	0x8fc0b
    1898:	3a750500 	xori	s5,s3,0x500
    189c:	04000000 	bltz	zero,18a0 <__isr_vec_space+0x1880>
    18a0:	48040f00 	0x48040f00
    18a4:	0d000000 	jal	4000000 <__memory_size+0x3fe0800>
    18a8:	00000527 	0x527
    18ac:	fbb30568 	sdc2	$19,1384(sp)
    18b0:	0e000003 	jal	800000c <__memory_size+0x7fe080c>
    18b4:	0500705f 	bltz	t0,1da34 <__isr_vec_space+0x1da14>
    18b8:	0002cbb4 	teq	zero,v0,0x32e
    18bc:	5f0e0000 	0x5f0e0000
    18c0:	b5050072 	0xb5050072
    18c4:	0000003a 	0x3a
    18c8:	775f0e04 	jalx	d7c3810 <__memory_size+0xd7a4010>
    18cc:	3ab60500 	xori	s6,s5,0x500
    18d0:	08000000 	j	0 <hardware_exit_hook>
    18d4:	00036e0b 	0x36e0b
    18d8:	4fb70500 	lwxc1	$f20,s7(sp)
    18dc:	0c000000 	jal	0 <hardware_exit_hook>
    18e0:	00044e0b 	0x44e0b
    18e4:	4fb80500 	lwxc1	$f20,t8(sp)
    18e8:	0e000000 	jal	8000000 <__memory_size+0x7fe0800>
    18ec:	66625f0e 	0x66625f0e
    18f0:	a6b90500 	sh	t9,1280(s5)
    18f4:	10000002 	b	1900 <__isr_vec_space+0x18e0>
    18f8:	00030c0b 	0x30c0b
    18fc:	3aba0500 	xori	k0,s5,0x500
    1900:	18000000 	blez	zero,1904 <__isr_vec_space+0x18e4>
    1904:	00035e0b 	0x35e0b
    1908:	0cc10500 	jal	3041400 <__memory_size+0x3021c00>
    190c:	1c000001 	bgtz	zero,1914 <__isr_vec_space+0x18f4>
    1910:	0004220b 	0x4220b
    1914:	5ec30500 	0x5ec30500
    1918:	20000005 	addi	zero,zero,5
    191c:	00049a0b 	0x49a0b
    1920:	8dc50500 	lw	a1,1280(t6)
    1924:	24000005 	li	zero,5
    1928:	0005990b 	0x5990b
    192c:	b1c80500 	0xb1c80500
    1930:	28000005 	slti	zero,zero,5
    1934:	00067c0b 	0x67c0b
    1938:	cbc90500 	lwc2	$9,1280(s8)
    193c:	2c000005 	sltiu	zero,zero,5
    1940:	62755f0e 	0x62755f0e
    1944:	a6cc0500 	sh	t4,1280(s6)
    1948:	30000002 	andi	zero,zero,0x2
    194c:	70755f0e 	q16add	xr12,xr7,xr5,xr13,AA,LW
    1950:	cbcd0500 	lwc2	$13,1280(s8)
    1954:	38000002 	xori	zero,zero,0x2
    1958:	72755f0e 	q16add	xr12,xr7,xr5,xr13,SA,LW
    195c:	3ace0500 	xori	t6,s6,0x500
    1960:	3c000000 	lui	zero,0x0
    1964:	00033b0b 	0x33b0b
    1968:	d1d10500 	0xd1d10500
    196c:	40000005 	mfc0	zero,$0,5
    1970:	0006540b 	0x6540b
    1974:	e1d20500 	sc	s2,1280(t6)
    1978:	43000005 	c0	0x1000005
    197c:	626c5f0e 	0x626c5f0e
    1980:	a6d50500 	sh	s5,1280(s6)
    1984:	44000002 	mfc1	zero,$f0
    1988:	0003840b 	0x3840b
    198c:	3ad80500 	xori	t8,s6,0x500
    1990:	4c000000 	lwxc1	$f0,zero(zero)
    1994:	0003950b 	0x3950b
    1998:	76d90500 	jalx	b641400 <__memory_size+0xb621c00>
    199c:	50000000 	beqzl	zero,19a0 <__isr_vec_space+0x1980>
    19a0:	0006ab0b 	0x6ab0b
    19a4:	19dc0500 	0x19dc0500
    19a8:	54000004 	bnezl	zero,19bc <__isr_vec_space+0x199c>
    19ac:	00077a0b 	0x77a0b
    19b0:	01e00500 	0x1e00500
    19b4:	58000001 	blezl	zero,19bc <__isr_vec_space+0x199c>
    19b8:	00052f0b 	0x52f0b
    19bc:	f6e20500 	sdc1	$f2,1280(s7)
    19c0:	5c000000 	bgtzl	zero,19c4 <__isr_vec_space+0x19a4>
    19c4:	0004920b 	0x4920b
    19c8:	3ae30500 	xori	v1,s7,0x500
    19cc:	64000000 	0x64000000
    19d0:	003a1300 	0x3a1300
    19d4:	04190000 	0x4190000
    19d8:	19140000 	0x19140000
    19dc:	14000004 	bnez	zero,19f0 <__isr_vec_space+0x19d0>
    19e0:	0000010c 	syscall	0x4
    19e4:	00055114 	0x55114
    19e8:	003a1400 	0x3a1400
    19ec:	0f000000 	jal	c000000 <__memory_size+0xbfe0800>
    19f0:	00041f04 	0x41f04
    19f4:	057c1500 	0x57c1500
    19f8:	04280000 	tgei	at,0
    19fc:	51023905 	beql	t0,v0,fe14 <__isr_vec_space+0xfdf4>
    1a00:	16000005 	bnez	s0,1a18 <__isr_vec_space+0x19f8>
    1a04:	00000aee 	0xaee
    1a08:	3a023b05 	xori	v0,s0,0x3b05
    1a0c:	00000000 	nop
    1a10:	00037d16 	0x37d16
    1a14:	02400500 	0x2400500
    1a18:	00000638 	0x638
    1a1c:	043e1604 	0x43e1604
    1a20:	40050000 	mfc0	a1,c0_index
    1a24:	00063802 	srl	a3,a2,0x0
    1a28:	03160800 	0x3160800
    1a2c:	05000004 	bltz	t0,1a40 <__isr_vec_space+0x1a20>
    1a30:	06380240 	0x6380240
    1a34:	160c0000 	bne	s0,t4,1a38 <__isr_vec_space+0x1a18>
    1a38:	00000550 	0x550
    1a3c:	3a024205 	xori	v0,s0,0x4205
    1a40:	10000000 	b	1a44 <__isr_vec_space+0x1a24>
    1a44:	0002e116 	0x2e116
    1a48:	02430500 	0x2430500
    1a4c:	0000081a 	0x81a
    1a50:	06031614 	bgezl	s0,72a4 <__isr_vec_space+0x7284>
    1a54:	45050000 	bc1t	$fcc1,1a58 <__isr_vec_space+0x1a38>
    1a58:	00003a02 	srl	a3,zero,0x8
    1a5c:	5a163000 	0x5a163000
    1a60:	05000005 	bltz	t0,1a78 <__isr_vec_space+0x1a58>
    1a64:	05820246 	bltzl	t4,2380 <__isr_vec_space+0x2360>
    1a68:	16340000 	bne	s1,s4,1a6c <__isr_vec_space+0x1a4c>
    1a6c:	000004b1 	tgeu	zero,zero,0x12
    1a70:	3a024805 	xori	v0,s0,0x4805
    1a74:	38000000 	xori	zero,zero,0x0
    1a78:	00056a16 	0x56a16
    1a7c:	024a0500 	0x24a0500
    1a80:	00000835 	0x835
    1a84:	047d163c 	0x47d163c
    1a88:	4d050000 	lwxc1	$f0,a1(t0)
    1a8c:	00016c02 	srl	t5,at,0x10
    1a90:	28164000 	slti	s6,zero,16384
    1a94:	05000004 	bltz	t0,1aa8 <__isr_vec_space+0x1a88>
    1a98:	003a024e 	0x3a024e
    1a9c:	16440000 	bne	s2,a0,1aa0 <__isr_vec_space+0x1a80>
    1aa0:	00000696 	0x696
    1aa4:	6c024f05 	0x6c024f05
    1aa8:	48000001 	mfc2	zero,$0,1
    1aac:	0004d416 	0x4d416
    1ab0:	02500500 	0x2500500
    1ab4:	0000083b 	0x83b
    1ab8:	0446164c 	0x446164c
    1abc:	53050000 	beql	t8,a1,1ac0 <__isr_vec_space+0x1aa0>
    1ac0:	00003a02 	srl	a3,zero,0x8
    1ac4:	8d165000 	lw	s6,20480(t0)
    1ac8:	05000003 	bltz	t0,1ad8 <__isr_vec_space+0x1ab8>
    1acc:	05510254 	bgezal	t2,2420 <__isr_vec_space+0x2400>
    1ad0:	16540000 	bne	s2,s4,1ad4 <__isr_vec_space+0x1ab4>
    1ad4:	000004f0 	tge	zero,zero,0x13
    1ad8:	f8027705 	sdc2	$2,30469(zero)
    1adc:	58000007 	blezl	zero,1afc <__isr_vec_space+0x1adc>
    1ae0:	0002bd17 	0x2bd17
    1ae4:	027b0500 	0x27b0500
    1ae8:	00000289 	0x289
    1aec:	5b170148 	0x5b170148
    1af0:	05000004 	bltz	t0,1b04 <__isr_vec_space+0x1ae4>
    1af4:	024b027c 	0x24b027c
    1af8:	014c0000 	0x14c0000
    1afc:	00064a17 	0x64a17
    1b00:	02800500 	0x2800500
    1b04:	0000084c 	syscall	0x21
    1b08:	661702dc 	0x661702dc
    1b0c:	05000003 	bltz	t0,1b1c <__isr_vec_space+0x1afc>
    1b10:	05fd0285 	0x5fd0285
    1b14:	02e00000 	0x2e00000
    1b18:	00034b17 	0x34b17
    1b1c:	02860500 	0x2860500
    1b20:	00000858 	0x858
    1b24:	0f0002ec 	jal	c000bb0 <__memory_size+0xbfe13b0>
    1b28:	00055704 	0x55704
    1b2c:	08010200 	j	40800 <__memory_size+0x21000>
    1b30:	0000008c 	syscall	0x2
    1b34:	03fb040f 	0x3fb040f
    1b38:	3a130000 	xori	s3,s0,0x0
    1b3c:	82000000 	lb	zero,0(s0)
    1b40:	14000005 	bnez	zero,1b58 <__isr_vec_space+0x1b38>
    1b44:	00000419 	0x419
    1b48:	00010c14 	0x10c14
    1b4c:	05821400 	bltzl	t4,6b50 <__isr_vec_space+0x6b30>
    1b50:	3a140000 	xori	s4,s0,0x0
    1b54:	00000000 	nop
    1b58:	0588040f 	tgei	t4,1039
    1b5c:	57180000 	bnel	t8,t8,1b60 <__isr_vec_space+0x1b40>
    1b60:	0f000005 	jal	c000014 <__memory_size+0xbfe0814>
    1b64:	00056404 	0x56404
    1b68:	00811300 	0x811300
    1b6c:	05b10000 	bgezal	t5,1b70 <__isr_vec_space+0x1b50>
    1b70:	19140000 	0x19140000
    1b74:	14000004 	bnez	zero,1b88 <__isr_vec_space+0x1b68>
    1b78:	0000010c 	syscall	0x4
    1b7c:	00008114 	0x8114
    1b80:	003a1400 	0x3a1400
    1b84:	0f000000 	jal	c000000 <__memory_size+0xbfe0800>
    1b88:	00059304 	0x59304
    1b8c:	003a1300 	0x3a1300
    1b90:	05cb0000 	tltiu	t6,0
    1b94:	19140000 	0x19140000
    1b98:	14000004 	bnez	zero,1bac <__isr_vec_space+0x1b8c>
    1b9c:	0000010c 	syscall	0x4
    1ba0:	b7040f00 	0xb7040f00
    1ba4:	08000005 	j	14 <ABIFlags_flags2>
    1ba8:	00000048 	0x48
    1bac:	000005e1 	0x5e1
    1bb0:	0000ce09 	0xce09
    1bb4:	08000200 	j	800 <__isr_vec_space+0x7e0>
    1bb8:	00000048 	0x48
    1bbc:	000005f1 	tgeu	zero,zero,0x17
    1bc0:	0000ce09 	0xce09
    1bc4:	05000000 	bltz	t0,1bc8 <__isr_vec_space+0x1ba8>
    1bc8:	00000515 	0x515
    1bcc:	d1011d05 	0xd1011d05
    1bd0:	19000002 	blez	t0,1bdc <__isr_vec_space+0x1bbc>
    1bd4:	00000631 	tgeu	zero,zero,0x18
    1bd8:	0121050c 	syscall	0x48414
    1bdc:	00000632 	tlt	zero,zero,0x18
    1be0:	00053d16 	0x53d16
    1be4:	01230500 	0x1230500
    1be8:	00000632 	tlt	zero,zero,0x18
    1bec:	04541600 	0x4541600
    1bf0:	24050000 	li	a1,0
    1bf4:	00003a01 	0x3a01
    1bf8:	0f160400 	jal	c581000 <__memory_size+0xc561800>
    1bfc:	05000005 	bltz	t0,1c14 <__isr_vec_space+0x1bf4>
    1c00:	06380125 	0x6380125
    1c04:	00080000 	sll	zero,t0,0x0
    1c08:	05fd040f 	0x5fd040f
    1c0c:	040f0000 	0x40f0000
    1c10:	000005f1 	tgeu	zero,zero,0x17
    1c14:	0002d919 	0x2d919
    1c18:	3d050e00 	0x3d050e00
    1c1c:	00067301 	0x67301
    1c20:	05831600 	bgezl	t4,7424 <__isr_vec_space+0x7404>
    1c24:	3e050000 	0x3e050000
    1c28:	00067301 	0x67301
    1c2c:	ba160000 	swr	s6,0(s0)
    1c30:	05000005 	bltz	t0,1c48 <__isr_vec_space+0x1c28>
    1c34:	0673013f 	bgezall	s3,2134 <__isr_vec_space+0x2114>
    1c38:	16060000 	bne	s0,a2,1c3c <__isr_vec_space+0x1c1c>
    1c3c:	000005d6 	0x5d6
    1c40:	56014005 	bnel	s0,at,11c58 <__isr_vec_space+0x11c38>
    1c44:	0c000000 	jal	0 <hardware_exit_hook>
    1c48:	00560800 	0x560800
    1c4c:	06830000 	bgezl	s4,1c50 <__isr_vec_space+0x1c30>
    1c50:	ce090000 	pref	0x9,0(s0)
    1c54:	02000000 	0x2000000
    1c58:	05d01a00 	bltzal	t6,845c <__isr_vec_space+0x843c>
    1c5c:	07840258 	0x7840258
    1c60:	15160000 	bne	t0,s6,1c64 <__isr_vec_space+0x1c44>
    1c64:	05000006 	bltz	t0,1c80 <__isr_vec_space+0x1c60>
    1c68:	0098025a 	0x98025a
    1c6c:	16000000 	bnez	s0,1c70 <__isr_vec_space+0x1c50>
    1c70:	000005c0 	sll	zero,zero,0x17
    1c74:	51025b05 	beql	t0,v0,1888c <__isr_vec_space+0x1886c>
    1c78:	04000005 	bltz	zero,1c90 <__isr_vec_space+0x1c70>
    1c7c:	00047016 	0x47016
    1c80:	025c0500 	0x25c0500
    1c84:	00000784 	0x784
    1c88:	066d1608 	0x66d1608
    1c8c:	5d050000 	0x5d050000
    1c90:	00018202 	srl	s0,at,0x8
    1c94:	13162400 	beq	t8,s6,ac98 <__isr_vec_space+0xac78>
    1c98:	05000004 	bltz	t0,1cac <__isr_vec_space+0x1c8c>
    1c9c:	003a025e 	0x3a025e
    1ca0:	16480000 	bne	s2,t0,1ca4 <__isr_vec_space+0x1c84>
    1ca4:	00000538 	0x538
    1ca8:	64025f05 	0x64025f05
    1cac:	50000000 	beqzl	zero,1cb0 <__isr_vec_space+0x1c90>
    1cb0:	00068316 	0x68316
    1cb4:	02600500 	0x2600500
    1cb8:	0000063e 	0x63e
    1cbc:	05431658 	bgezl	t2,7620 <__isr_vec_space+0x7600>
    1cc0:	61050000 	0x61050000
    1cc4:	0000f602 	srl	s8,zero,0x18
    1cc8:	88166800 	lwl	s6,26624(zero)
    1ccc:	05000006 	bltz	t0,1ce8 <__isr_vec_space+0x1cc8>
    1cd0:	00f60262 	0xf60262
    1cd4:	16700000 	bne	s3,s0,1cd8 <__isr_vec_space+0x1cb8>
    1cd8:	00000324 	0x324
    1cdc:	f6026305 	sdc1	$f2,25349(s0)
    1ce0:	78000000 	andi.b	$w0,$w0,0x0
    1ce4:	00064016 	0x64016
    1ce8:	02640500 	0x2640500
    1cec:	00000794 	0x794
    1cf0:	04641680 	0x4641680
    1cf4:	65050000 	0x65050000
    1cf8:	0007a402 	srl	s4,a3,0x10
    1cfc:	e3168800 	sc	s6,-30720(t8)
    1d00:	05000005 	bltz	t0,1d18 <__isr_vec_space+0x1cf8>
    1d04:	003a0266 	0x3a0266
    1d08:	16a00000 	bnez	s5,1d0c <__isr_vec_space+0x1cec>
    1d0c:	000003ae 	0x3ae
    1d10:	f6026705 	sdc1	$f2,26373(s0)
    1d14:	a4000000 	sh	zero,0(zero)
    1d18:	00031516 	0x31516
    1d1c:	02680500 	0x2680500
    1d20:	000000f6 	tne	zero,zero,0x3
    1d24:	039d16ac 	0x39d16ac
    1d28:	69050000 	0x69050000
    1d2c:	0000f602 	srl	s8,zero,0x18
    1d30:	ec16b400 	swc3	$22,-19456(zero)
    1d34:	05000002 	bltz	t0,1d40 <__isr_vec_space+0x1d20>
    1d38:	00f6026a 	0xf6026a
    1d3c:	16bc0000 	bne	s5,gp,1d40 <__isr_vec_space+0x1d20>
    1d40:	000002fb 	0x2fb
    1d44:	f6026b05 	sdc1	$f2,27397(s0)
    1d48:	c4000000 	lwc1	$f0,0(zero)
    1d4c:	0004f516 	0x4f516
    1d50:	026c0500 	0x26c0500
    1d54:	0000003a 	0x3a
    1d58:	570800cc 	bnel	t8,t0,208c <__isr_vec_space+0x206c>
    1d5c:	94000005 	lhu	zero,5(zero)
    1d60:	09000007 	j	400001c <__memory_size+0x3fe081c>
    1d64:	000000ce 	0xce
    1d68:	57080019 	bnel	t8,t0,1dd0 <__isr_vec_space+0x1db0>
    1d6c:	a4000005 	sh	zero,5(zero)
    1d70:	09000007 	j	400001c <__memory_size+0x3fe081c>
    1d74:	000000ce 	0xce
    1d78:	57080007 	bnel	t8,t0,1d98 <__isr_vec_space+0x1d78>
    1d7c:	b4000005 	0xb4000005
    1d80:	09000007 	j	400001c <__memory_size+0x3fe081c>
    1d84:	000000ce 	0xce
    1d88:	f01a0017 	0xf01a0017
    1d8c:	d8027105 	ldc2	$2,28933(zero)
    1d90:	16000007 	bnez	s0,1db0 <__isr_vec_space+0x1d90>
    1d94:	000004a1 	0x4a1
    1d98:	d8027405 	ldc2	$2,29701(zero)
    1d9c:	00000007 	srav	zero,zero,zero
    1da0:	00063716 	0x63716
    1da4:	02750500 	0x2750500
    1da8:	000007e8 	0x7e8
    1dac:	cb080078 	lwc2	$8,120(t8)
    1db0:	e8000002 	swc2	$0,2(zero)
    1db4:	09000007 	j	400001c <__memory_size+0x3fe081c>
    1db8:	000000ce 	0xce
    1dbc:	9808001d 	lwr	t0,29(zero)
    1dc0:	f8000000 	sdc2	$0,0(zero)
    1dc4:	09000007 	j	400001c <__memory_size+0x3fe081c>
    1dc8:	000000ce 	0xce
    1dcc:	f01b001d 	0xf01b001d
    1dd0:	1a025605 	0x1a025605
    1dd4:	1c000008 	bgtz	zero,1df8 <__isr_vec_space+0x1dd8>
    1dd8:	0000057c 	0x57c
    1ddc:	83026d05 	lb	v0,27909(t8)
    1de0:	1c000006 	bgtz	zero,1dfc <__isr_vec_space+0x1ddc>
    1de4:	0000065a 	0x65a
    1de8:	b4027605 	0xb4027605
    1dec:	00000007 	srav	zero,zero,zero
    1df0:	00055708 	0x55708
    1df4:	00082a00 	sll	a1,t0,0x8
    1df8:	00ce0900 	0xce0900
    1dfc:	00180000 	sll	zero,t8,0x0
    1e00:	0008351d 	0x8351d
    1e04:	04191400 	0x4191400
    1e08:	0f000000 	jal	c000000 <__memory_size+0xbfe0800>
    1e0c:	00082a04 	0x82a04
    1e10:	6c040f00 	0x6c040f00
    1e14:	1d000001 	bgtz	t0,1e1c <__isr_vec_space+0x1dfc>
    1e18:	0000084c 	syscall	0x21
    1e1c:	00003a14 	0x3a14
    1e20:	040f0000 	0x40f0000
    1e24:	00000852 	mflhxu	at
    1e28:	0841040f 	j	104103c <__memory_size+0x102183c>
    1e2c:	f1080000 	0xf1080000
    1e30:	68000005 	0x68000005
    1e34:	09000008 	j	4000020 <__memory_size+0x3fe0820>
    1e38:	000000ce 	0xce
    1e3c:	a41e0002 	sh	s8,2(zero)
    1e40:	04000001 	bltz	zero,1e48 <__isr_vec_space+0x1e28>
    1e44:	08870506 	j	21c1418 <__memory_size+0x21a1c18>
    1e48:	b91f0000 	swr	ra,0(t0)
    1e4c:	00000002 	srl	zero,zero,0x0
    1e50:	0002a41f 	0x2a41f
    1e54:	b01f0100 	0xb01f0100
    1e58:	02000002 	0x2000002
    1e5c:	02902000 	0x2902000
    1e60:	42010000 	c0	0x10000
    1e64:	0000003a 	0x3a
    1e68:	80000904 	lb	zero,2308(zero)
    1e6c:	00000108 	0x108
    1e70:	09079c01 	j	41e7004 <__memory_size+0x41c7804>
    1e74:	22210000 	addi	at,s1,0
    1e78:	01000001 	movf	zero,t0,$fcc0
    1e7c:	00003a42 	srl	a3,zero,0x9
    1e80:	00008b00 	sll	s1,zero,0xc
    1e84:	6e662200 	0x6e662200
    1e88:	9f420100 	0x9f420100
    1e8c:	b7000002 	0xb7000002
    1e90:	22000000 	addi	zero,s0,0
    1e94:	00677261 	0x677261
    1e98:	010c4201 	0x10c4201
    1e9c:	00ee0000 	0xee0000
    1ea0:	64220000 	0x64220000
    1ea4:	0c420100 	jal	1080400 <__memory_size+0x1060c00>
    1ea8:	25000001 	addiu	zero,t0,1
    1eac:	23000001 	addi	zero,t8,1
    1eb0:	00000359 	0x359
    1eb4:	09074901 	j	41d2404 <__memory_size+0x41b2c04>
    1eb8:	015c0000 	0x15c0000
    1ebc:	70240000 	madd	at,a0
    1ec0:	894a0100 	lwl	t2,256(t2)
    1ec4:	72000002 	mul	zero,s0,zero
    1ec8:	25000001 	addiu	zero,t0,1
    1ecc:	80000970 	lb	zero,2416(zero)
    1ed0:	0000091e 	0x91e
    1ed4:	03540126 	0x3540126
    1ed8:	0001900a 	movz	s2,zero,at
    1edc:	fb040f00 	sdc2	$4,3840(t8)
    1ee0:	27000001 	addiu	zero,t8,1
    1ee4:	000005f0 	tge	zero,zero,0x17
    1ee8:	1902fb05 	0x1902fb05
    1eec:	18000009 	blez	zero,1f14 <__isr_vec_space+0x1ef4>
    1ef0:	00000419 	0x419
    1ef4:	00063928 	0x63928
    1ef8:	0c600700 	jal	1801c00 <__memory_size+0x17e2400>
    1efc:	14000001 	bnez	zero,1f04 <__isr_vec_space+0x1ee4>
    1f00:	00000028 	0x28
    1f04:	09510000 	j	5440000 <__memory_size+0x5420800>
    1f08:	00040000 	sll	zero,a0,0x0
    1f0c:	00000771 	tgeu	zero,zero,0x1d
    1f10:	01e80104 	0x1e80104
    1f14:	36010000 	ori	at,s0,0x0
    1f18:	0c000007 	jal	1c <ABIFlags_flags2+0x8>
    1f1c:	8080000a 	lb	zero,10(a0)
    1f20:	18000001 	blez	zero,1f28 <__isr_vec_space+0x1f08>
    1f24:	02000007 	srav	zero,zero,s0
    1f28:	00fd0704 	0xfd0704
    1f2c:	04030000 	bgezl	zero,1f30 <__isr_vec_space+0x1f10>
    1f30:	746e6905 	jalx	1b9a414 <__memory_size+0x1b7ac14>
    1f34:	05040200 	0x5040200
    1f38:	00000178 	0x178
    1f3c:	85060102 	lh	a2,258(t0)
    1f40:	02000000 	0x2000000
    1f44:	00830801 	0x830801
    1f48:	02020000 	0x2020000
    1f4c:	00019005 	lsa	s2,zero,at,0x1
    1f50:	07020200 	bltzl	t8,2754 <__isr_vec_space+0x2734>
    1f54:	0000009a 	0x9a
    1f58:	73050802 	mul	at,t8,a1
    1f5c:	02000001 	movf	zero,s0,$fcc0
    1f60:	00f80708 	0xf80708
    1f64:	de040000 	ldc3	$4,0(s0)
    1f68:	02000004 	sllv	zero,zero,s0
    1f6c:	00002807 	srav	a1,zero,zero
    1f70:	04bc0400 	0x4bc0400
    1f74:	10030000 	beq	zero,v1,1f78 <__isr_vec_space+0x1f58>
    1f78:	0000002f 	0x2f
    1f7c:	00059f04 	0x59f04
    1f80:	2f270300 	sltiu	a3,t9,768
    1f84:	05000000 	bltz	t0,1f88 <__isr_vec_space+0x1f68>
    1f88:	0000048b 	0x48b
    1f8c:	8d016104 	lw	at,24836(t0)
    1f90:	02000000 	0x2000000
    1f94:	01020704 	0x1020704
    1f98:	04060000 	0x4060000
    1f9c:	00b34a03 	0xb34a03
    1fa0:	85070000 	lh	a3,0(t0)
    1fa4:	03000004 	sllv	zero,zero,t8
    1fa8:	0000814c 	syscall	0x205
    1fac:	04370700 	0x4370700
    1fb0:	4d030000 	lwxc1	$f0,v1(t0)
    1fb4:	000000b3 	tltu	zero,zero,0x2
    1fb8:	003d0800 	0x3d0800
    1fbc:	00c30000 	0xc30000
    1fc0:	c3090000 	ll	t1,0(t8)
    1fc4:	03000000 	0x3000000
    1fc8:	07040200 	0x7040200
    1fcc:	0000011e 	0x11e
    1fd0:	4703080a 	bz.b	$w3,3ffc <__isr_vec_space+0x3fdc>
    1fd4:	000000eb 	0xeb
    1fd8:	0005890b 	0x5890b
    1fdc:	28490300 	slti	t1,v0,768
    1fe0:	00000000 	nop
    1fe4:	0005910b 	0x5910b
    1fe8:	944e0300 	lhu	t6,768(v0)
    1fec:	04000000 	bltz	zero,1ff0 <__isr_vec_space+0x1fd0>
    1ff0:	051c0400 	0x51c0400
    1ff4:	4f030000 	lwxc1	$f0,v1(t8)
    1ff8:	000000ca 	0xca
    1ffc:	0003fa04 	0x3fa04
    2000:	60530300 	0x60530300
    2004:	0c000000 	jal	0 <hardware_exit_hook>
    2008:	05db0404 	0x5db0404
    200c:	16050000 	bne	s0,a1,2010 <__isr_vec_space+0x1ff0>
    2010:	00000021 	move	zero,zero
    2014:	00040b0d 	break	0x4,0x2c
    2018:	2d051800 	sltiu	a1,t0,6144
    201c:	00000161 	0x161
    2020:	00053d0b 	0x53d0b
    2024:	612f0500 	0x612f0500
    2028:	00000001 	movf	zero,zero,$fcc0
    202c:	006b5f0e 	0x6b5f0e
    2030:	00283005 	lsa	a2,at,t0,0x1
    2034:	0b040000 	j	c100000 <__memory_size+0xc0e0800>
    2038:	00000574 	teq	zero,zero,0x15
    203c:	00283005 	lsa	a2,at,t0,0x1
    2040:	0b080000 	j	c200000 <__memory_size+0xc1e0800>
    2044:	000003f4 	teq	zero,zero,0xf
    2048:	00283005 	lsa	a2,at,t0,0x1
    204c:	0b0c0000 	j	c300000 <__memory_size+0xc2e0800>
    2050:	00000622 	0x622
    2054:	00283005 	lsa	a2,at,t0,0x1
    2058:	0e100000 	jal	8400000 <__memory_size+0x83e0800>
    205c:	0500785f 	bltz	t0,201dc <__memory_size+0x9dc>
    2060:	00016731 	tgeu	zero,at,0x19c
    2064:	0f001400 	jal	c005000 <__memory_size+0xbfe5800>
    2068:	00010e04 	0x10e04
    206c:	01030800 	0x1030800
    2070:	01770000 	0x1770000
    2074:	c3090000 	ll	t1,0(t8)
    2078:	00000000 	nop
    207c:	04320d00 	bltzall	at,5480 <__isr_vec_space+0x5460>
    2080:	05240000 	0x5240000
    2084:	0001f035 	0x1f035
    2088:	03320b00 	0x3320b00
    208c:	37050000 	ori	a1,t8,0x0
    2090:	00000028 	0x28
    2094:	05b10b00 	bgezal	t5,4c98 <__isr_vec_space+0x4c78>
    2098:	38050000 	xori	a1,zero,0x0
    209c:	00000028 	0x28
    20a0:	03410b04 	0x3410b04
    20a4:	39050000 	xori	a1,t0,0x0
    20a8:	00000028 	0x28
    20ac:	069b0b08 	0x69b0b08
    20b0:	3a050000 	xori	a1,s0,0x0
    20b4:	00000028 	0x28
    20b8:	04a80b0c 	tgei	a1,2828
    20bc:	3b050000 	xori	a1,t8,0x0
    20c0:	00000028 	0x28
    20c4:	05a70b10 	aclr	0x0,-1264(t5)
    20c8:	3c050000 	lui	a1,0x0
    20cc:	00000028 	0x28
    20d0:	06270b14 	aclr	0x0,-1260(s1)
    20d4:	3d050000 	0x3d050000
    20d8:	00000028 	0x28
    20dc:	04fe0b18 	0x4fe0b18
    20e0:	3e050000 	0x3e050000
    20e4:	00000028 	0x28
    20e8:	06620b1c 	bltzl	s3,4d5c <__isr_vec_space+0x4d3c>
    20ec:	3f050000 	0x3f050000
    20f0:	00000028 	0x28
    20f4:	50100020 	beql	zero,s0,2178 <__isr_vec_space+0x2158>
    20f8:	08000003 	j	c <ABIFlags_ases>
    20fc:	30480501 	andi	t0,v0,0x501
    2100:	0b000002 	j	c000008 <__memory_size+0xbfe0808>
    2104:	000002d1 	0x2d1
    2108:	02304905 	0x2304905
    210c:	0b000000 	j	c000000 <__memory_size+0xbfe0800>
    2110:	000002c5 	0x2c5
    2114:	02304a05 	0x2304a05
    2118:	11800000 	beqz	t4,211c <__isr_vec_space+0x20fc>
    211c:	000005cd 	break	0x0,0x17
    2120:	01034c05 	0x1034c05
    2124:	01000000 	0x1000000
    2128:	00037511 	0x37511
    212c:	034f0500 	0x34f0500
    2130:	04000001 	bltz	zero,2138 <__isr_vec_space+0x2118>
    2134:	01080001 	movf	zero,t0,$fcc2
    2138:	40000001 	mfc0	zero,c0_mvpcontrol
    213c:	09000002 	j	4000008 <__memory_size+0x3fe0808>
    2140:	000000c3 	sra	zero,zero,0x3
    2144:	bd10001f 	cache	0x10,31(t0)
    2148:	90000002 	lbu	zero,2(zero)
    214c:	7e5b0501 	0x7e5b0501
    2150:	0b000002 	j	c000008 <__memory_size+0xbfe0808>
    2154:	0000053d 	0x53d
    2158:	027e5c05 	0x27e5c05
    215c:	0b000000 	j	c000000 <__memory_size+0xbfe0800>
    2160:	00000555 	0x555
    2164:	00285d05 	0x285d05
    2168:	0b040000 	j	c100000 <__memory_size+0xc0e0800>
    216c:	000003ef 	0x3ef
    2170:	02845f05 	0x2845f05
    2174:	0b080000 	j	c200000 <__memory_size+0xc1e0800>
    2178:	00000350 	0x350
    217c:	01f06005 	lsa	t4,t7,s0,0x1
    2180:	00880000 	0x880000
    2184:	0240040f 	0x240040f
    2188:	94080000 	lhu	t0,0(zero)
    218c:	94000002 	lhu	zero,2(zero)
    2190:	09000002 	j	4000008 <__memory_size+0x3fe0808>
    2194:	000000c3 	sra	zero,zero,0x3
    2198:	040f001f 	0x40f001f
    219c:	0000029a 	0x29a
    21a0:	05080d12 	tgei	t0,3346
    21a4:	05080000 	tgei	t0,0
    21a8:	0002c073 	tltu	zero,v0,0x301
    21ac:	092e0b00 	j	4b82c00 <__memory_size+0x4b63400>
    21b0:	74050000 	jalx	140000 <__memory_size+0x120800>
    21b4:	000002c0 	sll	zero,zero,0xb
    21b8:	08fc0b00 	j	3f02c00 <__memory_size+0x3ee3400>
    21bc:	75050000 	jalx	4140000 <__memory_size+0x4120800>
    21c0:	00000028 	0x28
    21c4:	040f0004 	0x40f0004
    21c8:	0000003d 	0x3d
    21cc:	0005270d 	break	0x5,0x9c
    21d0:	b3056800 	0xb3056800
    21d4:	000003f0 	tge	zero,zero,0xf
    21d8:	00705f0e 	0x705f0e
    21dc:	02c0b405 	0x2c0b405
    21e0:	0e000000 	jal	8000000 <__memory_size+0x7fe0800>
    21e4:	0500725f 	bltz	t0,1eb64 <__isr_vec_space+0x1eb44>
    21e8:	000028b5 	0x28b5
    21ec:	5f0e0400 	0x5f0e0400
    21f0:	b6050077 	0xb6050077
    21f4:	00000028 	0x28
    21f8:	036e0b08 	0x36e0b08
    21fc:	b7050000 	0xb7050000
    2200:	00000044 	0x44
    2204:	044e0b0c 	tnei	v0,2828
    2208:	b8050000 	swr	a1,0(zero)
    220c:	00000044 	0x44
    2210:	625f0e0e 	0x625f0e0e
    2214:	b9050066 	swr	a1,102(t0)
    2218:	0000029b 	0x29b
    221c:	030c0b10 	0x30c0b10
    2220:	ba050000 	swr	a1,0(s0)
    2224:	00000028 	0x28
    2228:	035e0b18 	0x35e0b18
    222c:	c1050000 	ll	a1,0(t0)
    2230:	00000101 	0x101
    2234:	04220b1c 	bltzl	at,4ea8 <__isr_vec_space+0x4e88>
    2238:	c3050000 	ll	a1,0(t8)
    223c:	00000553 	0x553
    2240:	049a0b20 	0x49a0b20
    2244:	c5050000 	lwc1	$f5,0(t0)
    2248:	00000582 	srl	zero,zero,0x16
    224c:	05990b24 	0x5990b24
    2250:	c8050000 	lwc2	$5,0(zero)
    2254:	000005a6 	0x5a6
    2258:	067c0b28 	0x67c0b28
    225c:	c9050000 	lwc2	$5,0(t0)
    2260:	000005c0 	sll	zero,zero,0x17
    2264:	755f0e2c 	jalx	57c38b0 <__memory_size+0x57a40b0>
    2268:	cc050062 	pref	0x5,98(zero)
    226c:	0000029b 	0x29b
    2270:	755f0e30 	jalx	57c38c0 <__memory_size+0x57a40c0>
    2274:	cd050070 	pref	0x5,112(t0)
    2278:	000002c0 	sll	zero,zero,0xb
    227c:	755f0e38 	jalx	57c38e0 <__memory_size+0x57a40e0>
    2280:	ce050072 	pref	0x5,114(s0)
    2284:	00000028 	0x28
    2288:	033b0b3c 	0x33b0b3c
    228c:	d1050000 	0xd1050000
    2290:	000005c6 	0x5c6
    2294:	06540b40 	0x6540b40
    2298:	d2050000 	0xd2050000
    229c:	000005d6 	0x5d6
    22a0:	6c5f0e43 	0x6c5f0e43
    22a4:	d5050062 	ldc1	$f5,98(t0)
    22a8:	0000029b 	0x29b
    22ac:	03840b44 	0x3840b44
    22b0:	d8050000 	ldc2	$5,0(zero)
    22b4:	00000028 	0x28
    22b8:	03950b4c 	syscall	0xe542d
    22bc:	d9050000 	ldc2	$5,0(t0)
    22c0:	0000006b 	0x6b
    22c4:	06ab0b50 	tltiu	s5,2896
    22c8:	dc050000 	ldc3	$5,0(zero)
    22cc:	0000040e 	0x40e
    22d0:	077a0b54 	0x77a0b54
    22d4:	e0050000 	sc	a1,0(zero)
    22d8:	000000f6 	tne	zero,zero,0x3
    22dc:	052f0b58 	0x52f0b58
    22e0:	e2050000 	sc	a1,0(s0)
    22e4:	000000eb 	0xeb
    22e8:	04920b5c 	bltzall	a0,505c <__isr_vec_space+0x503c>
    22ec:	e3050000 	sc	a1,0(t8)
    22f0:	00000028 	0x28
    22f4:	28130064 	slti	s3,zero,100
    22f8:	0e000000 	jal	8000000 <__memory_size+0x7fe0800>
    22fc:	14000004 	bnez	zero,2310 <__isr_vec_space+0x22f0>
    2300:	0000040e 	0x40e
    2304:	00010114 	0x10114
    2308:	05461400 	0x5461400
    230c:	28140000 	slti	s4,zero,0
    2310:	00000000 	nop
    2314:	0414040f 	0x414040f
    2318:	7c150000 	ext	s5,zero,0x0,0x1
    231c:	28000005 	slti	zero,zero,5
    2320:	02390504 	0x2390504
    2324:	00000546 	0x546
    2328:	000aee16 	0xaee16
    232c:	023b0500 	0x23b0500
    2330:	00000028 	0x28
    2334:	037d1600 	0x37d1600
    2338:	40050000 	mfc0	a1,c0_index
    233c:	00062d02 	srl	a1,a2,0x14
    2340:	3e160400 	0x3e160400
    2344:	05000004 	bltz	t0,2358 <__isr_vec_space+0x2338>
    2348:	062d0240 	0x62d0240
    234c:	16080000 	bne	s0,t0,2350 <__isr_vec_space+0x2330>
    2350:	00000403 	sra	zero,zero,0x10
    2354:	2d024005 	sltiu	v0,t0,16389
    2358:	0c000006 	jal	18 <ABIFlags_flags2+0x4>
    235c:	00055016 	0x55016
    2360:	02420500 	0x2420500
    2364:	00000028 	0x28
    2368:	02e11610 	0x2e11610
    236c:	43050000 	c0	0x1050000
    2370:	00080f02 	srl	at,t0,0x1c
    2374:	03161400 	0x3161400
    2378:	05000006 	bltz	t0,2394 <__isr_vec_space+0x2374>
    237c:	00280245 	0x280245
    2380:	16300000 	bne	s1,s0,2384 <__isr_vec_space+0x2364>
    2384:	0000055a 	0x55a
    2388:	77024605 	jalx	c091814 <__memory_size+0xc072014>
    238c:	34000005 	li	zero,0x5
    2390:	0004b116 	0x4b116
    2394:	02480500 	0x2480500
    2398:	00000028 	0x28
    239c:	056a1638 	tlti	t3,5688
    23a0:	4a050000 	c2	0x50000
    23a4:	00082a02 	srl	a1,t0,0x8
    23a8:	7d163c00 	ext	s6,t0,0x10,0x8
    23ac:	05000004 	bltz	t0,23c0 <__isr_vec_space+0x23a0>
    23b0:	0161024d 	break	0x161,0x9
    23b4:	16400000 	bnez	s2,23b8 <__isr_vec_space+0x2398>
    23b8:	00000428 	0x428
    23bc:	28024e05 	slti	v0,zero,19973
    23c0:	44000000 	mfc1	zero,$f0
    23c4:	00069616 	0x69616
    23c8:	024f0500 	0x24f0500
    23cc:	00000161 	0x161
    23d0:	04d41648 	0x4d41648
    23d4:	50050000 	beql	zero,a1,23d8 <__isr_vec_space+0x23b8>
    23d8:	00083002 	srl	a2,t0,0x0
    23dc:	46164c00 	add.s	$f16,$f9,$f22
    23e0:	05000004 	bltz	t0,23f4 <__isr_vec_space+0x23d4>
    23e4:	00280253 	0x280253
    23e8:	16500000 	bne	s2,s0,23ec <__isr_vec_space+0x23cc>
    23ec:	0000038d 	break	0x0,0xe
    23f0:	46025405 	c1	0x25405
    23f4:	54000005 	bnezl	zero,240c <__isr_vec_space+0x23ec>
    23f8:	0004f016 	0x4f016
    23fc:	02770500 	0x2770500
    2400:	000007ed 	0x7ed
    2404:	02bd1758 	0x2bd1758
    2408:	7b050000 	xori.b	$w0,$w0,0x5
    240c:	00027e02 	srl	t7,v0,0x18
    2410:	17014800 	bne	t8,at,14414 <__isr_vec_space+0x143f4>
    2414:	0000045b 	0x45b
    2418:	40027c05 	0x40027c05
    241c:	4c000002 	mfc3	zero,$0,2
    2420:	064a1701 	tlti	s2,5889
    2424:	80050000 	lb	a1,0(zero)
    2428:	00084102 	srl	t0,t0,0x4
    242c:	1702dc00 	bne	t8,v0,ffff9430 <__entry+0x403f9430>
    2430:	00000366 	0x366
    2434:	f2028505 	0xf2028505
    2438:	e0000005 	sc	zero,5(zero)
    243c:	034b1702 	0x34b1702
    2440:	86050000 	lh	a1,0(s0)
    2444:	00084d02 	srl	t1,t0,0x14
    2448:	0002ec00 	sll	sp,v0,0x10
    244c:	054c040f 	teqi	t2,1039
    2450:	01020000 	0x1020000
    2454:	00008c08 	0x8c08
    2458:	f0040f00 	0xf0040f00
    245c:	13000003 	beqz	t8,246c <__isr_vec_space+0x244c>
    2460:	00000028 	0x28
    2464:	00000577 	0x577
    2468:	00040e14 	0x40e14
    246c:	01011400 	0x1011400
    2470:	77140000 	jalx	c500000 <__memory_size+0xc4e0800>
    2474:	14000005 	bnez	zero,248c <__isr_vec_space+0x246c>
    2478:	00000028 	0x28
    247c:	7d040f00 	ext	a0,t0,0x1c,0x2
    2480:	18000005 	blez	zero,2498 <__isr_vec_space+0x2478>
    2484:	0000054c 	syscall	0x15
    2488:	0559040f 	0x559040f
    248c:	76130000 	jalx	84c0000 <__memory_size+0x84a0800>
    2490:	a6000000 	sh	zero,0(s0)
    2494:	14000005 	bnez	zero,24ac <__isr_vec_space+0x248c>
    2498:	0000040e 	0x40e
    249c:	00010114 	0x10114
    24a0:	00761400 	0x761400
    24a4:	28140000 	slti	s4,zero,0
    24a8:	00000000 	nop
    24ac:	0588040f 	tgei	t4,1039
    24b0:	28130000 	slti	s3,zero,0
    24b4:	c0000000 	ll	zero,0(zero)
    24b8:	14000005 	bnez	zero,24d0 <__isr_vec_space+0x24b0>
    24bc:	0000040e 	0x40e
    24c0:	00010114 	0x10114
    24c4:	040f0000 	0x40f0000
    24c8:	000005ac 	0x5ac
    24cc:	00003d08 	0x3d08
    24d0:	0005d600 	sll	k0,a1,0x18
    24d4:	00c30900 	0xc30900
    24d8:	00020000 	sll	zero,v0,0x0
    24dc:	00003d08 	0x3d08
    24e0:	0005e600 	sll	gp,a1,0x18
    24e4:	00c30900 	0xc30900
    24e8:	00000000 	nop
    24ec:	00051505 	0x51505
    24f0:	011d0500 	0x11d0500
    24f4:	000002c6 	0x2c6
    24f8:	00063119 	0x63119
    24fc:	21050c00 	addi	a1,t0,3072
    2500:	00062701 	0x62701
    2504:	053d1600 	0x53d1600
    2508:	23050000 	addi	a1,t8,0
    250c:	00062701 	0x62701
    2510:	54160000 	bnel	zero,s6,2514 <__isr_vec_space+0x24f4>
    2514:	05000004 	bltz	t0,2528 <__isr_vec_space+0x2508>
    2518:	00280124 	0x280124
    251c:	16040000 	bne	s0,a0,2520 <__isr_vec_space+0x2500>
    2520:	0000050f 	sync	0x14
    2524:	2d012505 	sltiu	at,t0,9477
    2528:	08000006 	j	18 <ABIFlags_flags2+0x4>
    252c:	f2040f00 	0xf2040f00
    2530:	0f000005 	jal	c000014 <__memory_size+0xbfe0814>
    2534:	0005e604 	0x5e604
    2538:	02d91900 	0x2d91900
    253c:	050e0000 	tnei	t0,0
    2540:	0668013d 	tgei	s3,317
    2544:	83160000 	lb	s6,0(t8)
    2548:	05000005 	bltz	t0,2560 <__isr_vec_space+0x2540>
    254c:	0668013e 	tgei	s3,318
    2550:	16000000 	bnez	s0,2554 <__isr_vec_space+0x2534>
    2554:	000005ba 	0x5ba
    2558:	68013f05 	0x68013f05
    255c:	06000006 	bltz	s0,2578 <__isr_vec_space+0x2558>
    2560:	0005d616 	0x5d616
    2564:	01400500 	0x1400500
    2568:	0000004b 	0x4b
    256c:	4b08000c 	c2	0x108000c
    2570:	78000000 	andi.b	$w0,$w0,0x0
    2574:	09000006 	j	4000018 <__memory_size+0x3fe0818>
    2578:	000000c3 	sra	zero,zero,0x3
    257c:	d01a0002 	0xd01a0002
    2580:	79025805 	0x79025805
    2584:	16000007 	bnez	s0,25a4 <__isr_vec_space+0x2584>
    2588:	00000615 	0x615
    258c:	8d025a05 	lw	v0,23045(t0)
    2590:	00000000 	nop
    2594:	0005c016 	0x5c016
    2598:	025b0500 	0x25b0500
    259c:	00000546 	0x546
    25a0:	04701604 	bltzal	v1,7db4 <__isr_vec_space+0x7d94>
    25a4:	5c050000 	0x5c050000
    25a8:	00077902 	srl	t7,a3,0x4
    25ac:	6d160800 	0x6d160800
    25b0:	05000006 	bltz	t0,25cc <__isr_vec_space+0x25ac>
    25b4:	0177025d 	0x177025d
    25b8:	16240000 	bne	s1,a0,25bc <__isr_vec_space+0x259c>
    25bc:	00000413 	0x413
    25c0:	28025e05 	slti	v0,zero,24069
    25c4:	48000000 	mfc2	zero,$0
    25c8:	00053816 	0x53816
    25cc:	025f0500 	0x25f0500
    25d0:	00000059 	0x59
    25d4:	06831650 	bgezl	s4,7f18 <__isr_vec_space+0x7ef8>
    25d8:	60050000 	0x60050000
    25dc:	00063302 	srl	a2,a2,0xc
    25e0:	43165800 	c0	0x1165800
    25e4:	05000005 	bltz	t0,25fc <__isr_vec_space+0x25dc>
    25e8:	00eb0261 	0xeb0261
    25ec:	16680000 	bne	s3,t0,25f0 <__isr_vec_space+0x25d0>
    25f0:	00000688 	0x688
    25f4:	eb026205 	swc2	$2,25093(t8)
    25f8:	70000000 	madd	zero,zero
    25fc:	00032416 	0x32416
    2600:	02630500 	0x2630500
    2604:	000000eb 	0xeb
    2608:	06401678 	bltz	s2,7fec <__isr_vec_space+0x7fcc>
    260c:	64050000 	0x64050000
    2610:	00078902 	srl	s1,a3,0x4
    2614:	64168000 	0x64168000
    2618:	05000004 	bltz	t0,262c <__isr_vec_space+0x260c>
    261c:	07990265 	0x7990265
    2620:	16880000 	bne	s4,t0,2624 <__isr_vec_space+0x2604>
    2624:	000005e3 	0x5e3
    2628:	28026605 	slti	v0,zero,26117
    262c:	a0000000 	sb	zero,0(zero)
    2630:	0003ae16 	0x3ae16
    2634:	02670500 	0x2670500
    2638:	000000eb 	0xeb
    263c:	031516a4 	0x31516a4
    2640:	68050000 	0x68050000
    2644:	0000eb02 	srl	sp,zero,0xc
    2648:	9d16ac00 	0x9d16ac00
    264c:	05000003 	bltz	t0,265c <__isr_vec_space+0x263c>
    2650:	00eb0269 	0xeb0269
    2654:	16b40000 	bne	s5,s4,2658 <__isr_vec_space+0x2638>
    2658:	000002ec 	0x2ec
    265c:	eb026a05 	swc2	$2,27141(t8)
    2660:	bc000000 	cache	0x0,0(zero)
    2664:	0002fb16 	0x2fb16
    2668:	026b0500 	0x26b0500
    266c:	000000eb 	0xeb
    2670:	04f516c4 	0x4f516c4
    2674:	6c050000 	0x6c050000
    2678:	00002802 	srl	a1,zero,0x0
    267c:	0800cc00 	j	33000 <__memory_size+0x13800>
    2680:	0000054c 	syscall	0x15
    2684:	00000789 	0x789
    2688:	0000c309 	0xc309
    268c:	08001900 	j	6400 <__isr_vec_space+0x63e0>
    2690:	0000054c 	syscall	0x15
    2694:	00000799 	0x799
    2698:	0000c309 	0xc309
    269c:	08000700 	j	1c00 <__isr_vec_space+0x1be0>
    26a0:	0000054c 	syscall	0x15
    26a4:	000007a9 	0x7a9
    26a8:	0000c309 	0xc309
    26ac:	1a001700 	blez	s0,82b0 <__isr_vec_space+0x8290>
    26b0:	027105f0 	tge	s3,s1,0x17
    26b4:	000007cd 	break	0x0,0x1f
    26b8:	0004a116 	0x4a116
    26bc:	02740500 	0x2740500
    26c0:	000007cd 	break	0x0,0x1f
    26c4:	06371600 	0x6371600
    26c8:	75050000 	jalx	4140000 <__memory_size+0x4120800>
    26cc:	0007dd02 	srl	k1,a3,0x14
    26d0:	08007800 	j	1e000 <__isr_vec_space+0x1dfe0>
    26d4:	000002c0 	sll	zero,zero,0xb
    26d8:	000007dd 	0x7dd
    26dc:	0000c309 	0xc309
    26e0:	08001d00 	j	7400 <__isr_vec_space+0x73e0>
    26e4:	0000008d 	break	0x0,0x2
    26e8:	000007ed 	0x7ed
    26ec:	0000c309 	0xc309
    26f0:	1b001d00 	blez	t8,9af4 <__isr_vec_space+0x9ad4>
    26f4:	025605f0 	tge	s2,s6,0x17
    26f8:	0000080f 	0x80f
    26fc:	00057c1c 	0x57c1c
    2700:	026d0500 	0x26d0500
    2704:	00000678 	0x678
    2708:	00065a1c 	0x65a1c
    270c:	02760500 	0x2760500
    2710:	000007a9 	0x7a9
    2714:	054c0800 	teqi	t2,2048
    2718:	081f0000 	j	7c0000 <__memory_size+0x7a0800>
    271c:	c3090000 	ll	t1,0(t8)
    2720:	18000000 	blez	zero,2724 <__isr_vec_space+0x2704>
    2724:	082a1d00 	j	a87400 <__memory_size+0xa67c00>
    2728:	0e140000 	jal	8500000 <__memory_size+0x84e0800>
    272c:	00000004 	sllv	zero,zero,zero
    2730:	081f040f 	j	7c103c <__memory_size+0x7a183c>
    2734:	040f0000 	0x40f0000
    2738:	00000161 	0x161
    273c:	0008411d 	0x8411d
    2740:	00281400 	0x281400
    2744:	0f000000 	jal	c000000 <__memory_size+0xbfe0800>
    2748:	00084704 	0x84704
    274c:	36040f00 	ori	a0,s0,0xf00
    2750:	08000008 	j	20 <__isr_vec_space>
    2754:	000005e6 	0x5e6
    2758:	0000085d 	0x85d
    275c:	0000c309 	0xc309
    2760:	1e000200 	bgtz	s0,2f64 <__isr_vec_space+0x2f44>
    2764:	000004c3 	sra	zero,zero,0x13
    2768:	0a0c4201 	j	8310804 <__memory_size+0x82f1004>
    276c:	01808000 	0x1808000
    2770:	9c010000 	0x9c010000
    2774:	0000091e 	0x91e
    2778:	0008491f 	0x8491f
    277c:	28420100 	slti	v0,v0,256
    2780:	9d000000 	0x9d000000
    2784:	20000001 	addi	zero,zero,1
    2788:	42010064 	c0	0x10064
    278c:	00000101 	0x101
    2790:	000001c9 	0x1c9
    2794:	01007021 	move	t6,t0
    2798:	00027e45 	0x27e45
    279c:	0001f500 	sll	s8,at,0x14
    27a0:	07282200 	tgei	t9,8704
    27a4:	46010000 	add.s	$f0,$f0,$f1
    27a8:	0000091e 	0x91e
    27ac:	00000214 	0x214
    27b0:	00035922 	0x35922
    27b4:	24470100 	addiu	a3,v0,256
    27b8:	3d000009 	0x3d000009
    27bc:	21000002 	addi	zero,t0,2
    27c0:	4801006e 	0x4801006e
    27c4:	00000028 	0x28
    27c8:	00000264 	0x264
    27cc:	01006921 	0x1006921
    27d0:	00002849 	0x2849
    27d4:	00027700 	sll	t6,v0,0x1c
    27d8:	6e662100 	0x6e662100
    27dc:	944a0100 	lhu	t2,256(v0)
    27e0:	ac000002 	sw	zero,2(zero)
    27e4:	23000002 	addi	zero,t8,2
    27e8:	0000072e 	0x72e
    27ec:	00245101 	0x245101
    27f0:	0d000000 	jal	4000000 <__memory_size+0x3fe0800>
    27f4:	21000009 	addi	zero,t0,9
    27f8:	00646e69 	0x646e69
    27fc:	00285e01 	0x285e01
    2800:	02d50000 	0x2d50000
    2804:	48250000 	0x48250000
    2808:	2680000b 	addiu	zero,s4,11
    280c:	86025401 	lh	v0,21505(s0)
    2810:	27000000 	addiu	zero,t8,0
    2814:	80000b1c 	lb	zero,2844(zero)
    2818:	00000947 	0x947
    281c:	02540126 	0x2540126
    2820:	00000080 	sll	zero,zero,0x2
    2824:	027e040f 	0x27e040f
    2828:	040f0000 	0x40f0000
    282c:	000001f0 	tge	zero,zero,0x7
    2830:	00077228 	0x77228
    2834:	280e0100 	slti	t6,zero,256
    2838:	00000000 	nop
    283c:	0005f029 	0x5f029
    2840:	02fb0500 	0x2fb0500
    2844:	00000942 	srl	at,zero,0x5
    2848:	00040e18 	0x40e18
    284c:	07232a00 	bgezl	t9,d050 <__isr_vec_space+0xd030>
    2850:	55060000 	bnel	t0,a2,2854 <__isr_vec_space+0x2834>
    2854:	00010114 	0x10114
    2858:	22000000 	addi	zero,s0,0
    285c:	04000001 	bltz	zero,2864 <__isr_vec_space+0x2844>
    2860:	00098e00 	sll	s1,t1,0x18
    2864:	80010400 	lb	at,1024(zero)
    2868:	01000007 	srav	zero,zero,t0
    286c:	00000875 	0x875
    2870:	80000b8c 	lb	zero,2956(zero)
    2874:	00000088 	0x88
    2878:	000008d7 	0x8d7
    287c:	85060102 	lh	a2,258(t0)
    2880:	02000000 	0x2000000
    2884:	00830801 	0x830801
    2888:	02020000 	0x2020000
    288c:	00019005 	lsa	s2,zero,at,0x1
    2890:	07020200 	bltzl	t8,3094 <__isr_vec_space+0x3074>
    2894:	0000009a 	0x9a
    2898:	00086603 	sra	t4,t0,0x18
    289c:	48370200 	0x48370200
    28a0:	02000000 	0x2000000
    28a4:	01780504 	0x1780504
    28a8:	04020000 	bltzl	zero,28ac <__isr_vec_space+0x288c>
    28ac:	0000fd07 	0xfd07
    28b0:	05080200 	tgei	t0,512
    28b4:	00000173 	tltu	zero,zero,0x5
    28b8:	f8070802 	sdc2	$7,2050(zero)
    28bc:	03000000 	0x3000000
    28c0:	00000868 	0x868
    28c4:	003d4103 	0x3d4103
    28c8:	04040000 	0x4040000
    28cc:	746e6905 	jalx	1b9a414 <__memory_size+0x1b7ac14>
    28d0:	07040200 	0x7040200
    28d4:	00000102 	srl	zero,zero,0x4
    28d8:	1e070402 	0x1e070402
    28dc:	02000001 	movf	zero,s0,$fcc0
    28e0:	008c0801 	movf	at,a0,$fcc3
    28e4:	4e050000 	lwxc1	$f0,a1(s0)
    28e8:	01000008 	jr	t0
    28ec:	000b8c3c 	0xb8c3c
    28f0:	00008880 	sll	s1,zero,0x2
    28f4:	f39c0100 	0xf39c0100
    28f8:	06000000 	bltz	s0,28fc <__isr_vec_space+0x28dc>
    28fc:	00000844 	0x844
    2900:	00643c01 	0x643c01
    2904:	02f30000 	0x2f30000
    2908:	70070000 	madd	zero,a3
    290c:	01000008 	jr	t0
    2910:	0000643e 	0x643e
    2914:	08540100 	j	1500400 <__memory_size+0x14e0c00>
    2918:	0100706f 	0x100706f
    291c:	0000643f 	0x643f
    2920:	08690100 	j	1a40400 <__memory_size+0x1a20c00>
    2924:	00746572 	tlt	v1,s4,0x195
    2928:	00644001 	movf	t0,v1,$fcc1
    292c:	52010000 	beql	s0,at,2930 <__isr_vec_space+0x2910>
    2930:	000bec09 	0xbec09
    2934:	00010980 	sll	at,at,0x6
    2938:	0000e900 	sll	sp,zero,0x4
    293c:	54010a00 	bnel	zero,at,5140 <__isr_vec_space+0x5120>
    2940:	00008302 	srl	s0,zero,0xc
    2944:	000c040b 	0xc040b
    2948:	00011a80 	sll	v1,at,0xa
    294c:	840c0000 	lh	t4,0(zero)
    2950:	fe000000 	sdc3	$0,0(s0)
    2954:	0d000000 	jal	4000000 <__memory_size+0x3fe0800>
    2958:	08550e00 	j	1543800 <__memory_size+0x1524000>
    295c:	38010000 	xori	at,zero,0x0
    2960:	000000f3 	tltu	zero,zero,0x3
    2964:	0008330f 	0x8330f
    2968:	1a340100 	0x1a340100
    296c:	10000001 	b	2974 <__isr_vec_space+0x2954>
    2970:	00000064 	0x64
    2974:	08a71100 	j	29c4400 <__memory_size+0x29a4c00>
    2978:	33010000 	andi	at,t8,0x0
    297c:	0000006f 	0x6f
    2980:	0000b300 	sll	s6,zero,0xc
    2984:	7a000200 	nori.b	$w8,$w0,0x0
    2988:	0400000a 	bltz	zero,29b4 <__isr_vec_space+0x2994>
    298c:	0009e801 	movt	sp,zero,$fcc2
    2990:	000c1400 	sll	v0,t4,0x10
    2994:	000ccc80 	sll	t9,t4,0x12
    2998:	73752f80 	0x73752f80
    299c:	6d2f7265 	0x6d2f7265
    29a0:	73737069 	0x73737069
    29a4:	672f7477 	0x672f7477
    29a8:	6e2f7469 	0x6e2f7469
    29ac:	696c7765 	0x696c7765
    29b0:	696c2f62 	0x696c2f62
    29b4:	6f6c6762 	0x6f6c6762
    29b8:	6d2f7373 	0x6d2f7373
    29bc:	2f737069 	sltiu	s3,k1,28777
    29c0:	5f696875 	0x5f696875
    29c4:	61746567 	0x61746567
    29c8:	2e736772 	sltiu	s3,s3,26482
    29cc:	752f0053 	jalx	4bc014c <__memory_size+0x4ba094c>
    29d0:	2f726573 	sltiu	s2,k1,25971
    29d4:	7370696d 	s16sdi	xr5,k1,52,
    29d8:	2f747773 	sltiu	s4,k1,30579
    29dc:	6c697562 	0x6c697562
    29e0:	30322d64 	andi	s2,at,0x2d64
    29e4:	302e3531 	andi	t6,at,0x3531
    29e8:	35302d36 	ori	s0,t1,0x2d36
    29ec:	6a626f2f 	0x6a626f2f
    29f0:	70696d2d 	s16sdi	xr4,v1,182,ptn1
    29f4:	746d2d73 	jalx	1b4b5cc <__memory_size+0x1b2bdcc>
    29f8:	6c652d69 	0x6c652d69
    29fc:	656e2f66 	0x656e2f66
    2a00:	62696c77 	0x62696c77
    2a04:	70696d2f 	0x70696d2f
    2a08:	746d2d73 	jalx	1b4b5cc <__memory_size+0x1b2bdcc>
    2a0c:	6c652d69 	0x6c652d69
    2a10:	6c652f66 	0x6c652f66
    2a14:	666f732f 	0x666f732f
    2a18:	62696c2f 	0x62696c2f
    2a1c:	736f6c67 	0x736f6c67
    2a20:	696d2f73 	0x696d2f73
    2a24:	47007370 	bz.b	$w0,1f7e8 <__isr_vec_space+0x1f7c8>
    2a28:	4120554e 	0x4120554e
    2a2c:	2e322053 	sltiu	s2,s1,8275
    2a30:	392e3432 	xori	t6,t1,0x3432
    2a34:	80010030 	lb	at,48(zero)
    2a38:	0000010b 	0x10b
    2a3c:	0a8e0004 	j	a380010 <__memory_size+0xa360810>
    2a40:	01040000 	0x1040000
    2a44:	00000780 	sll	zero,zero,0x1e
    2a48:	0008b901 	0x8b901
    2a4c:	000ccc00 	sll	t9,t4,0x10
    2a50:	00004880 	sll	t1,zero,0x2
    2a54:	000a7300 	sll	t6,t2,0xc
    2a58:	06010200 	bgez	s0,325c <__isr_vec_space+0x323c>
    2a5c:	00000085 	lsa	zero,zero,zero,0x3
    2a60:	83080102 	lb	t0,258(t8)
    2a64:	02000000 	0x2000000
    2a68:	01900502 	0x1900502
    2a6c:	02020000 	0x2020000
    2a70:	00009a07 	0x9a07
    2a74:	08660300 	j	1980c00 <__memory_size+0x1961400>
    2a78:	37020000 	ori	v0,t8,0x0
    2a7c:	00000048 	0x48
    2a80:	78050402 	shf.b	$w16,$w0,0x5
    2a84:	02000001 	movf	zero,s0,$fcc0
    2a88:	00fd0704 	0xfd0704
    2a8c:	08020000 	j	80000 <__memory_size+0x60800>
    2a90:	00017305 	0x17305
    2a94:	07080200 	tgei	t8,512
    2a98:	000000f8 	0xf8
    2a9c:	00086803 	sra	t5,t0,0x0
    2aa0:	3d410300 	0x3d410300
    2aa4:	04000000 	bltz	zero,2aa8 <__isr_vec_space+0x2a88>
    2aa8:	6e690504 	0x6e690504
    2aac:	04020074 	bltzl	zero,2c80 <__isr_vec_space+0x2c60>
    2ab0:	00010207 	0x10207
    2ab4:	07040200 	0x7040200
    2ab8:	0000011e 	0x11e
    2abc:	01020405 	0x1020405
    2ac0:	00008c08 	0x8c08
    2ac4:	09340600 	j	4d01800 <__memory_size+0x4ce2000>
    2ac8:	27010000 	addiu	at,t8,0
    2acc:	80000ccc 	lb	zero,3276(zero)
    2ad0:	00000048 	0x48
    2ad4:	00e79c01 	0xe79c01
    2ad8:	2b070000 	slti	a3,t8,0
    2adc:	01000009 	jalr	zero,t0
    2ae0:	0000e727 	0xe727
    2ae4:	00031100 	sll	v0,v1,0x4
    2ae8:	090b0700 	j	42c1c00 <__memory_size+0x42a2400>
    2aec:	27010000 	addiu	at,t8,0
    2af0:	000000e7 	0xe7
    2af4:	0000032f 	0x32f
    2af8:	00706f08 	0x706f08
    2afc:	00642901 	0x642901
    2b00:	69010000 	0x69010000
    2b04:	00092409 	0x92409
    2b08:	842a0100 	lh	t2,256(at)
    2b0c:	01000000 	0x1000000
    2b10:	09020952 	j	4082548 <__memory_size+0x4062d48>
    2b14:	2b010000 	slti	at,t8,0
    2b18:	00000084 	0x84
    2b1c:	0a005301 	j	8014c04 <__memory_size+0x7ff5404>
    2b20:	00008404 	0x8404
    2b24:	00860b00 	0x860b00
    2b28:	00f80000 	0xf80000
    2b2c:	000c0000 	sll	zero,t4,0x0
    2b30:	0008f40d 	break	0x8,0x3d0
    2b34:	ed230100 	swc3	$3,256(t1)
    2b38:	0d000000 	jal	4000000 <__memory_size+0x3fe0800>
    2b3c:	00000916 	0x916
    2b40:	00ed2401 	0xed2401
    2b44:	c1000000 	ll	zero,0(t0)
    2b48:	02000000 	0x2000000
    2b4c:	000b3900 	sll	a3,t3,0x4
    2b50:	6b010400 	0x6b010400
    2b54:	2000000b 	addi	zero,zero,11
    2b58:	2f000000 	sltiu	zero,t8,0
    2b5c:	72657375 	q16slr	xr13,xr12,xr5,xr9,9
    2b60:	70696d2f 	0x70696d2f
    2b64:	74777373 	jalx	1ddcdcc <__memory_size+0x1dbd5cc>
    2b68:	7469672f 	jalx	1a59cbc <__memory_size+0x1a3a4bc>
    2b6c:	77656e2f 	jalx	d95b8bc <__memory_size+0xd93c0bc>
    2b70:	2f62696c 	sltiu	v0,k1,26988
    2b74:	6762696c 	0x6762696c
    2b78:	73736f6c 	s16ldi	xr13,k1,438,ptn2
    2b7c:	70696d2f 	0x70696d2f
    2b80:	61682f73 	0x61682f73
    2b84:	696c2f6c 	0x696c2f6c
    2b88:	696d2f62 	0x696d2f62
    2b8c:	6d2f7370 	0x6d2f7370
    2b90:	5f737069 	0x5f737069
    2b94:	70637865 	s8sdi	xr1,v1,-34,ptn0
    2b98:	6e655f74 	0x6e655f74
    2b9c:	2e797274 	sltiu	t9,s3,29300
    2ba0:	752f0053 	jalx	4bc014c <__memory_size+0x4ba094c>
    2ba4:	2f726573 	sltiu	s2,k1,25971
    2ba8:	7370696d 	s16sdi	xr5,k1,52,
    2bac:	2f747773 	sltiu	s4,k1,30579
    2bb0:	6c697562 	0x6c697562
    2bb4:	30322d64 	andi	s2,at,0x2d64
    2bb8:	302e3531 	andi	t6,at,0x3531
    2bbc:	35302d36 	ori	s0,t1,0x2d36
    2bc0:	6a626f2f 	0x6a626f2f
    2bc4:	70696d2d 	s16sdi	xr4,v1,182,ptn1
    2bc8:	746d2d73 	jalx	1b4b5cc <__memory_size+0x1b2bdcc>
    2bcc:	6c652d69 	0x6c652d69
    2bd0:	656e2f66 	0x656e2f66
    2bd4:	62696c77 	0x62696c77
    2bd8:	70696d2f 	0x70696d2f
    2bdc:	746d2d73 	jalx	1b4b5cc <__memory_size+0x1b2bdcc>
    2be0:	6c652d69 	0x6c652d69
    2be4:	6c652f66 	0x6c652f66
    2be8:	666f732f 	0x666f732f
    2bec:	62696c2f 	0x62696c2f
    2bf0:	736f6c67 	0x736f6c67
    2bf4:	696d2f73 	0x696d2f73
    2bf8:	47007370 	bz.b	$w0,1f9bc <__memory_size+0x1bc>
    2bfc:	4120554e 	0x4120554e
    2c00:	2e322053 	sltiu	s2,s1,8275
    2c04:	392e3432 	xori	t6,t1,0x3432
    2c08:	80010030 	lb	at,48(zero)
    2c0c:	00000b71 	tgeu	zero,zero,0x2d
    2c10:	0b4b0004 	j	d2c0010 <__memory_size+0xd2a0810>
    2c14:	01040000 	0x1040000
    2c18:	00000780 	sll	zero,zero,0x1e
    2c1c:	000a2201 	0xa2201
    2c20:	000d1400 	sll	v0,t5,0x10
    2c24:	0007a480 	sll	s4,a3,0x12
    2c28:	000c7300 	sll	t6,t4,0xc
    2c2c:	06e50200 	0x6e50200
    2c30:	d4020000 	ldc1	$f2,0(zero)
    2c34:	0000002c 	0x2c
    2c38:	fd070403 	sdc3	$7,1027(t0)
    2c3c:	04000000 	bltz	zero,2c40 <__isr_vec_space+0x2c20>
    2c40:	6e690504 	0x6e690504
    2c44:	04030074 	bgezl	zero,2e18 <__isr_vec_space+0x2df8>
    2c48:	00017805 	lsa	t7,zero,at,0x1
    2c4c:	06010300 	bgez	s0,3850 <__isr_vec_space+0x3830>
    2c50:	00000085 	lsa	zero,zero,zero,0x3
    2c54:	83080103 	lb	t0,259(t8)
    2c58:	03000000 	0x3000000
    2c5c:	01900502 	0x1900502
    2c60:	02030000 	0x2030000
    2c64:	00009a07 	0x9a07
    2c68:	08660200 	j	1980800 <__memory_size+0x1961000>
    2c6c:	37030000 	ori	v1,t8,0x0
    2c70:	0000003a 	0x3a
    2c74:	0009a102 	srl	s4,t1,0x4
    2c78:	2c380300 	sltiu	t8,at,768
    2c7c:	03000000 	0x3000000
    2c80:	01730508 	0x1730508
    2c84:	08030000 	j	c0000 <__memory_size+0xa0800>
    2c88:	0000f807 	srav	ra,zero,zero
    2c8c:	07040300 	0x7040300
    2c90:	00000102 	srl	zero,zero,0x4
    2c94:	1e070403 	0x1e070403
    2c98:	03000001 	movf	zero,t8,$fcc0
    2c9c:	008c0801 	movf	at,a0,$fcc3
    2ca0:	04050000 	0x4050000
    2ca4:	0000009c 	0x9c
    2ca8:	00008f06 	0x8f06
    2cac:	a7040500 	sh	a0,1280(t8)
    2cb0:	07000000 	bltz	t8,2cb4 <__isr_vec_space+0x2c94>
    2cb4:	0009d308 	0x9d308
    2cb8:	03810400 	0x3810400
    2cbc:	00000081 	0x81
    2cc0:	0009d208 	0x9d208
    2cc4:	03820400 	0x3820400
    2cc8:	00000033 	tltu	zero,zero
    2ccc:	00086802 	srl	t5,t0,0x0
    2cd0:	5d410500 	0x5d410500
    2cd4:	02000000 	0x2000000
    2cd8:	000009a3 	0x9a3
    2cdc:	00684205 	0x684205
    2ce0:	7c090000 	ext	t1,zero,0x0,0x1
    2ce4:	0153ec06 	0x153ec06
    2ce8:	610a0000 	0x610a0000
    2cec:	ee060074 	swc3	$6,116(s0)
    2cf0:	000000a8 	0xa8
    2cf4:	00760a00 	0x760a00
    2cf8:	0153ef06 	0x153ef06
    2cfc:	0a040000 	j	8100000 <__memory_size+0x80e0800>
    2d00:	f4060061 	sdc1	$f6,97(zero)
    2d04:	00000163 	0x163
    2d08:	00740a0c 	syscall	0x1d028
    2d0c:	0173f506 	0x173f506
    2d10:	0a1c0000 	j	8700000 <__memory_size+0x86e0800>
    2d14:	f7060073 	sdc1	$f6,115(t8)
    2d18:	00000173 	tltu	zero,zero,0x5
    2d1c:	32740a3c 	andi	s4,s3,0xa3c
    2d20:	53f80600 	beql	ra,t8,4524 <__isr_vec_space+0x4504>
    2d24:	5c000001 	bgtzl	zero,2d2c <__isr_vec_space+0x2d0c>
    2d28:	06006b0a 	bltz	s0,1d954 <__isr_vec_space+0x1d934>
    2d2c:	000153f9 	0x153f9
    2d30:	670a6400 	0x670a6400
    2d34:	fa060070 	sdc2	$6,112(s0)
    2d38:	000000a8 	0xa8
    2d3c:	70730a6c 	s16ldi	xr9,v1,388,ptn2
    2d40:	a8fb0600 	swl	k1,1536(a3)
    2d44:	70000000 	madd	zero,zero
    2d48:	0070660a 	0x70660a
    2d4c:	00a8fc06 	0xa8fc06
    2d50:	0a740000 	j	9d00000 <__memory_size+0x9ce0800>
    2d54:	06006172 	bltz	s0,1b320 <__isr_vec_space+0x1b300>
    2d58:	0000a8fd 	0xa8fd
    2d5c:	0b007800 	j	c01e000 <__memory_size+0xbffe800>
    2d60:	000000a8 	0xa8
    2d64:	00000163 	0x163
    2d68:	0000880c 	syscall	0x220
    2d6c:	0b000100 	j	c000400 <__memory_size+0xbfe0c00>
    2d70:	000000a8 	0xa8
    2d74:	00000173 	tltu	zero,zero,0x5
    2d78:	0000880c 	syscall	0x220
    2d7c:	0b000300 	j	c000c00 <__memory_size+0xbfe1400>
    2d80:	000000a8 	0xa8
    2d84:	00000183 	sra	zero,zero,0x6
    2d88:	0000880c 	syscall	0x220
    2d8c:	0d000700 	jal	4001c00 <__memory_size+0x3fe2400>
    2d90:	9aea067c 	lwr	t2,1660(s7)
    2d94:	0e000001 	jal	8000004 <__memory_size+0x7fe0804>
    2d98:	000000d6 	0xd6
    2d9c:	0600720f 	bltz	s0,1f5dc <__isr_vec_space+0x1f5bc>
    2da0:	00019aff 	0x19aff
    2da4:	a80b0000 	swl	t3,0(zero)
    2da8:	aa000000 	swl	zero,0(s0)
    2dac:	0c000001 	jal	4 <ABIFlags_gpr_size>
    2db0:	00000088 	0x88
    2db4:	bd10001e 	cache	0x10,30(t0)
    2db8:	a0000009 	sb	zero,9(zero)
    2dbc:	0230e806 	srlv	sp,s0,s1
    2dc0:	83110000 	lb	s1,0(t8)
    2dc4:	00000001 	movf	zero,zero,$fcc0
    2dc8:	63706512 	0x63706512
    2dcc:	01020600 	0x1020600
    2dd0:	000000a8 	0xa8
    2dd4:	09c3137c 	j	70c4df0 <__memory_size+0x70a55f0>
    2dd8:	03060000 	0x3060000
    2ddc:	0000a801 	movf	s5,zero,$fcc0
    2de0:	68128000 	0x68128000
    2de4:	04060069 	0x4060069
    2de8:	0000a801 	movf	s5,zero,$fcc0
    2dec:	6c128400 	0x6c128400
    2df0:	0506006f 	0x506006f
    2df4:	0000a801 	movf	s5,zero,$fcc0
    2df8:	ac138800 	sw	s3,-30720(zero)
    2dfc:	06000009 	bltz	s0,2e24 <__isr_vec_space+0x2e04>
    2e00:	02570107 	0x2570107
    2e04:	138c0000 	beq	gp,t4,2e08 <__isr_vec_space+0x2de8>
    2e08:	00000a08 	0xa08
    2e0c:	cb010a06 	lwc2	$1,2566(t8)
    2e10:	90000000 	lbu	zero,0(zero)
    2e14:	00096b13 	0x96b13
    2e18:	010c0600 	0x10c0600
    2e1c:	000000cb 	0xcb
    2e20:	0a191394 	j	8644e50 <__memory_size+0x8625650>
    2e24:	0d060000 	jal	4180000 <__memory_size+0x4160800>
    2e28:	0000cb01 	0xcb01
    2e2c:	0f139800 	jal	c4e6000 <__memory_size+0xc4c6800>
    2e30:	0600000a 	bltz	s0,2e5c <__isr_vec_space+0x2e3c>
    2e34:	00cb010e 	0xcb010e
    2e38:	009c0000 	0x9c0000
    2e3c:	00099914 	0x99914
    2e40:	11060800 	beq	t0,a2,4e44 <__isr_vec_space+0x4e24>
    2e44:	00025701 	0x25701
    2e48:	64691200 	0x64691200
    2e4c:	01130600 	0x1130600
    2e50:	000000a8 	0xa8
    2e54:	053e1300 	0x53e1300
    2e58:	14060000 	bne	zero,a2,2e5c <__isr_vec_space+0x2e3c>
    2e5c:	00025701 	0x25701
    2e60:	05000400 	bltz	t0,3e64 <__isr_vec_space+0x3e44>
    2e64:	00023004 	sllv	a2,v0,zero
    2e68:	04080300 	tgei	zero,768
    2e6c:	0000098c 	syscall	0x26
    2e70:	cc040403 	pref	0x4,1027(zero)
    2e74:	15000009 	bnez	t0,2e9c <__isr_vec_space+0x2e7c>
    2e78:	000009f9 	0x9f9
    2e7c:	c5013101 	lwc1	$f1,12545(t0)
    2e80:	16000002 	bnez	s0,2e8c <__isr_vec_space+0x2e6c>
    2e84:	00657270 	tge	v1,a1,0x1c9
    2e88:	00963101 	0x963101
    2e8c:	93170000 	lbu	s7,0(t8)
    2e90:	01000005 	lsa	zero,t0,zero,0x1
    2e94:	0000a831 	tgeu	zero,zero,0x2a0
    2e98:	0a011700 	j	8045c00 <__memory_size+0x8026400>
    2e9c:	31010000 	andi	at,t0,0x0
    2ea0:	00000033 	tltu	zero,zero
    2ea4:	0009b817 	0x9b817
    2ea8:	96310100 	lhu	s1,256(s1)
    2eac:	18000000 	blez	zero,2eb0 <__isr_vec_space+0x2e90>
    2eb0:	00667562 	0x667562
    2eb4:	02c53301 	0x2c53301
    2eb8:	93190000 	lbu	t9,0(t8)
    2ebc:	01000009 	jalr	zero,t0
    2ec0:	00003334 	teq	zero,zero,0xcc
    2ec4:	64691800 	0x64691800
    2ec8:	35010078 	ori	at,t0,0x78
    2ecc:	00000033 	tltu	zero,zero
    2ed0:	008f0b00 	0x8f0b00
    2ed4:	02d40000 	0x2d40000
    2ed8:	881a0000 	lwl	k0,0(zero)
    2edc:	00000000 	nop
    2ee0:	00026b1b 	0x26b1b
    2ee4:	000d1400 	sll	v0,t5,0x10
    2ee8:	0000c080 	sll	t8,zero,0x2
    2eec:	9c9c0100 	0x9c9c0100
    2ef0:	1c000003 	bgtz	zero,2f00 <__isr_vec_space+0x2ee0>
    2ef4:	00000277 	0x277
    2ef8:	0000034d 	break	0x0,0xd
    2efc:	0002821c 	0x2821c
    2f00:	00037900 	sll	t7,v1,0x4
    2f04:	02981c00 	0x2981c00
    2f08:	03a50000 	0x3a50000
    2f0c:	a31d0000 	sb	sp,0(t8)
    2f10:	9c000002 	0x9c000002
    2f14:	d1000003 	0xd1000003
    2f18:	1e000003 	bgtz	s0,2f28 <__isr_vec_space+0x2f08>
    2f1c:	000002ae 	0x2ae
    2f20:	00000409 	jalr.hb	zero,zero
    2f24:	0002b91e 	0x2b91e
    2f28:	00044d00 	sll	t1,a0,0x14
    2f2c:	028d1f00 	0x28d1f00
    2f30:	20080000 	addi	t0,zero,0
    2f34:	80000d40 	lb	zero,3392(zero)
    2f38:	00000af1 	tgeu	zero,zero,0x2b
    2f3c:	0000033b 	0x33b
    2f40:	02540121 	0x2540121
    2f44:	20000081 	addi	zero,zero,129
    2f48:	80000d50 	lb	zero,3408(zero)
    2f4c:	00000b06 	0xb06
    2f50:	00000354 	0x354
    2f54:	02550121 	0x2550121
    2f58:	01210081 	0x1210081
    2f5c:	00310154 	0x310154
    2f60:	000d9c20 	0xd9c20
    2f64:	000b0680 	sll	zero,t3,0x1a
    2f68:	00037200 	sll	t6,v1,0x8
    2f6c:	56012100 	bnel	s0,at,b370 <__isr_vec_space+0xb350>
    2f70:	01213801 	movt	a3,t1,$fcc0
    2f74:	68910255 	0x68910255
    2f78:	01540121 	0x1540121
    2f7c:	ac200031 	sw	zero,49(at)
    2f80:	f180000d 	0xf180000d
    2f84:	8600000a 	lh	zero,10(s0)
    2f88:	21000003 	addi	zero,t0,3
    2f8c:	80025401 	lb	v0,21505(zero)
    2f90:	bc220000 	cache	0x2,0(at)
    2f94:	0680000d 	bltz	s4,2fcc <__isr_vec_space+0x2fac>
    2f98:	2100000b 	addi	zero,t0,11
    2f9c:	80025501 	lb	v0,21761(zero)
    2fa0:	54012100 	bnel	zero,at,b3a4 <__isr_vec_space+0xb384>
    2fa4:	00003101 	0x3101
    2fa8:	00008f0b 	0x8f0b
    2fac:	0003ad00 	sll	s5,v1,0x14
    2fb0:	00882300 	0x882300
    2fb4:	37010000 	ori	at,t8,0x0
    2fb8:	09432400 	j	50c9000 <__memory_size+0x50a9800>
    2fbc:	43010000 	c0	0x1010000
    2fc0:	80000dd4 	lb	zero,3540(zero)
    2fc4:	00000008 	jr	zero
    2fc8:	040f9c01 	0x40f9c01
    2fcc:	70250000 	madd	at,a1
    2fd0:	01006572 	tlt	t0,zero,0x195
    2fd4:	00009643 	sra	s2,zero,0x19
    2fd8:	00046c00 	sll	t5,a0,0x10
    2fdc:	05932600 	bgezall	t4,c7e0 <__isr_vec_space+0xc7c0>
    2fe0:	43010000 	c0	0x1010000
    2fe4:	000000a8 	0xa8
    2fe8:	0000048d 	break	0x0,0x12
    2fec:	0009b826 	xor	s7,zero,t1
    2ff0:	96430100 	lhu	v1,256(s2)
    2ff4:	ae000000 	sw	zero,0(s0)
    2ff8:	27000004 	addiu	zero,t8,4
    2ffc:	80000ddc 	lb	zero,3548(zero)
    3000:	000002d4 	0x2d4
    3004:	03560121 	0x3560121
    3008:	215601f3 	addi	s6,t2,499
    300c:	f3035501 	0xf3035501
    3010:	01215501 	0x1215501
    3014:	01f30354 	0x1f30354
    3018:	28000054 	slti	zero,zero,84
    301c:	00000971 	tgeu	zero,zero,0x25
    3020:	0ddc5901 	jal	7716404 <__memory_size+0x76f6c04>
    3024:	06dc8000 	0x6dc8000
    3028:	9c010000 	0x9c010000
    302c:	00000aca 	0xaca
    3030:	78746325 	st.h	$w12,232(t4)
    3034:	ca590100 	lwc2	$25,256(s2)
    3038:	cf00000a 	pref	0x0,10(t8)
    303c:	26000004 	addiu	zero,s0,4
    3040:	00000060 	0x60
    3044:	00335901 	0x335901
    3048:	07a50000 	0x7a50000
    304c:	c0290000 	ll	t1,0(at)
    3050:	0480000f 	bltz	a0,3090 <__isr_vec_space+0x3070>
    3054:	5f000000 	bgtzl	t8,3058 <__isr_vec_space+0x3038>
    3058:	2a000004 	slti	zero,s0,4
    305c:	00725f5f 	0x725f5f
    3060:	0081b201 	0x81b201
    3064:	09ec0000 	j	7b00000 <__memory_size+0x7ae0800>
    3068:	29000000 	slti	zero,t0,0
    306c:	80000fd0 	lb	zero,4048(zero)
    3070:	00000004 	sllv	zero,zero,zero
    3074:	0000047c 	0x47c
    3078:	725f5f2a 	s16ldd	xr12,s2,-82,ptn3
    307c:	81b30100 	lb	s3,256(t5)
    3080:	ff000000 	sdc3	$0,0(t8)
    3084:	00000009 	jalr	zero,zero
    3088:	000fe429 	0xfe429
    308c:	00002080 	sll	a0,zero,0x2
    3090:	0004c200 	sll	t8,a0,0x8
    3094:	72731800 	madd	$ac3,s3,s3
    3098:	81b50100 	lb	s5,256(t5)
    309c:	29000000 	slti	zero,t0,0
    30a0:	80000fe4 	lb	zero,4068(zero)
    30a4:	00000004 	sllv	zero,zero,zero
    30a8:	000004ac 	0x4ac
    30ac:	725f5f18 	udi8	s2,ra,t3,0x1c
    30b0:	81b50100 	lb	s5,256(t5)
    30b4:	00000000 	nop
    30b8:	000ff82b 	sltu	ra,zero,t7
    30bc:	00000480 	sll	zero,zero,0x12
    30c0:	5f5f1800 	0x5f5f1800
    30c4:	b8010072 	swr	at,114(zero)
    30c8:	00000081 	0x81
    30cc:	24290000 	addiu	t1,at,0
    30d0:	04800010 	bltz	a0,3114 <__isr_vec_space+0x30f4>
    30d4:	df000000 	ldc3	$0,0(t8)
    30d8:	2a000004 	slti	zero,s0,4
    30dc:	00725f5f 	0x725f5f
    30e0:	0081c201 	0x81c201
    30e4:	0a120000 	j	8480000 <__memory_size+0x8460800>
    30e8:	29000000 	slti	zero,t0,0
    30ec:	80001034 	lb	zero,4148(zero)
    30f0:	00000004 	sllv	zero,zero,zero
    30f4:	000004fc 	0x4fc
    30f8:	725f5f2a 	s16ldd	xr12,s2,-82,ptn3
    30fc:	81c30100 	lb	v1,256(t6)
    3100:	25000000 	addiu	zero,t0,0
    3104:	0000000a 	movz	zero,zero,zero
    3108:	00104829 	0x104829
    310c:	00002080 	sll	a0,zero,0x2
    3110:	00054200 	sll	t0,a1,0x8
    3114:	72731800 	madd	$ac3,s3,s3
    3118:	81c50100 	lb	a1,256(t6)
    311c:	29000000 	slti	zero,t0,0
    3120:	80001048 	lb	zero,4168(zero)
    3124:	00000004 	sllv	zero,zero,zero
    3128:	0000052c 	0x52c
    312c:	725f5f18 	udi8	s2,ra,t3,0x1c
    3130:	81c50100 	lb	a1,256(t6)
    3134:	00000000 	nop
    3138:	00105c2b 	0x105c2b
    313c:	00000480 	sll	zero,zero,0x12
    3140:	5f5f1800 	0x5f5f1800
    3144:	c8010072 	lwc2	$1,114(zero)
    3148:	00000081 	0x81
    314c:	58200000 	blezl	at,3150 <__isr_vec_space+0x3130>
    3150:	ad80000e 	sw	zero,14(t4)
    3154:	55000003 	bnezl	t0,3164 <__isr_vec_space+0x3144>
    3158:	21000005 	addi	zero,t0,5
    315c:	30015601 	andi	at,zero,0x5601
    3160:	0e882c00 	jal	a20b000 <__memory_size+0xa1eb800>
    3164:	0b068000 	j	c1a0000 <__memory_size+0xc180800>
    3168:	e82c0000 	swc2	$12,0(at)
    316c:	0680000e 	bltz	s4,31a8 <__isr_vec_space+0x3188>
    3170:	2000000b 	addi	zero,zero,11
    3174:	80000f28 	lb	zero,3880(zero)
    3178:	00000b25 	0xb25
    317c:	0000057b 	0x57b
    3180:	02540121 	0x2540121
    3184:	2c000080 	sltiu	zero,zero,128
    3188:	80000f4c 	lb	zero,3916(zero)
    318c:	00000b3b 	0xb3b
    3190:	000f5c20 	0xf5c20
    3194:	000b4780 	sll	t0,t3,0x1e
    3198:	00059800 	sll	s3,a1,0x0
    319c:	54012100 	bnel	zero,at,b5a0 <__isr_vec_space+0xb580>
    31a0:	00008002 	srl	s0,zero,0x0
    31a4:	00116420 	0x116420
    31a8:	0003ad80 	sll	s5,v1,0x16
    31ac:	0005af00 	sll	s5,a1,0x1c
    31b0:	56012100 	bnel	s0,at,b5b4 <__isr_vec_space+0xb594>
    31b4:	1e0c0305 	0x1e0c0305
    31b8:	20008000 	addi	zero,zero,-32768
    31bc:	80001180 	lb	zero,4480(zero)
    31c0:	000003ad 	0x3ad
    31c4:	000005d4 	0x5d4
    31c8:	05560121 	0x5560121
    31cc:	001e4003 	sra	t0,s8,0x0
    31d0:	55012180 	bnel	t0,at,b7d4 <__isr_vec_space+0xb7b4>
    31d4:	01213001 	movt	a2,t1,$fcc0
    31d8:	38030554 	xori	v1,zero,0x554
    31dc:	0080001e 	0x80001e
    31e0:	00119420 	0x119420
    31e4:	0003ad80 	sll	s5,v1,0x16
    31e8:	0005f400 	sll	s8,a1,0x10
    31ec:	56012100 	bnel	s0,at,b5f0 <__isr_vec_space+0xb5d0>
    31f0:	1e400305 	bgtz	s2,3e08 <__isr_vec_space+0x3de8>
    31f4:	01218000 	0x1218000
    31f8:	44030554 	0x44030554
    31fc:	0080001e 	0x80001e
    3200:	0011a820 	add	s5,zero,s1
    3204:	0003ad80 	sll	s5,v1,0x16
    3208:	00061400 	sll	v0,a2,0x10
    320c:	56012100 	bnel	s0,at,b610 <__isr_vec_space+0xb5f0>
    3210:	1e400305 	bgtz	s2,3e28 <__isr_vec_space+0x3e08>
    3214:	01218000 	0x1218000
    3218:	4c030554 	0x4c030554
    321c:	0080001e 	0x80001e
    3220:	0011bc20 	0x11bc20
    3224:	0003ad80 	sll	s5,v1,0x16
    3228:	00063400 	sll	a2,a2,0x10
    322c:	56012100 	bnel	s0,at,b630 <__isr_vec_space+0xb610>
    3230:	1e0c0305 	0x1e0c0305
    3234:	01218000 	0x1218000
    3238:	54030554 	bnel	zero,v1,478c <__isr_vec_space+0x476c>
    323c:	0080001e 	0x80001e
    3240:	0011d020 	add	k0,zero,s1
    3244:	0003ad80 	sll	s5,v1,0x16
    3248:	00065400 	sll	t2,a2,0x10
    324c:	56012100 	bnel	s0,at,b650 <__isr_vec_space+0xb630>
    3250:	1e400305 	bgtz	s2,3e68 <__isr_vec_space+0x3e48>
    3254:	01218000 	0x1218000
    3258:	5c030554 	0x5c030554
    325c:	0080001e 	0x80001e
    3260:	0011e420 	0x11e420
    3264:	0003ad80 	sll	s5,v1,0x16
    3268:	00067400 	sll	t6,a2,0x10
    326c:	56012100 	bnel	s0,at,b670 <__isr_vec_space+0xb650>
    3270:	1e400305 	bgtz	s2,3e88 <__isr_vec_space+0x3e68>
    3274:	01218000 	0x1218000
    3278:	64030554 	0x64030554
    327c:	0080001e 	0x80001e
    3280:	0011f820 	add	ra,zero,s1
    3284:	0003ad80 	sll	s5,v1,0x16
    3288:	00069400 	sll	s2,a2,0x10
    328c:	56012100 	bnel	s0,at,b690 <__isr_vec_space+0xb670>
    3290:	1e400305 	bgtz	s2,3ea8 <__isr_vec_space+0x3e88>
    3294:	01218000 	0x1218000
    3298:	6c030554 	0x6c030554
    329c:	0080001e 	0x80001e
    32a0:	00120c20 	0x120c20
    32a4:	0003ad80 	sll	s5,v1,0x16
    32a8:	0006b400 	sll	s6,a2,0x10
    32ac:	56012100 	bnel	s0,at,b6b0 <__isr_vec_space+0xb690>
    32b0:	1e0c0305 	0x1e0c0305
    32b4:	01218000 	0x1218000
    32b8:	74030554 	jalx	c1550 <__memory_size+0xa1d50>
    32bc:	0080001e 	0x80001e
    32c0:	00122020 	add	a0,zero,s2
    32c4:	0003ad80 	sll	s5,v1,0x16
    32c8:	0006d400 	sll	k0,a2,0x10
    32cc:	56012100 	bnel	s0,at,b6d0 <__isr_vec_space+0xb6b0>
    32d0:	1e400305 	bgtz	s2,3ee8 <__isr_vec_space+0x3ec8>
    32d4:	01218000 	0x1218000
    32d8:	7c030554 	0x7c030554
    32dc:	0080001e 	0x80001e
    32e0:	00123420 	0x123420
    32e4:	0003ad80 	sll	s5,v1,0x16
    32e8:	0006f400 	sll	s8,a2,0x10
    32ec:	56012100 	bnel	s0,at,b6f0 <__isr_vec_space+0xb6d0>
    32f0:	1e400305 	bgtz	s2,3f08 <__isr_vec_space+0x3ee8>
    32f4:	01218000 	0x1218000
    32f8:	84030554 	lh	v1,1364(zero)
    32fc:	0080001e 	0x80001e
    3300:	00124820 	add	t1,zero,s2
    3304:	0003ad80 	sll	s5,v1,0x16
    3308:	00071400 	sll	v0,a3,0x10
    330c:	56012100 	bnel	s0,at,b710 <__isr_vec_space+0xb6f0>
    3310:	1e400305 	bgtz	s2,3f28 <__isr_vec_space+0x3f08>
    3314:	01218000 	0x1218000
    3318:	8c030554 	lw	v1,1364(zero)
    331c:	0080001e 	0x80001e
    3320:	00125c20 	0x125c20
    3324:	0003ad80 	sll	s5,v1,0x16
    3328:	00073400 	sll	a2,a3,0x10
    332c:	56012100 	bnel	s0,at,b730 <__isr_vec_space+0xb710>
    3330:	1e0c0305 	0x1e0c0305
    3334:	01218000 	0x1218000
    3338:	94030554 	lhu	v1,1364(zero)
    333c:	0080001e 	0x80001e
    3340:	00127020 	add	t6,zero,s2
    3344:	0003ad80 	sll	s5,v1,0x16
    3348:	00075400 	sll	t2,a3,0x10
    334c:	56012100 	bnel	s0,at,b750 <__isr_vec_space+0xb730>
    3350:	1e400305 	bgtz	s2,3f68 <__isr_vec_space+0x3f48>
    3354:	01218000 	0x1218000
    3358:	9c030554 	0x9c030554
    335c:	0080001e 	0x80001e
    3360:	00128420 	0x128420
    3364:	0003ad80 	sll	s5,v1,0x16
    3368:	00077400 	sll	t6,a3,0x10
    336c:	56012100 	bnel	s0,at,b770 <__isr_vec_space+0xb750>
    3370:	1e400305 	bgtz	s2,3f88 <__isr_vec_space+0x3f68>
    3374:	01218000 	0x1218000
    3378:	a4030554 	sh	v1,1364(zero)
    337c:	0080001e 	0x80001e
    3380:	00129820 	add	s3,zero,s2
    3384:	0003ad80 	sll	s5,v1,0x16
    3388:	00079400 	sll	s2,a3,0x10
    338c:	56012100 	bnel	s0,at,b790 <__isr_vec_space+0xb770>
    3390:	1e400305 	bgtz	s2,3fa8 <__isr_vec_space+0x3f88>
    3394:	01218000 	0x1218000
    3398:	ac030554 	sw	v1,1364(zero)
    339c:	0080001e 	0x80001e
    33a0:	0012ac20 	0x12ac20
    33a4:	0003ad80 	sll	s5,v1,0x16
    33a8:	0007b400 	sll	s6,a3,0x10
    33ac:	56012100 	bnel	s0,at,b7b0 <__isr_vec_space+0xb790>
    33b0:	1e0c0305 	0x1e0c0305
    33b4:	01218000 	0x1218000
    33b8:	b4030554 	0xb4030554
    33bc:	0080001e 	0x80001e
    33c0:	0012c020 	add	t8,zero,s2
    33c4:	0003ad80 	sll	s5,v1,0x16
    33c8:	0007d400 	sll	k0,a3,0x10
    33cc:	56012100 	bnel	s0,at,b7d0 <__isr_vec_space+0xb7b0>
    33d0:	1e400305 	bgtz	s2,3fe8 <__isr_vec_space+0x3fc8>
    33d4:	01218000 	0x1218000
    33d8:	bc030554 	cache	0x3,1364(zero)
    33dc:	0080001e 	0x80001e
    33e0:	0012d420 	0x12d420
    33e4:	0003ad80 	sll	s5,v1,0x16
    33e8:	0007f400 	sll	s8,a3,0x10
    33ec:	56012100 	bnel	s0,at,b7f0 <__isr_vec_space+0xb7d0>
    33f0:	1e400305 	bgtz	s2,4008 <__isr_vec_space+0x3fe8>
    33f4:	01218000 	0x1218000
    33f8:	c4030554 	lwc1	$f3,1364(zero)
    33fc:	0080001e 	0x80001e
    3400:	0012e820 	add	sp,zero,s2
    3404:	0003ad80 	sll	s5,v1,0x16
    3408:	00081400 	sll	v0,t0,0x10
    340c:	56012100 	bnel	s0,at,b810 <__isr_vec_space+0xb7f0>
    3410:	1e400305 	bgtz	s2,4028 <__isr_vec_space+0x4008>
    3414:	01218000 	0x1218000
    3418:	cc030554 	pref	0x3,1364(zero)
    341c:	0080001e 	0x80001e
    3420:	0012fc20 	0x12fc20
    3424:	0003ad80 	sll	s5,v1,0x16
    3428:	00083400 	sll	a2,t0,0x10
    342c:	56012100 	bnel	s0,at,b830 <__isr_vec_space+0xb810>
    3430:	1e0c0305 	0x1e0c0305
    3434:	01218000 	0x1218000
    3438:	d4030554 	ldc1	$f3,1364(zero)
    343c:	0080001e 	0x80001e
    3440:	00131020 	add	v0,zero,s3
    3444:	0003ad80 	sll	s5,v1,0x16
    3448:	00085400 	sll	t2,t0,0x10
    344c:	56012100 	bnel	s0,at,b850 <__isr_vec_space+0xb830>
    3450:	1e400305 	bgtz	s2,4068 <__isr_vec_space+0x4048>
    3454:	01218000 	0x1218000
    3458:	dc030554 	ldc3	$3,1364(zero)
    345c:	0080001e 	0x80001e
    3460:	00132420 	0x132420
    3464:	0003ad80 	sll	s5,v1,0x16
    3468:	00087400 	sll	t6,t0,0x10
    346c:	56012100 	bnel	s0,at,b870 <__isr_vec_space+0xb850>
    3470:	1e400305 	bgtz	s2,4088 <__isr_vec_space+0x4068>
    3474:	01218000 	0x1218000
    3478:	e4030554 	swc1	$f3,1364(zero)
    347c:	0080001e 	0x80001e
    3480:	00133820 	add	a3,zero,s3
    3484:	0003ad80 	sll	s5,v1,0x16
    3488:	00089400 	sll	s2,t0,0x10
    348c:	56012100 	bnel	s0,at,b890 <__isr_vec_space+0xb870>
    3490:	1e400305 	bgtz	s2,40a8 <__isr_vec_space+0x4088>
    3494:	01218000 	0x1218000
    3498:	ec030554 	swc3	$3,1364(zero)
    349c:	0080001e 	0x80001e
    34a0:	00134c20 	0x134c20
    34a4:	0003ad80 	sll	s5,v1,0x16
    34a8:	0008b400 	sll	s6,t0,0x10
    34ac:	56012100 	bnel	s0,at,b8b0 <__isr_vec_space+0xb890>
    34b0:	1e0c0305 	0x1e0c0305
    34b4:	01218000 	0x1218000
    34b8:	f4030554 	sdc1	$f3,1364(zero)
    34bc:	0080001e 	0x80001e
    34c0:	00136020 	add	t4,zero,s3
    34c4:	0003ad80 	sll	s5,v1,0x16
    34c8:	0008d400 	sll	k0,t0,0x10
    34cc:	56012100 	bnel	s0,at,b8d0 <__isr_vec_space+0xb8b0>
    34d0:	1e400305 	bgtz	s2,40e8 <__isr_vec_space+0x40c8>
    34d4:	01218000 	0x1218000
    34d8:	fc030554 	sdc3	$3,1364(zero)
    34dc:	0080001e 	0x80001e
    34e0:	00137420 	0x137420
    34e4:	0003ad80 	sll	s5,v1,0x16
    34e8:	0008f400 	sll	s8,t0,0x10
    34ec:	56012100 	bnel	s0,at,b8f0 <__isr_vec_space+0xb8d0>
    34f0:	1e400305 	bgtz	s2,4108 <__isr_vec_space+0x40e8>
    34f4:	01218000 	0x1218000
    34f8:	04030554 	bgezl	zero,4a4c <__isr_vec_space+0x4a2c>
    34fc:	0080001f 	0x80001f
    3500:	00138820 	add	s1,zero,s3
    3504:	0003ad80 	sll	s5,v1,0x16
    3508:	00091400 	sll	v0,t1,0x10
    350c:	56012100 	bnel	s0,at,b910 <__isr_vec_space+0xb8f0>
    3510:	1e400305 	bgtz	s2,4128 <__isr_vec_space+0x4108>
    3514:	01218000 	0x1218000
    3518:	0c030554 	jal	c1550 <__memory_size+0xa1d50>
    351c:	0080001f 	0x80001f
    3520:	00139c20 	0x139c20
    3524:	0003ad80 	sll	s5,v1,0x16
    3528:	00093400 	sll	a2,t1,0x10
    352c:	56012100 	bnel	s0,at,b930 <__isr_vec_space+0xb910>
    3530:	1e0c0305 	0x1e0c0305
    3534:	01218000 	0x1218000
    3538:	14030554 	bne	zero,v1,4a8c <__isr_vec_space+0x4a6c>
    353c:	0080001f 	0x80001f
    3540:	0013b020 	add	s6,zero,s3
    3544:	0003ad80 	sll	s5,v1,0x16
    3548:	00095400 	sll	t2,t1,0x10
    354c:	56012100 	bnel	s0,at,b950 <__isr_vec_space+0xb930>
    3550:	1e400305 	bgtz	s2,4168 <__isr_vec_space+0x4148>
    3554:	01218000 	0x1218000
    3558:	1c030554 	0x1c030554
    355c:	0080001f 	0x80001f
    3560:	0013c420 	0x13c420
    3564:	0003ad80 	sll	s5,v1,0x16
    3568:	00097400 	sll	t6,t1,0x10
    356c:	56012100 	bnel	s0,at,b970 <__isr_vec_space+0xb950>
    3570:	1e400305 	bgtz	s2,4188 <__isr_vec_space+0x4168>
    3574:	01218000 	0x1218000
    3578:	24030554 	li	v1,1364
    357c:	0080001f 	0x80001f
    3580:	0013d820 	add	k1,zero,s3
    3584:	0003ad80 	sll	s5,v1,0x16
    3588:	00099400 	sll	s2,t1,0x10
    358c:	56012100 	bnel	s0,at,b990 <__isr_vec_space+0xb970>
    3590:	1e400305 	bgtz	s2,41a8 <__isr_vec_space+0x4188>
    3594:	01218000 	0x1218000
    3598:	2c030554 	sltiu	v1,zero,1364
    359c:	0080001f 	0x80001f
    35a0:	0013ec20 	0x13ec20
    35a4:	0003ad80 	sll	s5,v1,0x16
    35a8:	0009b400 	sll	s6,t1,0x10
    35ac:	56012100 	bnel	s0,at,b9b0 <__isr_vec_space+0xb990>
    35b0:	1e0c0305 	0x1e0c0305
    35b4:	01218000 	0x1218000
    35b8:	34030554 	li	v1,0x554
    35bc:	0080001f 	0x80001f
    35c0:	00140020 	add	zero,zero,s4
    35c4:	0003ad80 	sll	s5,v1,0x16
    35c8:	0009d400 	sll	k0,t1,0x10
    35cc:	56012100 	bnel	s0,at,b9d0 <__isr_vec_space+0xb9b0>
    35d0:	1e400305 	bgtz	s2,41e8 <__isr_vec_space+0x41c8>
    35d4:	01218000 	0x1218000
    35d8:	3c030554 	lui	v1,0x554
    35dc:	0080001f 	0x80001f
    35e0:	00141420 	0x141420
    35e4:	0003ad80 	sll	s5,v1,0x16
    35e8:	0009f400 	sll	s8,t1,0x10
    35ec:	56012100 	bnel	s0,at,b9f0 <__isr_vec_space+0xb9d0>
    35f0:	1e0c0305 	0x1e0c0305
    35f4:	01218000 	0x1218000
    35f8:	44030554 	0x44030554
    35fc:	0080001f 	0x80001f
    3600:	00142820 	add	a1,zero,s4
    3604:	0003ad80 	sll	s5,v1,0x16
    3608:	000a1400 	sll	v0,t2,0x10
    360c:	56012100 	bnel	s0,at,ba10 <__isr_vec_space+0xb9f0>
    3610:	1e0c0305 	0x1e0c0305
    3614:	01218000 	0x1218000
    3618:	4c030554 	0x4c030554
    361c:	0080001f 	0x80001f
    3620:	00143c20 	0x143c20
    3624:	0003ad80 	sll	s5,v1,0x16
    3628:	000a3400 	sll	a2,t2,0x10
    362c:	56012100 	bnel	s0,at,ba30 <__isr_vec_space+0xba10>
    3630:	1e0c0305 	0x1e0c0305
    3634:	01218000 	0x1218000
    3638:	58030554 	0x58030554
    363c:	0080001f 	0x80001f
    3640:	00145020 	add	t2,zero,s4
    3644:	0002d480 	sll	k0,v0,0x12
    3648:	000a5400 	sll	t2,t2,0x10
    364c:	56012100 	bnel	s0,at,ba50 <__isr_vec_space+0xba30>
    3650:	1e0c0305 	0x1e0c0305
    3654:	01218000 	0x1218000
    3658:	64030554 	0x64030554
    365c:	0080001f 	0x80001f
    3660:	00146420 	0x146420
    3664:	0002d480 	sll	k0,v0,0x12
    3668:	000a7400 	sll	t6,t2,0x10
    366c:	56012100 	bnel	s0,at,ba70 <__isr_vec_space+0xba50>
    3670:	1e0c0305 	0x1e0c0305
    3674:	01218000 	0x1218000
    3678:	70030554 	s32ldi	xr5,zero,772
    367c:	0080001f 	0x80001f
    3680:	00147820 	add	t7,zero,s4
    3684:	0002d480 	sll	k0,v0,0x12
    3688:	000a9400 	sll	s2,t2,0x10
    368c:	56012100 	bnel	s0,at,ba90 <__isr_vec_space+0xba70>
    3690:	1e0c0305 	0x1e0c0305
    3694:	01218000 	0x1218000
    3698:	7c030554 	0x7c030554
    369c:	0080001f 	0x80001f
    36a0:	00148c20 	0x148c20
    36a4:	0002d480 	sll	k0,v0,0x12
    36a8:	000ab400 	sll	s6,t2,0x10
    36ac:	56012100 	bnel	s0,at,bab0 <__isr_vec_space+0xba90>
    36b0:	1e0c0305 	0x1e0c0305
    36b4:	01218000 	0x1218000
    36b8:	88030554 	lwl	v1,1364(zero)
    36bc:	0080001f 	0x80001f
    36c0:	00149822 	neg	s3,s4
    36c4:	000b5d80 	sll	t3,t3,0x16
    36c8:	55012100 	bnel	t0,at,bacc <__isr_vec_space+0xbaac>
    36cc:	01213001 	movt	a2,t1,$fcc0
    36d0:	00800254 	0x800254
    36d4:	04050000 	0x4050000
    36d8:	000001aa 	0x1aa
    36dc:	00008f0b 	0x8f0b
    36e0:	000adb00 	sll	k1,t2,0xc
    36e4:	2e002d00 	sltiu	zero,s0,11520
    36e8:	00000855 	0x855
    36ec:	0ad02901 	j	b40a404 <__memory_size+0xb3eac04>
    36f0:	e92e0000 	swc2	$14,0(t1)
    36f4:	01000009 	jalr	zero,t0
    36f8:	000ad02a 	slt	k0,zero,t2
    36fc:	09b12f00 	j	6c4bc00 <__memory_size+0x6c2c400>
    3700:	21070000 	addi	a3,t0,0
    3704:	00000021 	move	zero,zero
    3708:	00000b06 	0xb06
    370c:	00009630 	tge	zero,zero,0x258
    3710:	9b2f0000 	lwr	t7,0(t9)
    3714:	08000004 	j	10 <ABIFlags_flags1>
    3718:	000033bd 	0x33bd
    371c:	000b2500 	sll	a0,t3,0x14
    3720:	00333000 	0x333000
    3724:	a1300000 	sb	s0,0(t1)
    3728:	30000000 	andi	zero,zero,0x0
    372c:	00000021 	move	zero,zero
    3730:	094a3100 	j	528c400 <__memory_size+0x526cc00>
    3734:	92060000 	lbu	a2,0(s0)
    3738:	00003301 	0x3301
    373c:	000b3b00 	sll	a3,t3,0xc
    3740:	0aca3000 	j	b28c000 <__memory_size+0xb26c800>
    3744:	32000000 	andi	zero,s0,0x0
    3748:	000008a7 	0x8a7
    374c:	33019106 	andi	at,t8,0x9106
    3750:	31000000 	andi	zero,t0,0x0
    3754:	0000095c 	0x95c
    3758:	33018706 	andi	at,t8,0x8706
    375c:	5d000000 	bgtzl	t0,3760 <__isr_vec_space+0x3740>
    3760:	3000000b 	andi	zero,zero,0xb
    3764:	00000aca 	0xaca
    3768:	09d93300 	j	764cc00 <__memory_size+0x762d400>
    376c:	8a060000 	lwl	a2,0(s0)
    3770:	0000c001 	movf	t8,zero,$fcc0
    3774:	0aca3000 	j	b28c000 <__memory_size+0xb26c800>
    3778:	c0300000 	ll	s0,0(at)
    377c:	00000000 	nop
    3780:	0000c800 	sll	t9,zero,0x0
    3784:	e0000200 	sc	zero,512(zero)
    3788:	0400000d 	bltz	zero,37c0 <__isr_vec_space+0x37a0>
    378c:	000f2e01 	0xf2e01
    3790:	0014b800 	sll	s7,s4,0x0
    3794:	00156c80 	sll	t5,s5,0x12
    3798:	73752f80 	0x73752f80
    379c:	6d2f7265 	0x6d2f7265
    37a0:	73737069 	0x73737069
    37a4:	672f7477 	0x672f7477
    37a8:	6e2f7469 	0x6e2f7469
    37ac:	696c7765 	0x696c7765
    37b0:	696c2f62 	0x696c2f62
    37b4:	6f6c6762 	0x6f6c6762
    37b8:	6d2f7373 	0x6d2f7373
    37bc:	2f737069 	sltiu	s3,k1,28777
    37c0:	2f6c6168 	sltiu	t4,k1,24936
    37c4:	2f62696c 	sltiu	v0,k1,26988
    37c8:	7370696d 	s16sdi	xr5,k1,52,
    37cc:	70696d2f 	0x70696d2f
    37d0:	78655f73 	0x78655f73
    37d4:	5f747063 	0x5f747063
    37d8:	69676572 	0x69676572
    37dc:	72657473 	d32sar	xr1,xr13,xr5,xr9,9
    37e0:	2f00532e 	sltiu	zero,t8,21294
    37e4:	72657375 	q16slr	xr13,xr12,xr5,xr9,9
    37e8:	70696d2f 	0x70696d2f
    37ec:	74777373 	jalx	1ddcdcc <__memory_size+0x1dbd5cc>
    37f0:	6975622f 	0x6975622f
    37f4:	322d646c 	andi	t5,s1,0x646c
    37f8:	2e353130 	sltiu	s5,s1,12592
    37fc:	302d3630 	andi	t5,at,0x3630
    3800:	626f2f35 	0x626f2f35
    3804:	696d2d6a 	0x696d2d6a
    3808:	6d2d7370 	0x6d2d7370
    380c:	652d6974 	0x652d6974
    3810:	6e2f666c 	0x6e2f666c
    3814:	696c7765 	0x696c7765
    3818:	696d2f62 	0x696d2f62
    381c:	6d2d7370 	0x6d2d7370
    3820:	652d6974 	0x652d6974
    3824:	652f666c 	0x652f666c
    3828:	6f732f6c 	0x6f732f6c
    382c:	696c2f66 	0x696c2f66
    3830:	6f6c6762 	0x6f6c6762
    3834:	6d2f7373 	0x6d2f7373
    3838:	00737069 	0x737069
    383c:	20554e47 	addi	s5,v0,20039
    3840:	32205341 	andi	zero,s1,0x5341
    3844:	2e34322e 	sltiu	s4,s1,12846
    3848:	01003039 	0x1003039
    384c:	0000c480 	sll	t8,zero,0x12
    3850:	f4000200 	sdc1	$f0,512(zero)
    3854:	0400000d 	bltz	zero,388c <__isr_vec_space+0x386c>
    3858:	000fca01 	0xfca01
    385c:	00156c00 	sll	t5,s5,0x10
    3860:	0017e880 	sll	sp,s7,0x2
    3864:	73752f80 	0x73752f80
    3868:	6d2f7265 	0x6d2f7265
    386c:	73737069 	0x73737069
    3870:	672f7477 	0x672f7477
    3874:	6e2f7469 	0x6e2f7469
    3878:	696c7765 	0x696c7765
    387c:	696c2f62 	0x696c2f62
    3880:	6f6c6762 	0x6f6c6762
    3884:	6d2f7373 	0x6d2f7373
    3888:	2f737069 	sltiu	s3,k1,28777
    388c:	2f6c6168 	sltiu	t4,k1,24936
    3890:	2f62696c 	sltiu	v0,k1,26988
    3894:	7370696d 	s16sdi	xr5,k1,52,
    3898:	70696d2f 	0x70696d2f
    389c:	78655f73 	0x78655f73
    38a0:	5f747063 	0x5f747063
    38a4:	746f6f62 	jalx	1bdbd88 <__memory_size+0x1bbc588>
    38a8:	2f00532e 	sltiu	zero,t8,21294
    38ac:	72657375 	q16slr	xr13,xr12,xr5,xr9,9
    38b0:	70696d2f 	0x70696d2f
    38b4:	74777373 	jalx	1ddcdcc <__memory_size+0x1dbd5cc>
    38b8:	6975622f 	0x6975622f
    38bc:	322d646c 	andi	t5,s1,0x646c
    38c0:	2e353130 	sltiu	s5,s1,12592
    38c4:	302d3630 	andi	t5,at,0x3630
    38c8:	626f2f35 	0x626f2f35
    38cc:	696d2d6a 	0x696d2d6a
    38d0:	6d2d7370 	0x6d2d7370
    38d4:	652d6974 	0x652d6974
    38d8:	6e2f666c 	0x6e2f666c
    38dc:	696c7765 	0x696c7765
    38e0:	696d2f62 	0x696d2f62
    38e4:	6d2d7370 	0x6d2d7370
    38e8:	652d6974 	0x652d6974
    38ec:	652f666c 	0x652f666c
    38f0:	6f732f6c 	0x6f732f6c
    38f4:	696c2f66 	0x696c2f66
    38f8:	6f6c6762 	0x6f6c6762
    38fc:	6d2f7373 	0x6d2f7373
    3900:	00737069 	0x737069
    3904:	20554e47 	addi	s5,v0,20039
    3908:	32205341 	andi	zero,s1,0x5341
    390c:	2e34322e 	sltiu	s4,s1,12846
    3910:	01003039 	0x1003039
    3914:	0000c380 	sll	t8,zero,0xe
    3918:	08000200 	j	800 <__isr_vec_space+0x7e0>
    391c:	0400000e 	bltz	zero,3958 <__isr_vec_space+0x3938>
    3920:	0010d701 	0x10d701
    3924:	00020000 	sll	zero,v0,0x0
    3928:	00031880 	sll	v1,v1,0x2
    392c:	73752f80 	0x73752f80
    3930:	6d2f7265 	0x6d2f7265
    3934:	73737069 	0x73737069
    3938:	672f7477 	0x672f7477
    393c:	6e2f7469 	0x6e2f7469
    3940:	696c7765 	0x696c7765
    3944:	696c2f62 	0x696c2f62
    3948:	6f6c6762 	0x6f6c6762
    394c:	6d2f7373 	0x6d2f7373
    3950:	2f737069 	sltiu	s3,k1,28777
    3954:	2f6c6168 	sltiu	t4,k1,24936
    3958:	2f62696c 	sltiu	v0,k1,26988
    395c:	7370696d 	s16sdi	xr5,k1,52,
    3960:	70696d2f 	0x70696d2f
    3964:	78655f73 	0x78655f73
    3968:	5f747063 	0x5f747063
    396c:	2e727369 	sltiu	s2,s3,29545
    3970:	752f0053 	jalx	4bc014c <__memory_size+0x4ba094c>
    3974:	2f726573 	sltiu	s2,k1,25971
    3978:	7370696d 	s16sdi	xr5,k1,52,
    397c:	2f747773 	sltiu	s4,k1,30579
    3980:	6c697562 	0x6c697562
    3984:	30322d64 	andi	s2,at,0x2d64
    3988:	302e3531 	andi	t6,at,0x3531
    398c:	35302d36 	ori	s0,t1,0x2d36
    3990:	6a626f2f 	0x6a626f2f
    3994:	70696d2d 	s16sdi	xr4,v1,182,ptn1
    3998:	746d2d73 	jalx	1b4b5cc <__memory_size+0x1b2bdcc>
    399c:	6c652d69 	0x6c652d69
    39a0:	656e2f66 	0x656e2f66
    39a4:	62696c77 	0x62696c77
    39a8:	70696d2f 	0x70696d2f
    39ac:	746d2d73 	jalx	1b4b5cc <__memory_size+0x1b2bdcc>
    39b0:	6c652d69 	0x6c652d69
    39b4:	6c652f66 	0x6c652f66
    39b8:	666f732f 	0x666f732f
    39bc:	62696c2f 	0x62696c2f
    39c0:	736f6c67 	0x736f6c67
    39c4:	696d2f73 	0x696d2f73
    39c8:	47007370 	bz.b	$w0,2078c <__memory_size+0xf8c>
    39cc:	4120554e 	0x4120554e
    39d0:	2e322053 	sltiu	s2,s1,8275
    39d4:	392e3432 	xori	t6,t1,0x3432
    39d8:	80010030 	lb	at,48(zero)
    39dc:	0000006a 	0x6a
    39e0:	0e1c0004 	jal	8700010 <__memory_size+0x86e0810>
    39e4:	01040000 	0x1040000
    39e8:	000001e8 	0x1e8
    39ec:	000a6b01 	0xa6b01
    39f0:	00116500 	sll	t4,s1,0x14
    39f4:	05040200 	0x5040200
    39f8:	00000178 	0x178
    39fc:	fd070402 	sdc3	$7,1026(t0)
    3a00:	03000000 	0x3000000
    3a04:	6e690504 	0x6e690504
    3a08:	01020074 	teq	t0,v0,0x1
    3a0c:	00008506 	0x8506
    3a10:	08010200 	j	40800 <__memory_size+0x21000>
    3a14:	00000083 	sra	zero,zero,0x2
    3a18:	90050202 	lbu	a1,514(zero)
    3a1c:	02000001 	movf	zero,s0,$fcc0
    3a20:	009a0702 	0x9a0702
    3a24:	08020000 	j	80000 <__memory_size+0x60800>
    3a28:	00017305 	0x17305
    3a2c:	07080200 	tgei	t8,512
    3a30:	000000f8 	0xf8
    3a34:	02070402 	0x2070402
    3a38:	02000001 	movf	zero,s0,$fcc0
    3a3c:	011e0704 	0x11e0704
    3a40:	01020000 	0x1020000
    3a44:	00008c08 	0x8c08
    3a48:	017a0000 	0x17a0000
    3a4c:	00040000 	sll	zero,a0,0x0
    3a50:	00000e40 	sll	at,zero,0x19
    3a54:	07800104 	bltz	gp,3e68 <__isr_vec_space+0x3e48>
    3a58:	b5010000 	0xb5010000
    3a5c:	0400000a 	bltz	zero,3a88 <__isr_vec_space+0x3a68>
    3a60:	50800018 	beqzl	a0,3ac4 <__isr_vec_space+0x3aa4>
    3a64:	82000000 	lb	zero,0(s0)
    3a68:	02000011 	mthi	s0
    3a6c:	00850601 	0x850601
    3a70:	01020000 	0x1020000
    3a74:	00008308 	0x8308
    3a78:	05020200 	bltzl	t0,427c <__isr_vec_space+0x425c>
    3a7c:	00000190 	0x190
    3a80:	9a070202 	lwr	a3,514(s0)
    3a84:	03000000 	0x3000000
    3a88:	00000866 	0x866
    3a8c:	00483702 	0x483702
    3a90:	04020000 	bltzl	zero,3a94 <__isr_vec_space+0x3a74>
    3a94:	00017805 	lsa	t7,zero,at,0x1
    3a98:	09a10300 	j	6840c00 <__memory_size+0x6821400>
    3a9c:	38020000 	xori	v0,zero,0x0
    3aa0:	0000005a 	0x5a
    3aa4:	fd070402 	sdc3	$7,1026(t0)
    3aa8:	02000000 	0x2000000
    3aac:	01730508 	0x1730508
    3ab0:	08020000 	j	80000 <__memory_size+0x60800>
    3ab4:	0000f807 	srav	ra,zero,zero
    3ab8:	08680300 	j	1a00c00 <__memory_size+0x19e1400>
    3abc:	41030000 	mftc0	zero,c0_entrylo1
    3ac0:	0000003d 	0x3d
    3ac4:	0009a303 	sra	s4,t1,0xc
    3ac8:	4f420300 	lwxc1	$f12,v0(k0)
    3acc:	04000000 	bltz	zero,3ad0 <__isr_vec_space+0x3ab0>
    3ad0:	6e690504 	0x6e690504
    3ad4:	04020074 	bltzl	zero,3ca8 <__isr_vec_space+0x3c88>
    3ad8:	00010207 	0x10207
    3adc:	06e50300 	0x6e50300
    3ae0:	d4040000 	ldc1	$f4,0(zero)
    3ae4:	0000005a 	0x5a
    3ae8:	1e070402 	0x1e070402
    3aec:	02000001 	movf	zero,s0,$fcc0
    3af0:	008c0801 	movf	at,a0,$fcc3
    3af4:	9b050000 	lwr	a1,0(t8)
    3af8:	01000004 	sllv	zero,zero,t0
    3afc:	00008534 	teq	zero,zero,0x214
    3b00:	00180400 	sll	zero,t8,0x10
    3b04:	00005080 	sll	t2,zero,0x2
    3b08:	609c0100 	0x609c0100
    3b0c:	06000001 	bltz	s0,3b14 <__isr_vec_space+0x3af4>
    3b10:	01006466 	0x1006466
    3b14:	00008534 	teq	zero,zero,0x214
    3b18:	000a3800 	sll	a3,t2,0x0
    3b1c:	75620600 	jalx	5881800 <__memory_size+0x5862000>
    3b20:	34010066 	li	at,0x66
    3b24:	00000160 	0x160
    3b28:	00000a59 	0xa59
    3b2c:	00058b07 	0x58b07
    3b30:	93340100 	lbu	s4,256(t9)
    3b34:	7a000000 	nori.b	$w0,$w0,0x0
    3b38:	0800000a 	j	28 <__isr_vec_space+0x8>
    3b3c:	00000870 	tge	zero,zero,0x21
    3b40:	006f3601 	0x6f3601
    3b44:	54010000 	bnel	zero,at,3b48 <__isr_vec_space+0x3b28>
    3b48:	000ab008 	0xab008
    3b4c:	60370100 	0x60370100
    3b50:	01000001 	movf	zero,t0,$fcc0
    3b54:	0ae80855 	j	ba02154 <__memory_size+0xb9e2954>
    3b58:	38010000 	xori	at,zero,0x0
    3b5c:	0000006f 	0x6f
    3b60:	6f095601 	0x6f095601
    3b64:	39010070 	xori	at,t0,0x70
    3b68:	0000006f 	0x6f
    3b6c:	72096901 	0x72096901
    3b70:	01007465 	0x1007465
    3b74:	00006f3a 	0x6f3a
    3b78:	08520100 	j	1480400 <__memory_size+0x1460c00>
    3b7c:	00000aa6 	0xaa6
    3b80:	006f3b01 	0x6f3b01
    3b84:	53010000 	beql	t8,at,3b88 <__isr_vec_space+0x3b68>
    3b88:	00182c0a 	0x182c0a
    3b8c:	00001480 	sll	v0,zero,0x12
    3b90:	0af50800 	j	bd42000 <__memory_size+0xbd22800>
    3b94:	47010000 	bz.b	$w1,3b98 <__isr_vec_space+0x3b78>
    3b98:	00000167 	0x167
    3b9c:	0b709102 	j	dc24408 <__memory_size+0xdc04c08>
    3ba0:	80001838 	lb	zero,6200(zero)
    3ba4:	0000016c 	0x16c
    3ba8:	040c0000 	teqi	zero,0
    3bac:	00000166 	0x166
    3bb0:	007a0e0d 	break	0x7a,0x38
    3bb4:	ed0f0000 	swc3	$15,0(t0)
    3bb8:	0500000a 	bltz	t0,3be4 <__isr_vec_space+0x3bc4>
    3bbc:	0001770f 	0x1770f
    3bc0:	85040c00 	lh	a0,3072(t0)
    3bc4:	00000000 	nop
    3bc8:	000002ac 	0x2ac
    3bcc:	0f090004 	jal	c240010 <__memory_size+0xc220810>
    3bd0:	01040000 	0x1040000
    3bd4:	00000780 	sll	zero,zero,0x1e
    3bd8:	000aff01 	0xaff01
    3bdc:	00185400 	sll	t2,t8,0x10
    3be0:	00001480 	sll	v0,zero,0x12
    3be4:	00130e00 	sll	at,s3,0x18
    3be8:	06010200 	bgez	s0,43ec <__isr_vec_space+0x43cc>
    3bec:	00000085 	lsa	zero,zero,zero,0x3
    3bf0:	83080102 	lb	t0,258(t8)
    3bf4:	02000000 	0x2000000
    3bf8:	01900502 	0x1900502
    3bfc:	02020000 	0x2020000
    3c00:	00009a07 	0x9a07
    3c04:	08660300 	j	1980c00 <__memory_size+0x1961400>
    3c08:	37020000 	ori	v0,t8,0x0
    3c0c:	00000048 	0x48
    3c10:	78050402 	shf.b	$w16,$w0,0x5
    3c14:	03000001 	movf	zero,t8,$fcc0
    3c18:	000009a1 	0x9a1
    3c1c:	005a3802 	0x5a3802
    3c20:	04020000 	bltzl	zero,3c24 <__isr_vec_space+0x3c04>
    3c24:	0000fd07 	0xfd07
    3c28:	05080200 	tgei	t0,512
    3c2c:	00000173 	tltu	zero,zero,0x5
    3c30:	f8070802 	sdc2	$7,2050(zero)
    3c34:	03000000 	0x3000000
    3c38:	00000868 	0x868
    3c3c:	003d4103 	0x3d4103
    3c40:	a3030000 	sb	v1,0(t8)
    3c44:	03000009 	jalr	zero,t8
    3c48:	00004f42 	srl	t1,zero,0x1d
    3c4c:	05040400 	0x5040400
    3c50:	00746e69 	0x746e69
    3c54:	02070402 	0x2070402
    3c58:	05000001 	bltz	t0,3c60 <__isr_vec_space+0x3c40>
    3c5c:	000009d3 	0x9d3
    3c60:	8c038104 	lw	v1,-32508(zero)
    3c64:	06000000 	bltz	s0,3c68 <__isr_vec_space+0x3c48>
    3c68:	1cec057c 	0x1cec057c
    3c6c:	07000001 	bltz	t8,3c74 <__isr_vec_space+0x3c54>
    3c70:	05007461 	bltz	t0,20df8 <__memory_size+0x15f8>
    3c74:	000093ee 	0x93ee
    3c78:	76070000 	jalx	81c0000 <__memory_size+0x81a0800>
    3c7c:	1cef0500 	0x1cef0500
    3c80:	04000001 	bltz	zero,3c88 <__isr_vec_space+0x3c68>
    3c84:	05006107 	bltz	t0,1c0a4 <__isr_vec_space+0x1c084>
    3c88:	000133f4 	teq	zero,at,0xcf
    3c8c:	74070c00 	jalx	1c3000 <__memory_size+0x1a3800>
    3c90:	43f50500 	c0	0x1f50500
    3c94:	1c000001 	bgtz	zero,3c9c <__isr_vec_space+0x3c7c>
    3c98:	05007307 	bltz	t0,208b8 <__memory_size+0x10b8>
    3c9c:	000143f7 	0x143f7
    3ca0:	74073c00 	jalx	1cf000 <__memory_size+0x1af800>
    3ca4:	f8050032 	sdc2	$5,50(zero)
    3ca8:	0000011c 	0x11c
    3cac:	006b075c 	0x6b075c
    3cb0:	011cf905 	0x11cf905
    3cb4:	07640000 	0x7640000
    3cb8:	05007067 	bltz	t0,1fe58 <__memory_size+0x658>
    3cbc:	000093fa 	0x93fa
    3cc0:	73076c00 	0x73076c00
    3cc4:	fb050070 	sdc2	$5,112(t8)
    3cc8:	00000093 	0x93
    3ccc:	70660770 	d32sll	xr13,xr1,xr8,xr9,1
    3cd0:	93fc0500 	lbu	gp,1280(ra)
    3cd4:	74000000 	jalx	0 <hardware_exit_hook>
    3cd8:	00617207 	0x617207
    3cdc:	0093fd05 	0x93fd05
    3ce0:	00780000 	0x780000
    3ce4:	00009308 	0x9308
    3ce8:	00012c00 	sll	a1,at,0x10
    3cec:	012c0900 	0x12c0900
    3cf0:	00010000 	sll	zero,at,0x0
    3cf4:	1e070402 	0x1e070402
    3cf8:	08000001 	j	4 <ABIFlags_gpr_size>
    3cfc:	00000093 	0x93
    3d00:	00000143 	sra	zero,zero,0x5
    3d04:	00012c09 	0x12c09
    3d08:	08000300 	j	c00 <__isr_vec_space+0xbe0>
    3d0c:	00000093 	0x93
    3d10:	00000153 	0x153
    3d14:	00012c09 	0x12c09
    3d18:	0a000700 	j	8001c00 <__memory_size+0x7fe2400>
    3d1c:	6aea057c 	0x6aea057c
    3d20:	0b000001 	j	c000004 <__memory_size+0xbfe0804>
    3d24:	0000009f 	0x9f
    3d28:	0500720c 	bltz	t0,2055c <__memory_size+0xd5c>
    3d2c:	00016aff 	0x16aff
    3d30:	93080000 	lbu	t0,0(t8)
    3d34:	7a000000 	nori.b	$w0,$w0,0x0
    3d38:	09000001 	j	4000004 <__memory_size+0x3fe0804>
    3d3c:	0000012c 	0x12c
    3d40:	bd0d001e 	cache	0xd,30(t0)
    3d44:	a0000009 	sb	zero,9(zero)
    3d48:	0200e805 	lsa	sp,s0,zero,0x1
    3d4c:	530e0000 	beql	t8,t6,3d50 <__isr_vec_space+0x3d30>
    3d50:	00000001 	movf	zero,zero,$fcc0
    3d54:	6370650f 	0x6370650f
    3d58:	01020500 	0x1020500
    3d5c:	00000093 	0x93
    3d60:	09c3107c 	j	70c41f0 <__memory_size+0x70a49f0>
    3d64:	03050000 	0x3050000
    3d68:	00009301 	0x9301
    3d6c:	680f8000 	0x680f8000
    3d70:	04050069 	0x4050069
    3d74:	00009301 	0x9301
    3d78:	6c0f8400 	0x6c0f8400
    3d7c:	0505006f 	0x505006f
    3d80:	00009301 	0x9301
    3d84:	ac108800 	sw	s0,-30720(zero)
    3d88:	05000009 	bltz	t0,3db0 <__isr_vec_space+0x3d90>
    3d8c:	02270107 	0x2270107
    3d90:	108c0000 	beq	a0,t4,3d94 <__isr_vec_space+0x3d74>
    3d94:	00000a08 	0xa08
    3d98:	7a010a05 	0x7a010a05
    3d9c:	90000000 	lbu	zero,0(zero)
    3da0:	00096b10 	0x96b10
    3da4:	010c0500 	0x10c0500
    3da8:	0000007a 	0x7a
    3dac:	0a191094 	j	8644250 <__memory_size+0x8624a50>
    3db0:	0d050000 	jal	4140000 <__memory_size+0x4120800>
    3db4:	00007a01 	0x7a01
    3db8:	0f109800 	jal	c426000 <__memory_size+0xc406800>
    3dbc:	0500000a 	bltz	t0,3de8 <__isr_vec_space+0x3dc8>
    3dc0:	007a010e 	0x7a010e
    3dc4:	009c0000 	0x9c0000
    3dc8:	00099911 	0x99911
    3dcc:	11050800 	beq	t0,a1,5dd0 <__isr_vec_space+0x5db0>
    3dd0:	00022701 	0x22701
    3dd4:	64690f00 	0x64690f00
    3dd8:	01130500 	0x1130500
    3ddc:	00000093 	0x93
    3de0:	053e1000 	0x53e1000
    3de4:	14050000 	bne	zero,a1,3de8 <__isr_vec_space+0x3dc8>
    3de8:	00022701 	0x22701
    3dec:	12000400 	beqz	s0,4df0 <__isr_vec_space+0x4dd0>
    3df0:	00020004 	sllv	zero,v0,zero
    3df4:	08010200 	j	40800 <__memory_size+0x21000>
    3df8:	0000008c 	syscall	0x2
    3dfc:	8c040802 	lw	a0,2050(zero)
    3e00:	02000009 	jalr	zero,s0
    3e04:	09cc0404 	j	7301010 <__memory_size+0x72e1810>
    3e08:	d9130000 	ldc2	$19,0(t0)
    3e0c:	01000009 	jalr	zero,t0
    3e10:	00006f34 	teq	zero,zero,0x1bc
    3e14:	00185400 	sll	t2,t8,0x10
    3e18:	00001480 	sll	v0,zero,0x12
    3e1c:	a99c0100 	swl	gp,256(t4)
    3e20:	14000002 	bnez	zero,3e2c <__isr_vec_space+0x3e0c>
    3e24:	00787463 	0x787463
    3e28:	02a93401 	0x2a93401
    3e2c:	54010000 	bnel	zero,at,3e30 <__isr_vec_space+0x3e10>
    3e30:	69626114 	0x69626114
    3e34:	6f340100 	0x6f340100
    3e38:	01000000 	0x1000000
    3e3c:	08701555 	j	1c05554 <__memory_size+0x1be5d54>
    3e40:	36010000 	ori	at,s0,0x0
    3e44:	000002a9 	0x2a9
    3e48:	b0155401 	0xb0155401
    3e4c:	0100000a 	movz	zero,t0,zero
    3e50:	00006f37 	0x6f37
    3e54:	16550100 	bne	s2,s5,4258 <__isr_vec_space+0x4238>
    3e58:	0100706f 	0x100706f
    3e5c:	00006f38 	0x6f38
    3e60:	16690100 	bne	s3,t1,4264 <__isr_vec_space+0x4244>
    3e64:	00746572 	tlt	v1,s4,0x195
    3e68:	006f3901 	0x6f3901
    3e6c:	52010000 	beql	s0,at,3e70 <__isr_vec_space+0x3e50>
    3e70:	7a041200 	nori.b	$w8,$w2,0x4
    3e74:	00000001 	movf	zero,zero,$fcc0
    3e78:	000002b2 	tlt	zero,zero,0xa
    3e7c:	10310004 	beq	at,s1,3e90 <__isr_vec_space+0x3e70>
    3e80:	01040000 	0x1040000
    3e84:	00000780 	sll	zero,zero,0x1e
    3e88:	000b4501 	0xb4501
    3e8c:	00186800 	sll	t5,t8,0x0
    3e90:	00004480 	sll	t0,zero,0x12
    3e94:	00144600 	sll	t0,s4,0x18
    3e98:	07040200 	0x7040200
    3e9c:	000000fd 	0xfd
    3ea0:	02070402 	0x2070402
    3ea4:	02000001 	movf	zero,s0,$fcc0
    3ea8:	00f80708 	0xf80708
    3eac:	d3030000 	0xd3030000
    3eb0:	02000009 	jalr	zero,s0
    3eb4:	00280381 	0x280381
    3eb8:	04040000 	0x4040000
    3ebc:	746e6905 	jalx	1b9a414 <__memory_size+0x1b7ac14>
    3ec0:	06010200 	bgez	s0,46c4 <__isr_vec_space+0x46a4>
    3ec4:	00000085 	lsa	zero,zero,zero,0x3
    3ec8:	83080102 	lb	t0,258(t8)
    3ecc:	02000000 	0x2000000
    3ed0:	01900502 	0x1900502
    3ed4:	02020000 	0x2020000
    3ed8:	00009a07 	0x9a07
    3edc:	05040200 	0x5040200
    3ee0:	00000178 	0x178
    3ee4:	0009a105 	0x9a105
    3ee8:	21380300 	addi	t8,t1,768
    3eec:	02000000 	0x2000000
    3ef0:	01730508 	0x1730508
    3ef4:	a3050000 	sb	a1,0(t8)
    3ef8:	04000009 	bltz	zero,3f20 <__isr_vec_space+0x3f00>
    3efc:	00006c42 	srl	t5,zero,0x11
    3f00:	057c0600 	0x57c0600
    3f04:	000106ec 	0x106ec
    3f08:	74610700 	jalx	1841c00 <__memory_size+0x1822400>
    3f0c:	36ee0500 	ori	t6,s7,0x500
    3f10:	00000000 	nop
    3f14:	05007607 	bltz	t0,21734 <__memory_size+0x1f34>
    3f18:	000106ef 	0x106ef
    3f1c:	61070400 	0x61070400
    3f20:	1df40500 	0x1df40500
    3f24:	0c000001 	jal	4 <ABIFlags_gpr_size>
    3f28:	05007407 	bltz	t0,20f48 <__memory_size+0x1748>
    3f2c:	00012df5 	0x12df5
    3f30:	73071c00 	0x73071c00
    3f34:	2df70500 	sltiu	s7,t7,1280
    3f38:	3c000001 	lui	zero,0x1
    3f3c:	00327407 	0x327407
    3f40:	0106f805 	lsa	ra,t0,a2,0x1
    3f44:	075c0000 	0x75c0000
    3f48:	f905006b 	sdc2	$5,107(t0)
    3f4c:	00000106 	0x106
    3f50:	70670764 	s8ldi	xr13,v1,-63,ptn1
    3f54:	36fa0500 	ori	k0,s7,0x500
    3f58:	6c000000 	0x6c000000
    3f5c:	00707307 	0x707307
    3f60:	0036fb05 	0x36fb05
    3f64:	07700000 	bltzal	k1,3f68 <__isr_vec_space+0x3f48>
    3f68:	05007066 	bltz	t0,20104 <__memory_size+0x904>
    3f6c:	000036fc 	0x36fc
    3f70:	72077400 	0x72077400
    3f74:	fd050061 	sdc3	$5,97(t0)
    3f78:	00000036 	tne	zero,zero
    3f7c:	36080078 	ori	t0,s0,0x78
    3f80:	16000000 	bnez	s0,3f84 <__isr_vec_space+0x3f64>
    3f84:	09000001 	j	4000004 <__memory_size+0x3fe0804>
    3f88:	00000116 	0x116
    3f8c:	04020001 	bltzl	zero,3f94 <__isr_vec_space+0x3f74>
    3f90:	00011e07 	0x11e07
    3f94:	00360800 	0x360800
    3f98:	012d0000 	0x12d0000
    3f9c:	16090000 	bne	s0,t1,3fa0 <__isr_vec_space+0x3f80>
    3fa0:	03000001 	movf	zero,t8,$fcc0
    3fa4:	00360800 	0x360800
    3fa8:	013d0000 	0x13d0000
    3fac:	16090000 	bne	s0,t1,3fb0 <__isr_vec_space+0x3f90>
    3fb0:	07000001 	bltz	t8,3fb8 <__isr_vec_space+0x3f98>
    3fb4:	057c0a00 	0x57c0a00
    3fb8:	000154ea 	0x154ea
    3fbc:	00890b00 	0x890b00
    3fc0:	720c0000 	madd	s0,t4
    3fc4:	54ff0500 	bnel	a3,ra,53c8 <__isr_vec_space+0x53a8>
    3fc8:	00000001 	movf	zero,zero,$fcc0
    3fcc:	00003608 	0x3608
    3fd0:	00016400 	sll	t4,at,0x10
    3fd4:	01160900 	0x1160900
    3fd8:	001e0000 	sll	zero,s8,0x0
    3fdc:	0009bd0d 	break	0x9,0x2f4
    3fe0:	e805a000 	swc2	$5,-24576(zero)
    3fe4:	000001ea 	0x1ea
    3fe8:	00013d0e 	0x13d0e
    3fec:	650f0000 	0x650f0000
    3ff0:	05006370 	bltz	t0,1cdb4 <__isr_vec_space+0x1cd94>
    3ff4:	00360102 	ror	zero,s6,0x4
    3ff8:	107c0000 	beq	v1,gp,3ffc <__isr_vec_space+0x3fdc>
    3ffc:	000009c3 	sra	at,zero,0x7
    4000:	36010305 	ori	at,s0,0x305
    4004:	80000000 	lb	zero,0(zero)
    4008:	0069680f 	0x69680f
    400c:	36010405 	ori	at,s0,0x405
    4010:	84000000 	lh	zero,0(zero)
    4014:	006f6c0f 	0x6f6c0f
    4018:	36010505 	ori	at,s0,0x505
    401c:	88000000 	lwl	zero,0(zero)
    4020:	0009ac10 	0x9ac10
    4024:	01070500 	0x1070500
    4028:	00000211 	0x211
    402c:	0a08108c 	j	8204230 <__memory_size+0x81e4a30>
    4030:	0a050000 	j	8140000 <__memory_size+0x8120800>
    4034:	00007e01 	0x7e01
    4038:	6b109000 	0x6b109000
    403c:	05000009 	bltz	t0,4064 <__isr_vec_space+0x4044>
    4040:	007e010c 	syscall	0x1f804
    4044:	10940000 	beq	a0,s4,4048 <__isr_vec_space+0x4028>
    4048:	00000a19 	0xa19
    404c:	7e010d05 	0x7e010d05
    4050:	98000000 	lwr	zero,0(zero)
    4054:	000a0f10 	0xa0f10
    4058:	010e0500 	0x10e0500
    405c:	0000007e 	0x7e
    4060:	9911009c 	lwr	s1,156(t0)
    4064:	08000009 	j	24 <__isr_vec_space+0x4>
    4068:	11011105 	beq	t0,at,8480 <__isr_vec_space+0x8460>
    406c:	0f000002 	jal	c000008 <__memory_size+0xbfe0808>
    4070:	05006469 	bltz	t0,1d218 <__isr_vec_space+0x1d1f8>
    4074:	00360113 	0x360113
    4078:	10000000 	b	407c <__isr_vec_space+0x405c>
    407c:	0000053e 	0x53e
    4080:	11011405 	beq	t0,at,9098 <__isr_vec_space+0x9078>
    4084:	04000002 	bltz	zero,4090 <__isr_vec_space+0x4070>
    4088:	ea041200 	swc2	$4,4608(s0)
    408c:	02000001 	movf	zero,s0,$fcc0
    4090:	008c0801 	movf	at,a0,$fcc3
    4094:	08020000 	j	80000 <__memory_size+0x60800>
    4098:	00098c04 	0x98c04
    409c:	04040200 	0x4040200
    40a0:	000009cc 	syscall	0x27
    40a4:	00095c13 	0x95c13
    40a8:	42230100 	c0	0x230100
    40ac:	68000000 	0x68000000
    40b0:	44800018 	0x44800018
    40b4:	01000000 	0x1000000
    40b8:	0002af9c 	0x2af9c
    40bc:	74631400 	jalx	18c5000 <__memory_size+0x18a5800>
    40c0:	23010078 	addi	at,t8,120
    40c4:	000002af 	0x2af
    40c8:	00000a9b 	0xa9b
    40cc:	00087015 	0x87015
    40d0:	36250100 	ori	a1,s1,0x100
    40d4:	01000000 	0x1000000
    40d8:	0ab01554 	j	ac05550 <__memory_size+0xabe5d50>
    40dc:	26010000 	addiu	at,s0,0
    40e0:	00000036 	tne	zero,zero
    40e4:	e8155501 	swc2	$21,21761(zero)
    40e8:	0100000a 	movz	zero,t0,zero
    40ec:	00003627 	0x3627
    40f0:	15560100 	bne	t2,s6,44f4 <__isr_vec_space+0x44d4>
    40f4:	00000b40 	sll	at,zero,0xd
    40f8:	00362801 	0x362801
    40fc:	57010000 	bnel	t8,at,4100 <__isr_vec_space+0x40e0>
    4100:	00706f16 	0x706f16
    4104:	00362901 	0x362901
    4108:	69010000 	0x69010000
    410c:	000b3615 	0xb3615
    4110:	362a0100 	ori	t2,s1,0x100
    4114:	01000000 	0x1000000
    4118:	0b3b1552 	j	cec5548 <__memory_size+0xcea5d48>
    411c:	2b010000 	slti	at,t8,0
    4120:	00000036 	tne	zero,zero
    4124:	12005301 	beqz	s0,18d2c <__isr_vec_space+0x18d0c>
    4128:	00016404 	0x16404
    412c:	08810000 	j	2040000 <__memory_size+0x2020800>
    4130:	00040000 	sll	zero,a0,0x0
    4134:	00001159 	0x1159
    4138:	01e80104 	0x1e80104
    413c:	7b010000 	xori.b	$w0,$w0,0x1
    4140:	ac00000b 	sw	zero,11(zero)
    4144:	0c800018 	jal	2000060 <__memory_size+0x1fe0860>
    4148:	89000000 	lwl	zero,0(t0)
    414c:	02000015 	0x2000015
    4150:	6e690504 	0x6e690504
    4154:	04030074 	bgezl	zero,4328 <__isr_vec_space+0x4308>
    4158:	00017805 	lsa	t7,zero,at,0x1
    415c:	07040300 	0x7040300
    4160:	000000fd 	0xfd
    4164:	85060103 	lh	a2,259(t0)
    4168:	03000000 	0x3000000
    416c:	00830801 	0x830801
    4170:	02030000 	0x2030000
    4174:	00019005 	lsa	s2,zero,at,0x1
    4178:	07020300 	bltzl	t8,4d7c <__isr_vec_space+0x4d5c>
    417c:	0000009a 	0x9a
    4180:	73050803 	0x73050803
    4184:	03000001 	movf	zero,t8,$fcc0
    4188:	00f80708 	0xf80708
    418c:	de040000 	ldc3	$4,0(s0)
    4190:	02000004 	sllv	zero,zero,s0
    4194:	00002107 	0x2107
    4198:	04bc0400 	0x4bc0400
    419c:	10030000 	beq	zero,v1,41a0 <__isr_vec_space+0x4180>
    41a0:	00000028 	0x28
    41a4:	00059f04 	0x59f04
    41a8:	28270300 	slti	a3,at,768
    41ac:	05000000 	bltz	t0,41b0 <__isr_vec_space+0x4190>
    41b0:	0000048b 	0x48b
    41b4:	8d016104 	lw	at,24836(t0)
    41b8:	03000000 	0x3000000
    41bc:	01020704 	0x1020704
    41c0:	04060000 	0x4060000
    41c4:	00b34a03 	0xb34a03
    41c8:	85070000 	lh	a3,0(t0)
    41cc:	03000004 	sllv	zero,zero,t8
    41d0:	0000814c 	syscall	0x205
    41d4:	04370700 	0x4370700
    41d8:	4d030000 	lwxc1	$f0,v1(t0)
    41dc:	000000b3 	tltu	zero,zero,0x2
    41e0:	003d0800 	0x3d0800
    41e4:	00c30000 	0xc30000
    41e8:	c3090000 	ll	t1,0(t8)
    41ec:	03000000 	0x3000000
    41f0:	07040300 	0x7040300
    41f4:	0000011e 	0x11e
    41f8:	4703080a 	bz.b	$w3,6224 <__isr_vec_space+0x6204>
    41fc:	000000eb 	0xeb
    4200:	0005890b 	0x5890b
    4204:	21490300 	addi	t1,t2,768
    4208:	00000000 	nop
    420c:	0005910b 	0x5910b
    4210:	944e0300 	lhu	t6,768(v0)
    4214:	04000000 	bltz	zero,4218 <__isr_vec_space+0x41f8>
    4218:	051c0400 	0x51c0400
    421c:	4f030000 	lwxc1	$f0,v1(t8)
    4220:	000000ca 	0xca
    4224:	0003fa04 	0x3fa04
    4228:	60530300 	0x60530300
    422c:	0c000000 	jal	0 <hardware_exit_hook>
    4230:	05db0404 	0x5db0404
    4234:	16050000 	bne	s0,a1,4238 <__isr_vec_space+0x4218>
    4238:	0000002f 	0x2f
    423c:	00040b0d 	break	0x4,0x2c
    4240:	2d051800 	sltiu	a1,t0,6144
    4244:	00000161 	0x161
    4248:	00053d0b 	0x53d0b
    424c:	612f0500 	0x612f0500
    4250:	00000001 	movf	zero,zero,$fcc0
    4254:	006b5f0e 	0x6b5f0e
    4258:	00213005 	lsa	a2,at,at,0x1
    425c:	0b040000 	j	c100000 <__memory_size+0xc0e0800>
    4260:	00000574 	teq	zero,zero,0x15
    4264:	00213005 	lsa	a2,at,at,0x1
    4268:	0b080000 	j	c200000 <__memory_size+0xc1e0800>
    426c:	000003f4 	teq	zero,zero,0xf
    4270:	00213005 	lsa	a2,at,at,0x1
    4274:	0b0c0000 	j	c300000 <__memory_size+0xc2e0800>
    4278:	00000622 	0x622
    427c:	00213005 	lsa	a2,at,at,0x1
    4280:	0e100000 	jal	8400000 <__memory_size+0x83e0800>
    4284:	0500785f 	bltz	t0,22404 <__memory_size+0x2c04>
    4288:	00016731 	tgeu	zero,at,0x19c
    428c:	0f001400 	jal	c005000 <__memory_size+0xbfe5800>
    4290:	00010e04 	0x10e04
    4294:	01030800 	0x1030800
    4298:	01770000 	0x1770000
    429c:	c3090000 	ll	t1,0(t8)
    42a0:	00000000 	nop
    42a4:	04320d00 	bltzall	at,76a8 <__isr_vec_space+0x7688>
    42a8:	05240000 	0x5240000
    42ac:	0001f035 	0x1f035
    42b0:	03320b00 	0x3320b00
    42b4:	37050000 	ori	a1,t8,0x0
    42b8:	00000021 	move	zero,zero
    42bc:	05b10b00 	bgezal	t5,6ec0 <__isr_vec_space+0x6ea0>
    42c0:	38050000 	xori	a1,zero,0x0
    42c4:	00000021 	move	zero,zero
    42c8:	03410b04 	0x3410b04
    42cc:	39050000 	xori	a1,t0,0x0
    42d0:	00000021 	move	zero,zero
    42d4:	069b0b08 	0x69b0b08
    42d8:	3a050000 	xori	a1,s0,0x0
    42dc:	00000021 	move	zero,zero
    42e0:	04a80b0c 	tgei	a1,2828
    42e4:	3b050000 	xori	a1,t8,0x0
    42e8:	00000021 	move	zero,zero
    42ec:	05a70b10 	aclr	0x0,-1264(t5)
    42f0:	3c050000 	lui	a1,0x0
    42f4:	00000021 	move	zero,zero
    42f8:	06270b14 	aclr	0x0,-1260(s1)
    42fc:	3d050000 	0x3d050000
    4300:	00000021 	move	zero,zero
    4304:	04fe0b18 	0x4fe0b18
    4308:	3e050000 	0x3e050000
    430c:	00000021 	move	zero,zero
    4310:	06620b1c 	bltzl	s3,6f84 <__isr_vec_space+0x6f64>
    4314:	3f050000 	0x3f050000
    4318:	00000021 	move	zero,zero
    431c:	50100020 	beql	zero,s0,43a0 <__isr_vec_space+0x4380>
    4320:	08000003 	j	c <ABIFlags_ases>
    4324:	30480501 	andi	t0,v0,0x501
    4328:	0b000002 	j	c000008 <__memory_size+0xbfe0808>
    432c:	000002d1 	0x2d1
    4330:	02304905 	0x2304905
    4334:	0b000000 	j	c000000 <__memory_size+0xbfe0800>
    4338:	000002c5 	0x2c5
    433c:	02304a05 	0x2304a05
    4340:	11800000 	beqz	t4,4344 <__isr_vec_space+0x4324>
    4344:	000005cd 	break	0x0,0x17
    4348:	01034c05 	0x1034c05
    434c:	01000000 	0x1000000
    4350:	00037511 	0x37511
    4354:	034f0500 	0x34f0500
    4358:	04000001 	bltz	zero,4360 <__isr_vec_space+0x4340>
    435c:	01080001 	movf	zero,t0,$fcc2
    4360:	40000001 	mfc0	zero,c0_mvpcontrol
    4364:	09000002 	j	4000008 <__memory_size+0x3fe0808>
    4368:	000000c3 	sra	zero,zero,0x3
    436c:	bd10001f 	cache	0x10,31(t0)
    4370:	90000002 	lbu	zero,2(zero)
    4374:	7e5b0501 	0x7e5b0501
    4378:	0b000002 	j	c000008 <__memory_size+0xbfe0808>
    437c:	0000053d 	0x53d
    4380:	027e5c05 	0x27e5c05
    4384:	0b000000 	j	c000000 <__memory_size+0xbfe0800>
    4388:	00000555 	0x555
    438c:	00215d05 	0x215d05
    4390:	0b040000 	j	c100000 <__memory_size+0xc0e0800>
    4394:	000003ef 	0x3ef
    4398:	02845f05 	0x2845f05
    439c:	0b080000 	j	c200000 <__memory_size+0xc1e0800>
    43a0:	00000350 	0x350
    43a4:	01f06005 	lsa	t4,t7,s0,0x1
    43a8:	00880000 	0x880000
    43ac:	0240040f 	0x240040f
    43b0:	94080000 	lhu	t0,0(zero)
    43b4:	94000002 	lhu	zero,2(zero)
    43b8:	09000002 	j	4000008 <__memory_size+0x3fe0808>
    43bc:	000000c3 	sra	zero,zero,0x3
    43c0:	040f001f 	0x40f001f
    43c4:	0000029a 	0x29a
    43c8:	05080d12 	tgei	t0,3346
    43cc:	05080000 	tgei	t0,0
    43d0:	0002c073 	tltu	zero,v0,0x301
    43d4:	092e0b00 	j	4b82c00 <__memory_size+0x4b63400>
    43d8:	74050000 	jalx	140000 <__memory_size+0x120800>
    43dc:	000002c0 	sll	zero,zero,0xb
    43e0:	08fc0b00 	j	3f02c00 <__memory_size+0x3ee3400>
    43e4:	75050000 	jalx	4140000 <__memory_size+0x4120800>
    43e8:	00000021 	move	zero,zero
    43ec:	040f0004 	0x40f0004
    43f0:	0000003d 	0x3d
    43f4:	0005270d 	break	0x5,0x9c
    43f8:	b3056800 	0xb3056800
    43fc:	000003f0 	tge	zero,zero,0xf
    4400:	00705f0e 	0x705f0e
    4404:	02c0b405 	0x2c0b405
    4408:	0e000000 	jal	8000000 <__memory_size+0x7fe0800>
    440c:	0500725f 	bltz	t0,20d8c <__memory_size+0x158c>
    4410:	000021b5 	0x21b5
    4414:	5f0e0400 	0x5f0e0400
    4418:	b6050077 	0xb6050077
    441c:	00000021 	move	zero,zero
    4420:	036e0b08 	0x36e0b08
    4424:	b7050000 	0xb7050000
    4428:	00000044 	0x44
    442c:	044e0b0c 	tnei	v0,2828
    4430:	b8050000 	swr	a1,0(zero)
    4434:	00000044 	0x44
    4438:	625f0e0e 	0x625f0e0e
    443c:	b9050066 	swr	a1,102(t0)
    4440:	0000029b 	0x29b
    4444:	030c0b10 	0x30c0b10
    4448:	ba050000 	swr	a1,0(s0)
    444c:	00000021 	move	zero,zero
    4450:	035e0b18 	0x35e0b18
    4454:	c1050000 	ll	a1,0(t0)
    4458:	00000101 	0x101
    445c:	04220b1c 	bltzl	at,70d0 <__isr_vec_space+0x70b0>
    4460:	c3050000 	ll	a1,0(t8)
    4464:	00000553 	0x553
    4468:	049a0b20 	0x49a0b20
    446c:	c5050000 	lwc1	$f5,0(t0)
    4470:	00000582 	srl	zero,zero,0x16
    4474:	05990b24 	0x5990b24
    4478:	c8050000 	lwc2	$5,0(zero)
    447c:	000005a6 	0x5a6
    4480:	067c0b28 	0x67c0b28
    4484:	c9050000 	lwc2	$5,0(t0)
    4488:	000005c0 	sll	zero,zero,0x17
    448c:	755f0e2c 	jalx	57c38b0 <__memory_size+0x57a40b0>
    4490:	cc050062 	pref	0x5,98(zero)
    4494:	0000029b 	0x29b
    4498:	755f0e30 	jalx	57c38c0 <__memory_size+0x57a40c0>
    449c:	cd050070 	pref	0x5,112(t0)
    44a0:	000002c0 	sll	zero,zero,0xb
    44a4:	755f0e38 	jalx	57c38e0 <__memory_size+0x57a40e0>
    44a8:	ce050072 	pref	0x5,114(s0)
    44ac:	00000021 	move	zero,zero
    44b0:	033b0b3c 	0x33b0b3c
    44b4:	d1050000 	0xd1050000
    44b8:	000005c6 	0x5c6
    44bc:	06540b40 	0x6540b40
    44c0:	d2050000 	0xd2050000
    44c4:	000005d6 	0x5d6
    44c8:	6c5f0e43 	0x6c5f0e43
    44cc:	d5050062 	ldc1	$f5,98(t0)
    44d0:	0000029b 	0x29b
    44d4:	03840b44 	0x3840b44
    44d8:	d8050000 	ldc2	$5,0(zero)
    44dc:	00000021 	move	zero,zero
    44e0:	03950b4c 	syscall	0xe542d
    44e4:	d9050000 	ldc2	$5,0(t0)
    44e8:	0000006b 	0x6b
    44ec:	06ab0b50 	tltiu	s5,2896
    44f0:	dc050000 	ldc3	$5,0(zero)
    44f4:	0000040e 	0x40e
    44f8:	077a0b54 	0x77a0b54
    44fc:	e0050000 	sc	a1,0(zero)
    4500:	000000f6 	tne	zero,zero,0x3
    4504:	052f0b58 	0x52f0b58
    4508:	e2050000 	sc	a1,0(s0)
    450c:	000000eb 	0xeb
    4510:	04920b5c 	bltzall	a0,7284 <__isr_vec_space+0x7264>
    4514:	e3050000 	sc	a1,0(t8)
    4518:	00000021 	move	zero,zero
    451c:	21130064 	addi	s3,t0,100
    4520:	0e000000 	jal	8000000 <__memory_size+0x7fe0800>
    4524:	14000004 	bnez	zero,4538 <__isr_vec_space+0x4518>
    4528:	0000040e 	0x40e
    452c:	00010114 	0x10114
    4530:	05461400 	0x5461400
    4534:	21140000 	addi	s4,t0,0
    4538:	00000000 	nop
    453c:	0414040f 	0x414040f
    4540:	7c150000 	ext	s5,zero,0x0,0x1
    4544:	28000005 	slti	zero,zero,5
    4548:	02390504 	0x2390504
    454c:	00000546 	0x546
    4550:	000aee16 	0xaee16
    4554:	023b0500 	0x23b0500
    4558:	00000021 	move	zero,zero
    455c:	037d1600 	0x37d1600
    4560:	40050000 	mfc0	a1,c0_index
    4564:	00062d02 	srl	a1,a2,0x14
    4568:	3e160400 	0x3e160400
    456c:	05000004 	bltz	t0,4580 <__isr_vec_space+0x4560>
    4570:	062d0240 	0x62d0240
    4574:	16080000 	bne	s0,t0,4578 <__isr_vec_space+0x4558>
    4578:	00000403 	sra	zero,zero,0x10
    457c:	2d024005 	sltiu	v0,t0,16389
    4580:	0c000006 	jal	18 <ABIFlags_flags2+0x4>
    4584:	00055016 	0x55016
    4588:	02420500 	0x2420500
    458c:	00000021 	move	zero,zero
    4590:	02e11610 	0x2e11610
    4594:	43050000 	c0	0x1050000
    4598:	00080f02 	srl	at,t0,0x1c
    459c:	03161400 	0x3161400
    45a0:	05000006 	bltz	t0,45bc <__isr_vec_space+0x459c>
    45a4:	00210245 	0x210245
    45a8:	16300000 	bne	s1,s0,45ac <__isr_vec_space+0x458c>
    45ac:	0000055a 	0x55a
    45b0:	77024605 	jalx	c091814 <__memory_size+0xc072014>
    45b4:	34000005 	li	zero,0x5
    45b8:	0004b116 	0x4b116
    45bc:	02480500 	0x2480500
    45c0:	00000021 	move	zero,zero
    45c4:	056a1638 	tlti	t3,5688
    45c8:	4a050000 	c2	0x50000
    45cc:	00082a02 	srl	a1,t0,0x8
    45d0:	7d163c00 	ext	s6,t0,0x10,0x8
    45d4:	05000004 	bltz	t0,45e8 <__isr_vec_space+0x45c8>
    45d8:	0161024d 	break	0x161,0x9
    45dc:	16400000 	bnez	s2,45e0 <__isr_vec_space+0x45c0>
    45e0:	00000428 	0x428
    45e4:	21024e05 	addi	v0,t0,19973
    45e8:	44000000 	mfc1	zero,$f0
    45ec:	00069616 	0x69616
    45f0:	024f0500 	0x24f0500
    45f4:	00000161 	0x161
    45f8:	04d41648 	0x4d41648
    45fc:	50050000 	beql	zero,a1,4600 <__isr_vec_space+0x45e0>
    4600:	00083002 	srl	a2,t0,0x0
    4604:	46164c00 	add.s	$f16,$f9,$f22
    4608:	05000004 	bltz	t0,461c <__isr_vec_space+0x45fc>
    460c:	00210253 	0x210253
    4610:	16500000 	bne	s2,s0,4614 <__isr_vec_space+0x45f4>
    4614:	0000038d 	break	0x0,0xe
    4618:	46025405 	c1	0x25405
    461c:	54000005 	bnezl	zero,4634 <__isr_vec_space+0x4614>
    4620:	0004f016 	0x4f016
    4624:	02770500 	0x2770500
    4628:	000007ed 	0x7ed
    462c:	02bd1758 	0x2bd1758
    4630:	7b050000 	xori.b	$w0,$w0,0x5
    4634:	00027e02 	srl	t7,v0,0x18
    4638:	17014800 	bne	t8,at,1663c <__isr_vec_space+0x1661c>
    463c:	0000045b 	0x45b
    4640:	40027c05 	0x40027c05
    4644:	4c000002 	mfc3	zero,$0,2
    4648:	064a1701 	tlti	s2,5889
    464c:	80050000 	lb	a1,0(zero)
    4650:	00084102 	srl	t0,t0,0x4
    4654:	1702dc00 	bne	t8,v0,ffffb658 <__entry+0x403fb658>
    4658:	00000366 	0x366
    465c:	f2028505 	0xf2028505
    4660:	e0000005 	sc	zero,5(zero)
    4664:	034b1702 	0x34b1702
    4668:	86050000 	lh	a1,0(s0)
    466c:	00084d02 	srl	t1,t0,0x14
    4670:	0002ec00 	sll	sp,v0,0x10
    4674:	054c040f 	teqi	t2,1039
    4678:	01030000 	0x1030000
    467c:	00008c08 	0x8c08
    4680:	f0040f00 	0xf0040f00
    4684:	13000003 	beqz	t8,4694 <__isr_vec_space+0x4674>
    4688:	00000021 	move	zero,zero
    468c:	00000577 	0x577
    4690:	00040e14 	0x40e14
    4694:	01011400 	0x1011400
    4698:	77140000 	jalx	c500000 <__memory_size+0xc4e0800>
    469c:	14000005 	bnez	zero,46b4 <__isr_vec_space+0x4694>
    46a0:	00000021 	move	zero,zero
    46a4:	7d040f00 	ext	a0,t0,0x1c,0x2
    46a8:	18000005 	blez	zero,46c0 <__isr_vec_space+0x46a0>
    46ac:	0000054c 	syscall	0x15
    46b0:	0559040f 	0x559040f
    46b4:	76130000 	jalx	84c0000 <__memory_size+0x84a0800>
    46b8:	a6000000 	sh	zero,0(s0)
    46bc:	14000005 	bnez	zero,46d4 <__isr_vec_space+0x46b4>
    46c0:	0000040e 	0x40e
    46c4:	00010114 	0x10114
    46c8:	00761400 	0x761400
    46cc:	21140000 	addi	s4,t0,0
    46d0:	00000000 	nop
    46d4:	0588040f 	tgei	t4,1039
    46d8:	21130000 	addi	s3,t0,0
    46dc:	c0000000 	ll	zero,0(zero)
    46e0:	14000005 	bnez	zero,46f8 <__isr_vec_space+0x46d8>
    46e4:	0000040e 	0x40e
    46e8:	00010114 	0x10114
    46ec:	040f0000 	0x40f0000
    46f0:	000005ac 	0x5ac
    46f4:	00003d08 	0x3d08
    46f8:	0005d600 	sll	k0,a1,0x18
    46fc:	00c30900 	0xc30900
    4700:	00020000 	sll	zero,v0,0x0
    4704:	00003d08 	0x3d08
    4708:	0005e600 	sll	gp,a1,0x18
    470c:	00c30900 	0xc30900
    4710:	00000000 	nop
    4714:	00051505 	0x51505
    4718:	011d0500 	0x11d0500
    471c:	000002c6 	0x2c6
    4720:	00063119 	0x63119
    4724:	21050c00 	addi	a1,t0,3072
    4728:	00062701 	0x62701
    472c:	053d1600 	0x53d1600
    4730:	23050000 	addi	a1,t8,0
    4734:	00062701 	0x62701
    4738:	54160000 	bnel	zero,s6,473c <__isr_vec_space+0x471c>
    473c:	05000004 	bltz	t0,4750 <__isr_vec_space+0x4730>
    4740:	00210124 	0x210124
    4744:	16040000 	bne	s0,a0,4748 <__isr_vec_space+0x4728>
    4748:	0000050f 	sync	0x14
    474c:	2d012505 	sltiu	at,t0,9477
    4750:	08000006 	j	18 <ABIFlags_flags2+0x4>
    4754:	f2040f00 	0xf2040f00
    4758:	0f000005 	jal	c000014 <__memory_size+0xbfe0814>
    475c:	0005e604 	0x5e604
    4760:	02d91900 	0x2d91900
    4764:	050e0000 	tnei	t0,0
    4768:	0668013d 	tgei	s3,317
    476c:	83160000 	lb	s6,0(t8)
    4770:	05000005 	bltz	t0,4788 <__isr_vec_space+0x4768>
    4774:	0668013e 	tgei	s3,318
    4778:	16000000 	bnez	s0,477c <__isr_vec_space+0x475c>
    477c:	000005ba 	0x5ba
    4780:	68013f05 	0x68013f05
    4784:	06000006 	bltz	s0,47a0 <__isr_vec_space+0x4780>
    4788:	0005d616 	0x5d616
    478c:	01400500 	0x1400500
    4790:	0000004b 	0x4b
    4794:	4b08000c 	c2	0x108000c
    4798:	78000000 	andi.b	$w0,$w0,0x0
    479c:	09000006 	j	4000018 <__memory_size+0x3fe0818>
    47a0:	000000c3 	sra	zero,zero,0x3
    47a4:	d01a0002 	0xd01a0002
    47a8:	79025805 	0x79025805
    47ac:	16000007 	bnez	s0,47cc <__isr_vec_space+0x47ac>
    47b0:	00000615 	0x615
    47b4:	8d025a05 	lw	v0,23045(t0)
    47b8:	00000000 	nop
    47bc:	0005c016 	0x5c016
    47c0:	025b0500 	0x25b0500
    47c4:	00000546 	0x546
    47c8:	04701604 	bltzal	v1,9fdc <__isr_vec_space+0x9fbc>
    47cc:	5c050000 	0x5c050000
    47d0:	00077902 	srl	t7,a3,0x4
    47d4:	6d160800 	0x6d160800
    47d8:	05000006 	bltz	t0,47f4 <__isr_vec_space+0x47d4>
    47dc:	0177025d 	0x177025d
    47e0:	16240000 	bne	s1,a0,47e4 <__isr_vec_space+0x47c4>
    47e4:	00000413 	0x413
    47e8:	21025e05 	addi	v0,t0,24069
    47ec:	48000000 	mfc2	zero,$0
    47f0:	00053816 	0x53816
    47f4:	025f0500 	0x25f0500
    47f8:	00000059 	0x59
    47fc:	06831650 	bgezl	s4,a140 <__isr_vec_space+0xa120>
    4800:	60050000 	0x60050000
    4804:	00063302 	srl	a2,a2,0xc
    4808:	43165800 	c0	0x1165800
    480c:	05000005 	bltz	t0,4824 <__isr_vec_space+0x4804>
    4810:	00eb0261 	0xeb0261
    4814:	16680000 	bne	s3,t0,4818 <__isr_vec_space+0x47f8>
    4818:	00000688 	0x688
    481c:	eb026205 	swc2	$2,25093(t8)
    4820:	70000000 	madd	zero,zero
    4824:	00032416 	0x32416
    4828:	02630500 	0x2630500
    482c:	000000eb 	0xeb
    4830:	06401678 	bltz	s2,a214 <__isr_vec_space+0xa1f4>
    4834:	64050000 	0x64050000
    4838:	00078902 	srl	s1,a3,0x4
    483c:	64168000 	0x64168000
    4840:	05000004 	bltz	t0,4854 <__isr_vec_space+0x4834>
    4844:	07990265 	0x7990265
    4848:	16880000 	bne	s4,t0,484c <__isr_vec_space+0x482c>
    484c:	000005e3 	0x5e3
    4850:	21026605 	addi	v0,t0,26117
    4854:	a0000000 	sb	zero,0(zero)
    4858:	0003ae16 	0x3ae16
    485c:	02670500 	0x2670500
    4860:	000000eb 	0xeb
    4864:	031516a4 	0x31516a4
    4868:	68050000 	0x68050000
    486c:	0000eb02 	srl	sp,zero,0xc
    4870:	9d16ac00 	0x9d16ac00
    4874:	05000003 	bltz	t0,4884 <__isr_vec_space+0x4864>
    4878:	00eb0269 	0xeb0269
    487c:	16b40000 	bne	s5,s4,4880 <__isr_vec_space+0x4860>
    4880:	000002ec 	0x2ec
    4884:	eb026a05 	swc2	$2,27141(t8)
    4888:	bc000000 	cache	0x0,0(zero)
    488c:	0002fb16 	0x2fb16
    4890:	026b0500 	0x26b0500
    4894:	000000eb 	0xeb
    4898:	04f516c4 	0x4f516c4
    489c:	6c050000 	0x6c050000
    48a0:	00002102 	srl	a0,zero,0x4
    48a4:	0800cc00 	j	33000 <__memory_size+0x13800>
    48a8:	0000054c 	syscall	0x15
    48ac:	00000789 	0x789
    48b0:	0000c309 	0xc309
    48b4:	08001900 	j	6400 <__isr_vec_space+0x63e0>
    48b8:	0000054c 	syscall	0x15
    48bc:	00000799 	0x799
    48c0:	0000c309 	0xc309
    48c4:	08000700 	j	1c00 <__isr_vec_space+0x1be0>
    48c8:	0000054c 	syscall	0x15
    48cc:	000007a9 	0x7a9
    48d0:	0000c309 	0xc309
    48d4:	1a001700 	blez	s0,a4d8 <__isr_vec_space+0xa4b8>
    48d8:	027105f0 	tge	s3,s1,0x17
    48dc:	000007cd 	break	0x0,0x1f
    48e0:	0004a116 	0x4a116
    48e4:	02740500 	0x2740500
    48e8:	000007cd 	break	0x0,0x1f
    48ec:	06371600 	0x6371600
    48f0:	75050000 	jalx	4140000 <__memory_size+0x4120800>
    48f4:	0007dd02 	srl	k1,a3,0x14
    48f8:	08007800 	j	1e000 <__isr_vec_space+0x1dfe0>
    48fc:	000002c0 	sll	zero,zero,0xb
    4900:	000007dd 	0x7dd
    4904:	0000c309 	0xc309
    4908:	08001d00 	j	7400 <__isr_vec_space+0x73e0>
    490c:	0000008d 	break	0x0,0x2
    4910:	000007ed 	0x7ed
    4914:	0000c309 	0xc309
    4918:	1b001d00 	blez	t8,bd1c <__isr_vec_space+0xbcfc>
    491c:	025605f0 	tge	s2,s6,0x17
    4920:	0000080f 	0x80f
    4924:	00057c1c 	0x57c1c
    4928:	026d0500 	0x26d0500
    492c:	00000678 	0x678
    4930:	00065a1c 	0x65a1c
    4934:	02760500 	0x2760500
    4938:	000007a9 	0x7a9
    493c:	054c0800 	teqi	t2,2048
    4940:	081f0000 	j	7c0000 <__memory_size+0x7a0800>
    4944:	c3090000 	ll	t1,0(t8)
    4948:	18000000 	blez	zero,494c <__isr_vec_space+0x492c>
    494c:	082a1d00 	j	a87400 <__memory_size+0xa67c00>
    4950:	0e140000 	jal	8500000 <__memory_size+0x84e0800>
    4954:	00000004 	sllv	zero,zero,zero
    4958:	081f040f 	j	7c103c <__memory_size+0x7a183c>
    495c:	040f0000 	0x40f0000
    4960:	00000161 	0x161
    4964:	0008411d 	0x8411d
    4968:	00211400 	0x211400
    496c:	0f000000 	jal	c000000 <__memory_size+0xbfe0800>
    4970:	00084704 	0x84704
    4974:	36040f00 	ori	a0,s0,0xf00
    4978:	08000008 	j	20 <__isr_vec_space>
    497c:	000005e6 	0x5e6
    4980:	0000085d 	0x85d
    4984:	0000c309 	0xc309
    4988:	1e000200 	bgtz	s0,518c <__isr_vec_space+0x516c>
    498c:	00000aed 	0xaed
    4990:	08720f06 	j	1c83c18 <__memory_size+0x1c64418>
    4994:	18ac0000 	0x18ac0000
    4998:	000c8000 	sll	s0,t4,0x0
    499c:	9c010000 	0x9c010000
    49a0:	0021040f 	0x21040f
    49a4:	f71f0000 	sdc1	$f31,0(t8)
    49a8:	05000005 	bltz	t0,49c0 <__isr_vec_space+0x49a0>
    49ac:	040e02fa 	tnei	zero,762
    49b0:	Address 0x00000000000049b0 is out of bounds.


Disassembly of section .debug_abbrev:

00000000 <.debug_abbrev>:
       0:	10001101 	b	4408 <__isr_vec_space+0x43e8>
       4:	12011106 	beq	s0,at,4420 <__isr_vec_space+0x4400>
       8:	1b080301 	0x1b080301
       c:	13082508 	beq	t8,t0,9430 <__isr_vec_space+0x9410>
      10:	00000005 	lsa	zero,zero,zero,0x1
      14:	10001101 	b	441c <__isr_vec_space+0x43fc>
      18:	12011106 	beq	s0,at,4434 <__isr_vec_space+0x4414>
      1c:	1b080301 	0x1b080301
      20:	13082508 	beq	t8,t0,9444 <__isr_vec_space+0x9424>
      24:	00000005 	lsa	zero,zero,zero,0x1
      28:	25011101 	addiu	at,t0,4353
      2c:	030b130e 	0x30b130e
      30:	110e1b0e 	beq	t0,t6,6c6c <__isr_vec_space+0x6c4c>
      34:	10061201 	beq	zero,a2,483c <__isr_vec_space+0x481c>
      38:	02000017 	0x2000017
      3c:	0b0b0024 	j	c2c0090 <__memory_size+0xc2a0890>
      40:	0e030b3e 	jal	80c2cf8 <__memory_size+0x80a34f8>
      44:	24030000 	li	v1,0
      48:	3e0b0b00 	0x3e0b0b00
      4c:	0008030b 	0x8030b
      50:	000f0400 	sll	zero,t7,0x10
      54:	00000b0b 	0xb0b
      58:	3f012e05 	0x3f012e05
      5c:	3a0e0319 	xori	t6,s0,0x319
      60:	270b3b0b 	addiu	t3,t8,15115
      64:	12011119 	beq	s0,at,44cc <__isr_vec_space+0x44ac>
      68:	97184006 	lhu	t8,16390(t8)
      6c:	13011942 	beq	t8,at,6578 <__isr_vec_space+0x6558>
      70:	05060000 	0x5060000
      74:	3a080300 	xori	t0,s0,0x300
      78:	490b3b0b 	bc2tl	$cc2,eca8 <__isr_vec_space+0xec88>
      7c:	00180213 	0x180213
      80:	00340700 	0x340700
      84:	0b3a0e03 	j	ce8380c <__memory_size+0xce6400c>
      88:	13490b3b 	beq	k0,t1,2d78 <__isr_vec_space+0x2d58>
      8c:	00000d1c 	0xd1c
      90:	03003408 	0x3003408
      94:	3b0b3a0e 	xori	t3,t8,0x3a0e
      98:	0213490b 	0x213490b
      9c:	09000018 	j	4000060 <__memory_size+0x3fe0860>
      a0:	0b0b000f 	j	c2c003c <__memory_size+0xc2a083c>
      a4:	00001349 	0x1349
      a8:	4900350a 	bc2f	d4d4 <__isr_vec_space+0xd4b4>
      ac:	0b000013 	j	c00004c <__memory_size+0xbfe084c>
      b0:	08030005 	j	c0014 <__memory_size+0xa0814>
      b4:	0b3b0b3a 	j	cec2ce8 <__memory_size+0xcea34e8>
      b8:	17021349 	bne	t8,v0,4de0 <__isr_vec_space+0x4dc0>
      bc:	340c0000 	li	t4,0x0
      c0:	3a080300 	xori	t0,s0,0x300
      c4:	490b3b0b 	bc2tl	$cc2,ecf4 <__isr_vec_space+0xecd4>
      c8:	00180213 	0x180213
      cc:	012e0d00 	0x12e0d00
      d0:	0e03193f 	jal	80c64fc <__memory_size+0x80a6cfc>
      d4:	0b3b0b3a 	j	cec2ce8 <__memory_size+0xcea34e8>
      d8:	01111349 	0x1111349
      dc:	18400612 	blez	v0,1928 <__isr_vec_space+0x1908>
      e0:	01194297 	0x1194297
      e4:	0e000013 	jal	800004c <__memory_size+0x7fe084c>
      e8:	08030034 	j	c00d0 <__memory_size+0xa08d0>
      ec:	0b3b0b3a 	j	cec2ce8 <__memory_size+0xcea34e8>
      f0:	061c1349 	0x61c1349
      f4:	340f0000 	li	t7,0x0
      f8:	3a080300 	xori	t0,s0,0x300
      fc:	490b3b0b 	bc2tl	$cc2,ed2c <__isr_vec_space+0xed0c>
     100:	00170213 	0x170213
     104:	82891000 	lb	t1,4096(s4)
     108:	01110001 	movt	zero,t0,$fcc4
     10c:	00001331 	tgeu	zero,zero,0x4c
     110:	01828911 	0x1828911
     114:	31011101 	andi	at,t0,0x1101
     118:	12000013 	beqz	s0,168 <__isr_vec_space+0x148>
     11c:	0001828a 	0x1828a
     120:	42911802 	c0	0x911802
     124:	13000018 	beqz	t8,188 <__isr_vec_space+0x168>
     128:	193f012e 	0x193f012e
     12c:	0b3a0e03 	j	ce8380c <__memory_size+0xce6400c>
     130:	19270b3b 	0x19270b3b
     134:	06120111 	bltzall	s0,57c <__isr_vec_space+0x55c>
     138:	42971840 	c0	0x971840
     13c:	14000019 	bnez	zero,1a4 <__isr_vec_space+0x184>
     140:	0e030005 	jal	80c0014 <__memory_size+0x80a0814>
     144:	0b3b0b3a 	j	cec2ce8 <__memory_size+0xcea34e8>
     148:	18021349 	0x18021349
     14c:	01000000 	0x1000000
     150:	0e250111 	jal	8940444 <__memory_size+0x8920c44>
     154:	0e030b13 	jal	80c2c4c <__memory_size+0x80a344c>
     158:	06120111 	bltzall	s0,5a0 <__isr_vec_space+0x580>
     15c:	00001710 	0x1710
     160:	0b002402 	j	c009008 <__memory_size+0xbfe9808>
     164:	030b3e0b 	0x30b3e0b
     168:	0300000e 	0x300000e
     16c:	0b0b0024 	j	c2c0090 <__memory_size+0xc2a0890>
     170:	08030b3e 	j	c2cf8 <__memory_size+0xa34f8>
     174:	0f040000 	jal	c100000 <__memory_size+0xc0e0800>
     178:	000b0b00 	sll	at,t3,0xc
     17c:	000f0500 	sll	zero,t7,0x14
     180:	13490b0b 	beq	k0,t1,2db0 <__isr_vec_space+0x2d90>
     184:	15060000 	bne	t0,a2,188 <__isr_vec_space+0x168>
     188:	00192700 	sll	a0,t9,0x1c
     18c:	01040700 	0x1040700
     190:	0b0b0e03 	j	c2c380c <__memory_size+0xc2a400c>
     194:	0b3b0b3a 	j	cec2ce8 <__memory_size+0xcea34e8>
     198:	00001301 	0x1301
     19c:	03002808 	0x3002808
     1a0:	000d1c0e 	0xd1c0e
     1a4:	012e0900 	0x12e0900
     1a8:	0e03193f 	jal	80c64fc <__memory_size+0x80a6cfc>
     1ac:	0b3b0b3a 	j	cec2ce8 <__memory_size+0xcea34e8>
     1b0:	13491927 	beq	k0,t1,6650 <__isr_vec_space+0x6630>
     1b4:	06120111 	bltzall	s0,5fc <__isr_vec_space+0x5dc>
     1b8:	42971840 	c0	0x971840
     1bc:	00130119 	0x130119
     1c0:	00050a00 	sll	at,a1,0x8
     1c4:	0b3a0803 	j	ce8200c <__memory_size+0xce6280c>
     1c8:	13490b3b 	beq	k0,t1,2eb8 <__isr_vec_space+0x2e98>
     1cc:	00001702 	srl	v0,zero,0x1c
     1d0:	0182890b 	0x182890b
     1d4:	31011101 	andi	at,t0,0x1101
     1d8:	0c000013 	jal	4c <__isr_vec_space+0x2c>
     1dc:	0001828a 	0x1828a
     1e0:	42911802 	c0	0x911802
     1e4:	0d000018 	jal	4000060 <__memory_size+0x3fe0860>
     1e8:	193f012e 	0x193f012e
     1ec:	0b3a0e03 	j	ce8380c <__memory_size+0xce6400c>
     1f0:	19270b3b 	0x19270b3b
     1f4:	193c1349 	0x193c1349
     1f8:	050e0000 	tnei	t0,0
     1fc:	00134900 	sll	t1,s3,0x4
     200:	11010000 	beq	t0,at,204 <__isr_vec_space+0x1e4>
     204:	130e2501 	beq	t8,t6,960c <__isr_vec_space+0x95ec>
     208:	110e030b 	beq	t0,t6,e38 <__isr_vec_space+0xe18>
     20c:	10061201 	beq	zero,a2,4a14 <__isr_vec_space+0x49f4>
     210:	02000017 	0x2000017
     214:	0b0b0024 	j	c2c0090 <__memory_size+0xc2a0890>
     218:	0e030b3e 	jal	80c2cf8 <__memory_size+0x80a34f8>
     21c:	24030000 	li	v1,0
     220:	3e0b0b00 	0x3e0b0b00
     224:	0008030b 	0x8030b
     228:	00160400 	sll	zero,s6,0x10
     22c:	0b3a0e03 	j	ce8380c <__memory_size+0xce6400c>
     230:	13490b3b 	beq	k0,t1,2f20 <__isr_vec_space+0x2f00>
     234:	16050000 	bne	s0,a1,238 <__isr_vec_space+0x218>
     238:	3a0e0300 	xori	t6,s0,0x300
     23c:	49053b0b 	bc2t	$cc1,ee6c <__isr_vec_space+0xee4c>
     240:	06000013 	bltz	s0,290 <__isr_vec_space+0x270>
     244:	0b0b0117 	j	c2c045c <__memory_size+0xc2a0c5c>
     248:	0b3b0b3a 	j	cec2ce8 <__memory_size+0xcea34e8>
     24c:	00001301 	0x1301
     250:	03000d07 	0x3000d07
     254:	3b0b3a0e 	xori	t3,t8,0x3a0e
     258:	0013490b 	0x13490b
     25c:	01010800 	0x1010800
     260:	13011349 	beq	t8,at,4f88 <__isr_vec_space+0x4f68>
     264:	21090000 	addi	t1,t0,0
     268:	2f134900 	sltiu	s3,t8,18688
     26c:	0a00000b 	j	800002c <__memory_size+0x7fe082c>
     270:	0b0b0113 	j	c2c044c <__memory_size+0xc2a0c4c>
     274:	0b3b0b3a 	j	cec2ce8 <__memory_size+0xcea34e8>
     278:	00001301 	0x1301
     27c:	03000d0b 	0x3000d0b
     280:	3b0b3a0e 	xori	t3,t8,0x3a0e
     284:	3813490b 	xori	s3,zero,0x490b
     288:	0c00000b 	jal	2c <__isr_vec_space+0xc>
     28c:	0b0b000f 	j	c2c003c <__memory_size+0xc2a083c>
     290:	130d0000 	beq	t8,t5,294 <__isr_vec_space+0x274>
     294:	0b0e0301 	j	c380c04 <__memory_size+0xc361404>
     298:	3b0b3a0b 	xori	t3,t8,0x3a0b
     29c:	0013010b 	0x13010b
     2a0:	000d0e00 	sll	at,t5,0x18
     2a4:	0b3a0803 	j	ce8200c <__memory_size+0xce6280c>
     2a8:	13490b3b 	beq	k0,t1,2f98 <__isr_vec_space+0x2f78>
     2ac:	00000b38 	0xb38
     2b0:	0b000f0f 	j	c003c3c <__memory_size+0xbfe443c>
     2b4:	0013490b 	0x13490b
     2b8:	01131000 	0x1131000
     2bc:	050b0e03 	tltiu	t0,3587
     2c0:	0b3b0b3a 	j	cec2ce8 <__memory_size+0xcea34e8>
     2c4:	00001301 	0x1301
     2c8:	03000d11 	0x3000d11
     2cc:	3b0b3a0e 	xori	t3,t8,0x3a0e
     2d0:	3813490b 	xori	s3,zero,0x490b
     2d4:	12000005 	beqz	s0,2ec <__isr_vec_space+0x2cc>
     2d8:	19270015 	0x19270015
     2dc:	15130000 	bne	t0,s3,2e0 <__isr_vec_space+0x2c0>
     2e0:	49192701 	bc2t	$cc6,9ee8 <__isr_vec_space+0x9ec8>
     2e4:	00130113 	0x130113
     2e8:	00051400 	sll	v0,a1,0x10
     2ec:	00001349 	0x1349
     2f0:	03011315 	0x3011315
     2f4:	3a050b0e 	xori	a1,s0,0xb0e
     2f8:	01053b0b 	0x1053b0b
     2fc:	16000013 	bnez	s0,34c <__isr_vec_space+0x32c>
     300:	0e03000d 	jal	80c0034 <__memory_size+0x80a0834>
     304:	053b0b3a 	0x53b0b3a
     308:	0b381349 	j	ce04d24 <__memory_size+0xcde5524>
     30c:	0d170000 	jal	45c0000 <__memory_size+0x45a0800>
     310:	3a0e0300 	xori	t6,s0,0x300
     314:	49053b0b 	bc2t	$cc1,ef44 <__isr_vec_space+0xef24>
     318:	00053813 	0x53813
     31c:	00261800 	0x261800
     320:	00001349 	0x1349
     324:	03011319 	0x3011319
     328:	3a0b0b0e 	xori	t3,s0,0xb0e
     32c:	01053b0b 	0x1053b0b
     330:	1a000013 	blez	s0,380 <__isr_vec_space+0x360>
     334:	0b0b0113 	j	c2c044c <__memory_size+0xc2a0c4c>
     338:	053b0b3a 	0x53b0b3a
     33c:	00001301 	0x1301
     340:	0b01171b 	j	c045c6c <__memory_size+0xc02646c>
     344:	3b0b3a0b 	xori	t3,t8,0x3a0b
     348:	00130105 	0x130105
     34c:	000d1c00 	sll	v1,t5,0x10
     350:	0b3a0e03 	j	ce8380c <__memory_size+0xce6400c>
     354:	1349053b 	beq	k0,t1,1844 <__isr_vec_space+0x1824>
     358:	151d0000 	bne	t0,sp,35c <__isr_vec_space+0x33c>
     35c:	01192701 	0x1192701
     360:	1e000013 	bgtz	s0,3b0 <__isr_vec_space+0x390>
     364:	193f012e 	0x193f012e
     368:	0b3a0e03 	j	ce8380c <__memory_size+0xce6400c>
     36c:	19270b3b 	0x19270b3b
     370:	06120111 	bltzall	s0,7b8 <__isr_vec_space+0x798>
     374:	42961840 	c0	0x961840
     378:	00130119 	0x130119
     37c:	00051f00 	sll	v1,a1,0x1c
     380:	0b3a0e03 	j	ce8380c <__memory_size+0xce6400c>
     384:	13490b3b 	beq	k0,t1,3074 <__isr_vec_space+0x3054>
     388:	00001702 	srl	v0,zero,0x1c
     38c:	01828920 	0x1828920
     390:	31011101 	andi	at,t0,0x1101
     394:	00130113 	0x130113
     398:	828a2100 	lb	t2,8448(s4)
     39c:	18020001 	0x18020001
     3a0:	00184291 	0x184291
     3a4:	82892200 	lb	t1,8704(s4)
     3a8:	01110101 	0x1110101
     3ac:	00001331 	tgeu	zero,zero,0x4c
     3b0:	03003423 	0x3003423
     3b4:	3b0b3a0e 	xori	t3,t8,0x3a0e
     3b8:	3f134905 	0x3f134905
     3bc:	00193c19 	0x193c19
     3c0:	012e2400 	0x12e2400
     3c4:	0e03193f 	jal	80c64fc <__memory_size+0x80a6cfc>
     3c8:	0b3b0b3a 	j	cec2ce8 <__memory_size+0xcea34e8>
     3cc:	193c1927 	0x193c1927
     3d0:	00001301 	0x1301
     3d4:	3f012e25 	0x3f012e25
     3d8:	3a0e0319 	xori	t6,s0,0x319
     3dc:	270b3b0b 	addiu	t3,t8,15115
     3e0:	00193c19 	0x193c19
     3e4:	11010000 	beq	t0,at,3e8 <__isr_vec_space+0x3c8>
     3e8:	130e2501 	beq	t8,t6,97f0 <__isr_vec_space+0x97d0>
     3ec:	100e030b 	beq	zero,t6,101c <__isr_vec_space+0xffc>
     3f0:	02000017 	0x2000017
     3f4:	0b0b0024 	j	c2c0090 <__memory_size+0xc2a0890>
     3f8:	0e030b3e 	jal	80c2cf8 <__memory_size+0x80a34f8>
     3fc:	24030000 	li	v1,0
     400:	3e0b0b00 	0x3e0b0b00
     404:	0008030b 	0x8030b
     408:	00160400 	sll	zero,s6,0x10
     40c:	0b3a0e03 	j	ce8380c <__memory_size+0xce6400c>
     410:	13490b3b 	beq	k0,t1,3100 <__isr_vec_space+0x30e0>
     414:	16050000 	bne	s0,a1,418 <__isr_vec_space+0x3f8>
     418:	3a0e0300 	xori	t6,s0,0x300
     41c:	49053b0b 	bc2t	$cc1,f04c <__isr_vec_space+0xf02c>
     420:	06000013 	bltz	s0,470 <__isr_vec_space+0x450>
     424:	0b0b0117 	j	c2c045c <__memory_size+0xc2a0c5c>
     428:	0b3b0b3a 	j	cec2ce8 <__memory_size+0xcea34e8>
     42c:	00001301 	0x1301
     430:	03000d07 	0x3000d07
     434:	3b0b3a0e 	xori	t3,t8,0x3a0e
     438:	0013490b 	0x13490b
     43c:	01010800 	0x1010800
     440:	13011349 	beq	t8,at,5168 <__isr_vec_space+0x5148>
     444:	21090000 	addi	t1,t0,0
     448:	2f134900 	sltiu	s3,t8,18688
     44c:	0a00000b 	j	800002c <__memory_size+0x7fe082c>
     450:	0b0b0113 	j	c2c044c <__memory_size+0xc2a0c4c>
     454:	0b3b0b3a 	j	cec2ce8 <__memory_size+0xcea34e8>
     458:	00001301 	0x1301
     45c:	03000d0b 	0x3000d0b
     460:	3b0b3a0e 	xori	t3,t8,0x3a0e
     464:	3813490b 	xori	s3,zero,0x490b
     468:	0c00000b 	jal	2c <__isr_vec_space+0xc>
     46c:	0b0b000f 	j	c2c003c <__memory_size+0xc2a083c>
     470:	130d0000 	beq	t8,t5,474 <__isr_vec_space+0x454>
     474:	0b0e0301 	j	c380c04 <__memory_size+0xc361404>
     478:	3b0b3a0b 	xori	t3,t8,0x3a0b
     47c:	0013010b 	0x13010b
     480:	000d0e00 	sll	at,t5,0x18
     484:	0b3a0803 	j	ce8200c <__memory_size+0xce6280c>
     488:	13490b3b 	beq	k0,t1,3178 <__isr_vec_space+0x3158>
     48c:	00000b38 	0xb38
     490:	0b000f0f 	j	c003c3c <__memory_size+0xbfe443c>
     494:	0013490b 	0x13490b
     498:	01131000 	0x1131000
     49c:	050b0e03 	tltiu	t0,3587
     4a0:	0b3b0b3a 	j	cec2ce8 <__memory_size+0xcea34e8>
     4a4:	00001301 	0x1301
     4a8:	03000d11 	0x3000d11
     4ac:	3b0b3a0e 	xori	t3,t8,0x3a0e
     4b0:	3813490b 	xori	s3,zero,0x490b
     4b4:	12000005 	beqz	s0,4cc <__isr_vec_space+0x4ac>
     4b8:	19270015 	0x19270015
     4bc:	15130000 	bne	t0,s3,4c0 <__isr_vec_space+0x4a0>
     4c0:	49192701 	bc2t	$cc6,a0c8 <__isr_vec_space+0xa0a8>
     4c4:	00130113 	0x130113
     4c8:	00051400 	sll	v0,a1,0x10
     4cc:	00001349 	0x1349
     4d0:	03011315 	0x3011315
     4d4:	3a050b0e 	xori	a1,s0,0xb0e
     4d8:	01053b0b 	0x1053b0b
     4dc:	16000013 	bnez	s0,52c <__isr_vec_space+0x50c>
     4e0:	0e03000d 	jal	80c0034 <__memory_size+0x80a0834>
     4e4:	053b0b3a 	0x53b0b3a
     4e8:	0b381349 	j	ce04d24 <__memory_size+0xcde5524>
     4ec:	0d170000 	jal	45c0000 <__memory_size+0x45a0800>
     4f0:	3a0e0300 	xori	t6,s0,0x300
     4f4:	49053b0b 	bc2t	$cc1,f124 <__isr_vec_space+0xf104>
     4f8:	00053813 	0x53813
     4fc:	00261800 	0x261800
     500:	00001349 	0x1349
     504:	03011319 	0x3011319
     508:	3a0b0b0e 	xori	t3,s0,0xb0e
     50c:	01053b0b 	0x1053b0b
     510:	1a000013 	blez	s0,560 <__isr_vec_space+0x540>
     514:	0b0b0113 	j	c2c044c <__memory_size+0xc2a0c4c>
     518:	053b0b3a 	0x53b0b3a
     51c:	00001301 	0x1301
     520:	0b01171b 	j	c045c6c <__memory_size+0xc02646c>
     524:	3b0b3a0b 	xori	t3,t8,0x3a0b
     528:	00130105 	0x130105
     52c:	000d1c00 	sll	v1,t5,0x10
     530:	0b3a0e03 	j	ce8380c <__memory_size+0xce6400c>
     534:	1349053b 	beq	k0,t1,1a24 <__isr_vec_space+0x1a04>
     538:	151d0000 	bne	t0,sp,53c <__isr_vec_space+0x51c>
     53c:	01192701 	0x1192701
     540:	1e000013 	bgtz	s0,590 <__isr_vec_space+0x570>
     544:	0e030034 	jal	80c00d0 <__memory_size+0x80a08d0>
     548:	0b3b0b3a 	j	cec2ce8 <__memory_size+0xcea34e8>
     54c:	18021349 	0x18021349
     550:	341f0000 	li	ra,0x0
     554:	3a0e0300 	xori	t6,s0,0x300
     558:	49053b0b 	bc2t	$cc1,f188 <__isr_vec_space+0xf168>
     55c:	02193f13 	0x2193f13
     560:	00000018 	mult	zero,zero
     564:	25011101 	addiu	at,t0,4353
     568:	030b130e 	0x30b130e
     56c:	1201110e 	beq	s0,at,49a8 <__isr_vec_space+0x4988>
     570:	00171006 	srlv	v0,s7,zero
     574:	00240200 	0x240200
     578:	0b3e0b0b 	j	cf82c2c <__memory_size+0xcf6342c>
     57c:	00000e03 	sra	at,zero,0x18
     580:	03001603 	0x3001603
     584:	3b0b3a0e 	xori	t3,t8,0x3a0e
     588:	0013490b 	0x13490b
     58c:	00240400 	0x240400
     590:	0b3e0b0b 	j	cf82c2c <__memory_size+0xcf6342c>
     594:	00000803 	sra	at,zero,0x0
     598:	03001605 	0x3001605
     59c:	3b0b3a0e 	xori	t3,t8,0x3a0e
     5a0:	00134905 	0x134905
     5a4:	01170600 	0x1170600
     5a8:	0b3a0b0b 	j	ce82c2c <__memory_size+0xce6342c>
     5ac:	13010b3b 	beq	t8,at,329c <__isr_vec_space+0x327c>
     5b0:	0d070000 	jal	41c0000 <__memory_size+0x41a0800>
     5b4:	3a0e0300 	xori	t6,s0,0x300
     5b8:	490b3b0b 	bc2tl	$cc2,f1e8 <__isr_vec_space+0xf1c8>
     5bc:	08000013 	j	4c <__isr_vec_space+0x2c>
     5c0:	13490101 	beq	k0,t1,9c8 <__isr_vec_space+0x9a8>
     5c4:	00001301 	0x1301
     5c8:	49002109 	bc2f	89f0 <__isr_vec_space+0x89d0>
     5cc:	000b2f13 	0xb2f13
     5d0:	01130a00 	0x1130a00
     5d4:	0b3a0b0b 	j	ce82c2c <__memory_size+0xce6342c>
     5d8:	13010b3b 	beq	t8,at,32c8 <__isr_vec_space+0x32a8>
     5dc:	0d0b0000 	jal	42c0000 <__memory_size+0x42a0800>
     5e0:	3a0e0300 	xori	t6,s0,0x300
     5e4:	490b3b0b 	bc2tl	$cc2,f214 <__isr_vec_space+0xf1f4>
     5e8:	000b3813 	0xb3813
     5ec:	000f0c00 	sll	at,t7,0x10
     5f0:	00000b0b 	0xb0b
     5f4:	0301130d 	break	0x301,0x4c
     5f8:	3a0b0b0e 	xori	t3,s0,0xb0e
     5fc:	010b3b0b 	0x10b3b0b
     600:	0e000013 	jal	800004c <__memory_size+0x7fe084c>
     604:	0803000d 	j	c0034 <__memory_size+0xa0834>
     608:	0b3b0b3a 	j	cec2ce8 <__memory_size+0xcea34e8>
     60c:	0b381349 	j	ce04d24 <__memory_size+0xcde5524>
     610:	0f0f0000 	jal	c3c0000 <__memory_size+0xc3a0800>
     614:	490b0b00 	bc2tl	$cc2,3218 <__isr_vec_space+0x31f8>
     618:	10000013 	b	668 <__isr_vec_space+0x648>
     61c:	0e030113 	jal	80c044c <__memory_size+0x80a0c4c>
     620:	0b3a050b 	j	ce8142c <__memory_size+0xce61c2c>
     624:	13010b3b 	beq	t8,at,3314 <__isr_vec_space+0x32f4>
     628:	0d110000 	jal	4440000 <__memory_size+0x4420800>
     62c:	3a0e0300 	xori	t6,s0,0x300
     630:	490b3b0b 	bc2tl	$cc2,f260 <__isr_vec_space+0xf240>
     634:	00053813 	0x53813
     638:	00151200 	sll	v0,s5,0x8
     63c:	00001927 	0x1927
     640:	27011513 	addiu	at,t8,5395
     644:	01134919 	0x1134919
     648:	14000013 	bnez	zero,698 <__isr_vec_space+0x678>
     64c:	13490005 	beq	k0,t1,664 <__isr_vec_space+0x644>
     650:	13150000 	beq	t8,s5,654 <__isr_vec_space+0x634>
     654:	0b0e0301 	j	c380c04 <__memory_size+0xc361404>
     658:	3b0b3a05 	xori	t3,t8,0x3a05
     65c:	00130105 	0x130105
     660:	000d1600 	sll	v0,t5,0x18
     664:	0b3a0e03 	j	ce8380c <__memory_size+0xce6400c>
     668:	1349053b 	beq	k0,t1,1b58 <__isr_vec_space+0x1b38>
     66c:	00000b38 	0xb38
     670:	03000d17 	0x3000d17
     674:	3b0b3a0e 	xori	t3,t8,0x3a0e
     678:	38134905 	xori	s3,zero,0x4905
     67c:	18000005 	blez	zero,694 <__isr_vec_space+0x674>
     680:	13490026 	beq	k0,t1,71c <__isr_vec_space+0x6fc>
     684:	13190000 	beq	t8,t9,688 <__isr_vec_space+0x668>
     688:	0b0e0301 	j	c380c04 <__memory_size+0xc361404>
     68c:	3b0b3a0b 	xori	t3,t8,0x3a0b
     690:	00130105 	0x130105
     694:	01131a00 	0x1131a00
     698:	0b3a0b0b 	j	ce82c2c <__memory_size+0xce6342c>
     69c:	1301053b 	beq	t8,at,1b8c <__isr_vec_space+0x1b6c>
     6a0:	171b0000 	bne	t8,k1,6a4 <__isr_vec_space+0x684>
     6a4:	3a0b0b01 	xori	t3,s0,0xb01
     6a8:	01053b0b 	0x1053b0b
     6ac:	1c000013 	bgtz	zero,6fc <__isr_vec_space+0x6dc>
     6b0:	0e03000d 	jal	80c0034 <__memory_size+0x80a0834>
     6b4:	053b0b3a 	0x53b0b3a
     6b8:	00001349 	0x1349
     6bc:	2701151d 	addiu	at,t8,5405
     6c0:	00130119 	0x130119
     6c4:	01041e00 	0x1041e00
     6c8:	0b0b0e03 	j	c2c380c <__memory_size+0xc2a400c>
     6cc:	0b3b0b3a 	j	cec2ce8 <__memory_size+0xcea34e8>
     6d0:	00001301 	0x1301
     6d4:	0300281f 	0x300281f
     6d8:	000d1c0e 	0xd1c0e
     6dc:	012e2000 	0x12e2000
     6e0:	0e03193f 	jal	80c64fc <__memory_size+0x80a6cfc>
     6e4:	0b3b0b3a 	j	cec2ce8 <__memory_size+0xcea34e8>
     6e8:	13491927 	beq	k0,t1,6b88 <__isr_vec_space+0x6b68>
     6ec:	06120111 	bltzall	s0,b34 <__isr_vec_space+0xb14>
     6f0:	42971840 	c0	0x971840
     6f4:	00130119 	0x130119
     6f8:	00052100 	sll	a0,a1,0x4
     6fc:	0b3a0e03 	j	ce8380c <__memory_size+0xce6400c>
     700:	13490b3b 	beq	k0,t1,33f0 <__isr_vec_space+0x33d0>
     704:	00001702 	srl	v0,zero,0x1c
     708:	03000522 	0x3000522
     70c:	3b0b3a08 	xori	t3,t8,0x3a08
     710:	0213490b 	0x213490b
     714:	23000017 	addi	zero,t8,23
     718:	0e030034 	jal	80c00d0 <__memory_size+0x80a08d0>
     71c:	0b3b0b3a 	j	cec2ce8 <__memory_size+0xcea34e8>
     720:	17021349 	bne	t8,v0,5448 <__isr_vec_space+0x5428>
     724:	34240000 	ori	a0,at,0x0
     728:	3a080300 	xori	t0,s0,0x300
     72c:	490b3b0b 	bc2tl	$cc2,f35c <__isr_vec_space+0xf33c>
     730:	00170213 	0x170213
     734:	82892500 	lb	t1,9472(s4)
     738:	01110101 	0x1110101
     73c:	00001331 	tgeu	zero,zero,0x4c
     740:	01828a26 	0x1828a26
     744:	91180200 	lbu	t8,512(t0)
     748:	00001842 	srl	v1,zero,0x1
     74c:	03003427 	0x3003427
     750:	3b0b3a0e 	xori	t3,t8,0x3a0e
     754:	3f134905 	0x3f134905
     758:	00193c19 	0x193c19
     75c:	012e2800 	0x12e2800
     760:	0e03193f 	jal	80c64fc <__memory_size+0x80a6cfc>
     764:	0b3b0b3a 	j	cec2ce8 <__memory_size+0xcea34e8>
     768:	13491927 	beq	k0,t1,6c08 <__isr_vec_space+0x6be8>
     76c:	0000193c 	0x193c
     770:	01110100 	0x1110100
     774:	0b130e25 	j	c4c3894 <__memory_size+0xc4a4094>
     778:	01110e03 	0x1110e03
     77c:	17100612 	bne	t8,s0,1fc8 <__isr_vec_space+0x1fa8>
     780:	24020000 	li	v0,0
     784:	3e0b0b00 	0x3e0b0b00
     788:	000e030b 	0xe030b
     78c:	00240300 	0x240300
     790:	0b3e0b0b 	j	cf82c2c <__memory_size+0xcf6342c>
     794:	00000803 	sra	at,zero,0x0
     798:	03001604 	0x3001604
     79c:	3b0b3a0e 	xori	t3,t8,0x3a0e
     7a0:	0013490b 	0x13490b
     7a4:	00160500 	sll	zero,s6,0x14
     7a8:	0b3a0e03 	j	ce8380c <__memory_size+0xce6400c>
     7ac:	1349053b 	beq	k0,t1,1c9c <__isr_vec_space+0x1c7c>
     7b0:	17060000 	bne	t8,a2,7b4 <__isr_vec_space+0x794>
     7b4:	3a0b0b01 	xori	t3,s0,0xb01
     7b8:	010b3b0b 	0x10b3b0b
     7bc:	07000013 	bltz	t8,80c <__isr_vec_space+0x7ec>
     7c0:	0e03000d 	jal	80c0034 <__memory_size+0x80a0834>
     7c4:	0b3b0b3a 	j	cec2ce8 <__memory_size+0xcea34e8>
     7c8:	00001349 	0x1349
     7cc:	49010108 	bc2t	bf0 <__isr_vec_space+0xbd0>
     7d0:	00130113 	0x130113
     7d4:	00210900 	0x210900
     7d8:	0b2f1349 	j	cbc4d24 <__memory_size+0xcba5524>
     7dc:	130a0000 	beq	t8,t2,7e0 <__isr_vec_space+0x7c0>
     7e0:	3a0b0b01 	xori	t3,s0,0xb01
     7e4:	010b3b0b 	0x10b3b0b
     7e8:	0b000013 	j	c00004c <__memory_size+0xbfe084c>
     7ec:	0e03000d 	jal	80c0034 <__memory_size+0x80a0834>
     7f0:	0b3b0b3a 	j	cec2ce8 <__memory_size+0xcea34e8>
     7f4:	0b381349 	j	ce04d24 <__memory_size+0xcde5524>
     7f8:	0f0c0000 	jal	c300000 <__memory_size+0xc2e0800>
     7fc:	000b0b00 	sll	at,t3,0xc
     800:	01130d00 	0x1130d00
     804:	0b0b0e03 	j	c2c380c <__memory_size+0xc2a400c>
     808:	0b3b0b3a 	j	cec2ce8 <__memory_size+0xcea34e8>
     80c:	00001301 	0x1301
     810:	03000d0e 	0x3000d0e
     814:	3b0b3a08 	xori	t3,t8,0x3a08
     818:	3813490b 	xori	s3,zero,0x490b
     81c:	0f00000b 	jal	c00002c <__memory_size+0xbfe082c>
     820:	0b0b000f 	j	c2c003c <__memory_size+0xc2a083c>
     824:	00001349 	0x1349
     828:	03011310 	0x3011310
     82c:	3a050b0e 	xori	a1,s0,0xb0e
     830:	010b3b0b 	0x10b3b0b
     834:	11000013 	beqz	t0,884 <__isr_vec_space+0x864>
     838:	0e03000d 	jal	80c0034 <__memory_size+0x80a0834>
     83c:	0b3b0b3a 	j	cec2ce8 <__memory_size+0xcea34e8>
     840:	05381349 	0x5381349
     844:	15120000 	bne	t0,s2,848 <__isr_vec_space+0x828>
     848:	00192700 	sll	a0,t9,0x1c
     84c:	01151300 	0x1151300
     850:	13491927 	beq	k0,t1,6cf0 <__isr_vec_space+0x6cd0>
     854:	00001301 	0x1301
     858:	49000514 	bc2f	1cac <__isr_vec_space+0x1c8c>
     85c:	15000013 	bnez	t0,8ac <__isr_vec_space+0x88c>
     860:	0e030113 	jal	80c044c <__memory_size+0x80a0c4c>
     864:	0b3a050b 	j	ce8142c <__memory_size+0xce61c2c>
     868:	1301053b 	beq	t8,at,1d58 <__isr_vec_space+0x1d38>
     86c:	0d160000 	jal	4580000 <__memory_size+0x4560800>
     870:	3a0e0300 	xori	t6,s0,0x300
     874:	49053b0b 	bc2t	$cc1,f4a4 <__isr_vec_space+0xf484>
     878:	000b3813 	0xb3813
     87c:	000d1700 	sll	v0,t5,0x1c
     880:	0b3a0e03 	j	ce8380c <__memory_size+0xce6400c>
     884:	1349053b 	beq	k0,t1,1d74 <__isr_vec_space+0x1d54>
     888:	00000538 	0x538
     88c:	49002618 	bc2f	a0f0 <__isr_vec_space+0xa0d0>
     890:	19000013 	blez	t0,8e0 <__isr_vec_space+0x8c0>
     894:	0e030113 	jal	80c044c <__memory_size+0x80a0c4c>
     898:	0b3a0b0b 	j	ce82c2c <__memory_size+0xce6342c>
     89c:	1301053b 	beq	t8,at,1d8c <__isr_vec_space+0x1d6c>
     8a0:	131a0000 	beq	t8,k0,8a4 <__isr_vec_space+0x884>
     8a4:	3a0b0b01 	xori	t3,s0,0xb01
     8a8:	01053b0b 	0x1053b0b
     8ac:	1b000013 	blez	t8,8fc <__isr_vec_space+0x8dc>
     8b0:	0b0b0117 	j	c2c045c <__memory_size+0xc2a0c5c>
     8b4:	053b0b3a 	0x53b0b3a
     8b8:	00001301 	0x1301
     8bc:	03000d1c 	0x3000d1c
     8c0:	3b0b3a0e 	xori	t3,t8,0x3a0e
     8c4:	00134905 	0x134905
     8c8:	01151d00 	0x1151d00
     8cc:	13011927 	beq	t8,at,6d6c <__isr_vec_space+0x6d4c>
     8d0:	2e1e0000 	sltiu	s8,s0,0
     8d4:	03193f01 	0x3193f01
     8d8:	3b0b3a0e 	xori	t3,t8,0x3a0e
     8dc:	1119270b 	beq	t0,t9,a50c <__isr_vec_space+0xa4ec>
     8e0:	40061201 	0x40061201
     8e4:	19429618 	0x19429618
     8e8:	00001301 	0x1301
     8ec:	0300051f 	0x300051f
     8f0:	3b0b3a0e 	xori	t3,t8,0x3a0e
     8f4:	0213490b 	0x213490b
     8f8:	20000017 	addi	zero,zero,23
     8fc:	08030005 	j	c0014 <__memory_size+0xa0814>
     900:	0b3b0b3a 	j	cec2ce8 <__memory_size+0xcea34e8>
     904:	17021349 	bne	t8,v0,562c <__isr_vec_space+0x560c>
     908:	34210000 	ori	at,at,0x0
     90c:	3a080300 	xori	t0,s0,0x300
     910:	490b3b0b 	bc2tl	$cc2,f540 <__isr_vec_space+0xf520>
     914:	00170213 	0x170213
     918:	00342200 	0x342200
     91c:	0b3a0e03 	j	ce8380c <__memory_size+0xce6400c>
     920:	13490b3b 	beq	k0,t1,3610 <__isr_vec_space+0x35f0>
     924:	00001702 	srl	v0,zero,0x1c
     928:	03000a23 	0x3000a23
     92c:	3b0b3a0e 	xori	t3,t8,0x3a0e
     930:	2400000b 	li	zero,11
     934:	1755010b 	bne	k0,s5,d64 <__isr_vec_space+0xd44>
     938:	00001301 	0x1301
     93c:	01828925 	0x1828925
     940:	00011101 	0x11101
     944:	828a2600 	lb	t2,9728(s4)
     948:	18020001 	0x18020001
     94c:	00184291 	0x184291
     950:	82892700 	lb	t1,9984(s4)
     954:	01110101 	0x1110101
     958:	00001331 	tgeu	zero,zero,0x4c
     95c:	03003428 	0x3003428
     960:	3b0b3a0e 	xori	t3,t8,0x3a0e
     964:	1c13490b 	0x1c13490b
     968:	2900000b 	slti	zero,t0,11
     96c:	0e030034 	jal	80c00d0 <__memory_size+0x80a08d0>
     970:	053b0b3a 	0x53b0b3a
     974:	193f1349 	0x193f1349
     978:	0000193c 	0x193c
     97c:	3f012e2a 	0x3f012e2a
     980:	3a0e0319 	xori	t6,s0,0x319
     984:	270b3b0b 	addiu	t3,t8,15115
     988:	00193c19 	0x193c19
     98c:	11010000 	beq	t0,at,990 <__isr_vec_space+0x970>
     990:	130e2501 	beq	t8,t6,9d98 <__isr_vec_space+0x9d78>
     994:	110e030b 	beq	t0,t6,15c4 <__isr_vec_space+0x15a4>
     998:	10061201 	beq	zero,a2,51a0 <__isr_vec_space+0x5180>
     99c:	02000017 	0x2000017
     9a0:	0b0b0024 	j	c2c0090 <__memory_size+0xc2a0890>
     9a4:	0e030b3e 	jal	80c2cf8 <__memory_size+0x80a34f8>
     9a8:	16030000 	bne	s0,v1,9ac <__isr_vec_space+0x98c>
     9ac:	3a0e0300 	xori	t6,s0,0x300
     9b0:	490b3b0b 	bc2tl	$cc2,f5e0 <__isr_vec_space+0xf5c0>
     9b4:	04000013 	bltz	zero,a04 <__isr_vec_space+0x9e4>
     9b8:	0b0b0024 	j	c2c0090 <__memory_size+0xc2a0890>
     9bc:	08030b3e 	j	c2cf8 <__memory_size+0xa34f8>
     9c0:	2e050000 	sltiu	a1,s0,0
     9c4:	03193f01 	0x3193f01
     9c8:	3b0b3a0e 	xori	t3,t8,0x3a0e
     9cc:	1119270b 	beq	t0,t9,a5fc <__isr_vec_space+0xa5dc>
     9d0:	40061201 	0x40061201
     9d4:	19429718 	0x19429718
     9d8:	00001301 	0x1301
     9dc:	03000506 	0x3000506
     9e0:	3b0b3a0e 	xori	t3,t8,0x3a0e
     9e4:	0213490b 	0x213490b
     9e8:	07000017 	bltz	t8,a48 <__isr_vec_space+0xa28>
     9ec:	0e030034 	jal	80c00d0 <__memory_size+0x80a08d0>
     9f0:	0b3b0b3a 	j	cec2ce8 <__memory_size+0xcea34e8>
     9f4:	18021349 	0x18021349
     9f8:	34080000 	li	t0,0x0
     9fc:	3a080300 	xori	t0,s0,0x300
     a00:	490b3b0b 	bc2tl	$cc2,f630 <__isr_vec_space+0xf610>
     a04:	00180213 	0x180213
     a08:	82890900 	lb	t1,2304(s4)
     a0c:	01110101 	0x1110101
     a10:	13011331 	beq	t8,at,56d8 <__isr_vec_space+0x56b8>
     a14:	8a0a0000 	lwl	t2,0(s0)
     a18:	02000182 	0x2000182
     a1c:	18429118 	0x18429118
     a20:	890b0000 	lwl	t3,0(t0)
     a24:	11000182 	beqz	t0,1030 <__isr_vec_space+0x1010>
     a28:	00133101 	0x133101
     a2c:	01010c00 	0x1010c00
     a30:	13011349 	beq	t8,at,5758 <__isr_vec_space+0x5738>
     a34:	210d0000 	addi	t5,t0,0
     a38:	0e000000 	jal	8000000 <__memory_size+0x7fe0800>
     a3c:	0e030034 	jal	80c00d0 <__memory_size+0x80a08d0>
     a40:	0b3b0b3a 	j	cec2ce8 <__memory_size+0xcea34e8>
     a44:	193f1349 	0x193f1349
     a48:	0000193c 	0x193c
     a4c:	3f012e0f 	0x3f012e0f
     a50:	3a0e0319 	xori	t6,s0,0x319
     a54:	270b3b0b 	addiu	t3,t8,15115
     a58:	01193c19 	0x1193c19
     a5c:	10000013 	b	aac <__isr_vec_space+0xa8c>
     a60:	13490005 	beq	k0,t1,a78 <__isr_vec_space+0xa58>
     a64:	2e110000 	sltiu	s1,s0,0
     a68:	03193f00 	0x3193f00
     a6c:	3b0b3a0e 	xori	t3,t8,0x3a0e
     a70:	4919270b 	bc2t	$cc6,a6a0 <__isr_vec_space+0xa680>
     a74:	00193c13 	0x193c13
     a78:	11010000 	beq	t0,at,a7c <__isr_vec_space+0xa5c>
     a7c:	11061000 	beq	t0,a2,4a80 <__isr_vec_space+0x4a60>
     a80:	03011201 	0x3011201
     a84:	25081b08 	addiu	t0,t0,6920
     a88:	00051308 	0x51308
     a8c:	11010000 	beq	t0,at,a90 <__isr_vec_space+0xa70>
     a90:	130e2501 	beq	t8,t6,9e98 <__isr_vec_space+0x9e78>
     a94:	110e030b 	beq	t0,t6,16c4 <__isr_vec_space+0x16a4>
     a98:	10061201 	beq	zero,a2,52a0 <__isr_vec_space+0x5280>
     a9c:	02000017 	0x2000017
     aa0:	0b0b0024 	j	c2c0090 <__memory_size+0xc2a0890>
     aa4:	0e030b3e 	jal	80c2cf8 <__memory_size+0x80a34f8>
     aa8:	16030000 	bne	s0,v1,aac <__isr_vec_space+0xa8c>
     aac:	3a0e0300 	xori	t6,s0,0x300
     ab0:	490b3b0b 	bc2tl	$cc2,f6e0 <__isr_vec_space+0xf6c0>
     ab4:	04000013 	bltz	zero,b04 <__isr_vec_space+0xae4>
     ab8:	0b0b0024 	j	c2c0090 <__memory_size+0xc2a0890>
     abc:	08030b3e 	j	c2cf8 <__memory_size+0xa34f8>
     ac0:	0f050000 	jal	c140000 <__memory_size+0xc120800>
     ac4:	000b0b00 	sll	at,t3,0xc
     ac8:	012e0600 	0x12e0600
     acc:	0e03193f 	jal	80c64fc <__memory_size+0x80a6cfc>
     ad0:	0b3b0b3a 	j	cec2ce8 <__memory_size+0xcea34e8>
     ad4:	01111927 	0x1111927
     ad8:	18400612 	blez	v0,2324 <__isr_vec_space+0x2304>
     adc:	01194297 	0x1194297
     ae0:	07000013 	bltz	t8,b30 <__isr_vec_space+0xb10>
     ae4:	0e030005 	jal	80c0014 <__memory_size+0x80a0814>
     ae8:	0b3b0b3a 	j	cec2ce8 <__memory_size+0xcea34e8>
     aec:	17021349 	bne	t8,v0,5814 <__isr_vec_space+0x57f4>
     af0:	34080000 	li	t0,0x0
     af4:	3a080300 	xori	t0,s0,0x300
     af8:	490b3b0b 	bc2tl	$cc2,f728 <__isr_vec_space+0xf708>
     afc:	00180213 	0x180213
     b00:	00340900 	0x340900
     b04:	0b3a0e03 	j	ce8380c <__memory_size+0xce6400c>
     b08:	13490b3b 	beq	k0,t1,37f8 <__isr_vec_space+0x37d8>
     b0c:	00001802 	srl	v1,zero,0x0
     b10:	0b000f0a 	j	c003c28 <__memory_size+0xbfe4428>
     b14:	0013490b 	0x13490b
     b18:	01010b00 	0x1010b00
     b1c:	13011349 	beq	t8,at,5844 <__isr_vec_space+0x5824>
     b20:	210c0000 	addi	t4,t0,0
     b24:	0d000000 	jal	4000000 <__memory_size+0x3fe0800>
     b28:	0e030034 	jal	80c00d0 <__memory_size+0x80a08d0>
     b2c:	0b3b0b3a 	j	cec2ce8 <__memory_size+0xcea34e8>
     b30:	193f1349 	0x193f1349
     b34:	0000193c 	0x193c
     b38:	00110100 	sll	zero,s1,0x4
     b3c:	06550610 	0x6550610
     b40:	081b0803 	j	6c200c <__memory_size+0x6a280c>
     b44:	05130825 	bgezall	t0,2bdc <__isr_vec_space+0x2bbc>
     b48:	01000000 	0x1000000
     b4c:	0e250111 	jal	8940444 <__memory_size+0x8920c44>
     b50:	0e030b13 	jal	80c2c4c <__memory_size+0x80a344c>
     b54:	06120111 	bltzall	s0,f9c <__isr_vec_space+0xf7c>
     b58:	00001710 	0x1710
     b5c:	03001602 	0x3001602
     b60:	3b0b3a0e 	xori	t3,t8,0x3a0e
     b64:	0013490b 	0x13490b
     b68:	00240300 	0x240300
     b6c:	0b3e0b0b 	j	cf82c2c <__memory_size+0xcf6342c>
     b70:	00000e03 	sra	at,zero,0x18
     b74:	0b002404 	j	c009010 <__memory_size+0xbfe9810>
     b78:	030b3e0b 	0x30b3e0b
     b7c:	05000008 	bltz	t0,ba0 <__isr_vec_space+0xb80>
     b80:	0b0b000f 	j	c2c003c <__memory_size+0xc2a083c>
     b84:	00001349 	0x1349
     b88:	49002606 	bc2f	a3a4 <__isr_vec_space+0xa384>
     b8c:	07000013 	bltz	t8,bdc <__isr_vec_space+0xbbc>
     b90:	00000026 	xor	zero,zero,zero
     b94:	03001608 	0x3001608
     b98:	3b0b3a0e 	xori	t3,t8,0x3a0e
     b9c:	00134905 	0x134905
     ba0:	01130900 	0x1130900
     ba4:	0b3a0b0b 	j	ce82c2c <__memory_size+0xce6342c>
     ba8:	13010b3b 	beq	t8,at,3898 <__isr_vec_space+0x3878>
     bac:	0d0a0000 	jal	4280000 <__memory_size+0x4260800>
     bb0:	3a080300 	xori	t0,s0,0x300
     bb4:	490b3b0b 	bc2tl	$cc2,f7e4 <__isr_vec_space+0xf7c4>
     bb8:	000b3813 	0xb3813
     bbc:	01010b00 	0x1010b00
     bc0:	13011349 	beq	t8,at,58e8 <__isr_vec_space+0x58c8>
     bc4:	210c0000 	addi	t4,t0,0
     bc8:	2f134900 	sltiu	s3,t8,18688
     bcc:	0d00000b 	jal	400002c <__memory_size+0x3fe082c>
     bd0:	0b0b0117 	j	c2c045c <__memory_size+0xc2a0c5c>
     bd4:	0b3b0b3a 	j	cec2ce8 <__memory_size+0xcea34e8>
     bd8:	00001301 	0x1301
     bdc:	49000d0e 	bc2f	4018 <__isr_vec_space+0x3ff8>
     be0:	0f000013 	jal	c00004c <__memory_size+0xbfe084c>
     be4:	0803000d 	j	c0034 <__memory_size+0xa0834>
     be8:	0b3b0b3a 	j	cec2ce8 <__memory_size+0xcea34e8>
     bec:	00001349 	0x1349
     bf0:	03011310 	0x3011310
     bf4:	3a0b0b0e 	xori	t3,s0,0xb0e
     bf8:	010b3b0b 	0x10b3b0b
     bfc:	11000013 	beqz	t0,c4c <__isr_vec_space+0xc2c>
     c00:	1349000d 	beq	k0,t1,c38 <__isr_vec_space+0xc18>
     c04:	00000b38 	0xb38
     c08:	03000d12 	0x3000d12
     c0c:	3b0b3a08 	xori	t3,t8,0x3a08
     c10:	38134905 	xori	s3,zero,0x4905
     c14:	1300000b 	beqz	t8,c44 <__isr_vec_space+0xc24>
     c18:	0e03000d 	jal	80c0034 <__memory_size+0x80a0834>
     c1c:	053b0b3a 	0x53b0b3a
     c20:	0b381349 	j	ce04d24 <__memory_size+0xcde5524>
     c24:	13140000 	beq	t8,s4,c28 <__isr_vec_space+0xc08>
     c28:	0b0e0301 	j	c380c04 <__memory_size+0xc361404>
     c2c:	3b0b3a0b 	xori	t3,t8,0x3a0b
     c30:	00130105 	0x130105
     c34:	012e1500 	0x12e1500
     c38:	0b3a0e03 	j	ce8380c <__memory_size+0xce6400c>
     c3c:	19270b3b 	0x19270b3b
     c40:	13010b20 	beq	t8,at,38c4 <__isr_vec_space+0x38a4>
     c44:	05160000 	0x5160000
     c48:	3a080300 	xori	t0,s0,0x300
     c4c:	490b3b0b 	bc2tl	$cc2,f87c <__isr_vec_space+0xf85c>
     c50:	17000013 	bnez	t8,ca0 <__isr_vec_space+0xc80>
     c54:	0e030005 	jal	80c0014 <__memory_size+0x80a0814>
     c58:	0b3b0b3a 	j	cec2ce8 <__memory_size+0xcea34e8>
     c5c:	00001349 	0x1349
     c60:	03003418 	0x3003418
     c64:	3b0b3a08 	xori	t3,t8,0x3a08
     c68:	0013490b 	0x13490b
     c6c:	00341900 	0x341900
     c70:	0b3a0e03 	j	ce8380c <__memory_size+0xce6400c>
     c74:	13490b3b 	beq	k0,t1,3964 <__isr_vec_space+0x3944>
     c78:	211a0000 	addi	k0,t0,0
     c7c:	00134900 	sll	t1,s3,0x4
     c80:	012e1b00 	0x12e1b00
     c84:	01111331 	tgeu	t0,s1,0x4c
     c88:	18400612 	blez	v0,24d4 <__isr_vec_space+0x24b4>
     c8c:	01194297 	0x1194297
     c90:	1c000013 	bgtz	zero,ce0 <__isr_vec_space+0xcc0>
     c94:	13310005 	beq	t9,s1,cac <__isr_vec_space+0xc8c>
     c98:	00001702 	srl	v0,zero,0x1c
     c9c:	3100341d 	andi	zero,t0,0x341d
     ca0:	02134913 	0x2134913
     ca4:	1e000017 	bgtz	s0,d04 <__isr_vec_space+0xce4>
     ca8:	13310034 	beq	t9,s1,d7c <__isr_vec_space+0xd5c>
     cac:	00001702 	srl	v0,zero,0x1c
     cb0:	3100051f 	andi	zero,t0,0x51f
     cb4:	000b1c13 	0xb1c13
     cb8:	82892000 	lb	t1,8192(s4)
     cbc:	01110101 	0x1110101
     cc0:	13011331 	beq	t8,at,5988 <__isr_vec_space+0x5968>
     cc4:	8a210000 	lwl	at,0(s1)
     cc8:	02000182 	0x2000182
     ccc:	18429118 	0x18429118
     cd0:	89220000 	lwl	v0,0(t1)
     cd4:	11010182 	beq	t0,at,12e0 <__isr_vec_space+0x12c0>
     cd8:	00133101 	0x133101
     cdc:	00212300 	0x212300
     ce0:	182f1349 	0x182f1349
     ce4:	2e240000 	sltiu	a0,s1,0
     ce8:	3a0e0301 	xori	t6,s0,0x301
     cec:	270b3b0b 	addiu	t3,t8,15115
     cf0:	12011119 	beq	s0,at,5158 <__isr_vec_space+0x5138>
     cf4:	97184006 	lhu	t8,16390(t8)
     cf8:	13011942 	beq	t8,at,7204 <__isr_vec_space+0x71e4>
     cfc:	05250000 	0x5250000
     d00:	3a080300 	xori	t0,s0,0x300
     d04:	490b3b0b 	bc2tl	$cc2,f934 <__isr_vec_space+0xf914>
     d08:	00170213 	0x170213
     d0c:	00052600 	sll	a0,a1,0x18
     d10:	0b3a0e03 	j	ce8380c <__memory_size+0xce6400c>
     d14:	13490b3b 	beq	k0,t1,3a04 <__isr_vec_space+0x39e4>
     d18:	00001702 	srl	v0,zero,0x1c
     d1c:	01828927 	0x1828927
     d20:	95011101 	lhu	at,4353(t0)
     d24:	13311942 	beq	t9,s1,7230 <__isr_vec_space+0x7210>
     d28:	2e280000 	sltiu	t0,s1,0
     d2c:	03193f01 	0x3193f01
     d30:	3b0b3a0e 	xori	t3,t8,0x3a0e
     d34:	1119270b 	beq	t0,t9,a964 <__isr_vec_space+0xa944>
     d38:	40061201 	0x40061201
     d3c:	19429718 	0x19429718
     d40:	00001301 	0x1301
     d44:	11010b29 	beq	t0,at,39ec <__isr_vec_space+0x39cc>
     d48:	01061201 	0x1061201
     d4c:	2a000013 	slti	zero,s0,19
     d50:	08030034 	j	c00d0 <__memory_size+0xa08d0>
     d54:	0b3b0b3a 	j	cec2ce8 <__memory_size+0xcea34e8>
     d58:	17021349 	bne	t8,v0,5a80 <__isr_vec_space+0x5a60>
     d5c:	0b2b0000 	j	cac0000 <__memory_size+0xcaa0800>
     d60:	12011101 	beq	s0,at,5168 <__isr_vec_space+0x5148>
     d64:	2c000006 	sltiu	zero,zero,6
     d68:	00018289 	0x18289
     d6c:	13310111 	beq	t9,s1,11b4 <__isr_vec_space+0x1194>
     d70:	212d0000 	addi	t5,t1,0
     d74:	2e000000 	sltiu	zero,s0,0
     d78:	0e030034 	jal	80c00d0 <__memory_size+0x80a08d0>
     d7c:	0b3b0b3a 	j	cec2ce8 <__memory_size+0xcea34e8>
     d80:	193f1349 	0x193f1349
     d84:	0000193c 	0x193c
     d88:	3f012e2f 	0x3f012e2f
     d8c:	3a0e0319 	xori	t6,s0,0x319
     d90:	270b3b0b 	addiu	t3,t8,15115
     d94:	3c134919 	lui	s3,0x4919
     d98:	00130119 	0x130119
     d9c:	00053000 	sll	a2,a1,0x0
     da0:	00001349 	0x1349
     da4:	3f012e31 	0x3f012e31
     da8:	3a0e0319 	xori	t6,s0,0x319
     dac:	27053b0b 	addiu	a1,t8,15115
     db0:	3c134919 	lui	s3,0x4919
     db4:	00130119 	0x130119
     db8:	002e3200 	0x2e3200
     dbc:	0e03193f 	jal	80c64fc <__memory_size+0x80a6cfc>
     dc0:	053b0b3a 	0x53b0b3a
     dc4:	13491927 	beq	k0,t1,7264 <__isr_vec_space+0x7244>
     dc8:	0000193c 	0x193c
     dcc:	3f012e33 	0x3f012e33
     dd0:	3a0e0319 	xori	t6,s0,0x319
     dd4:	27053b0b 	addiu	a1,t8,15115
     dd8:	3c134919 	lui	s3,0x4919
     ddc:	00000019 	multu	zero,zero
     de0:	10001101 	b	51e8 <__isr_vec_space+0x51c8>
     de4:	12011106 	beq	s0,at,5200 <__isr_vec_space+0x51e0>
     de8:	1b080301 	0x1b080301
     dec:	13082508 	beq	t8,t0,a210 <__isr_vec_space+0xa1f0>
     df0:	00000005 	lsa	zero,zero,zero,0x1
     df4:	10001101 	b	51fc <__isr_vec_space+0x51dc>
     df8:	12011106 	beq	s0,at,5214 <__isr_vec_space+0x51f4>
     dfc:	1b080301 	0x1b080301
     e00:	13082508 	beq	t8,t0,a224 <__isr_vec_space+0xa204>
     e04:	00000005 	lsa	zero,zero,zero,0x1
     e08:	10001101 	b	5210 <__isr_vec_space+0x51f0>
     e0c:	12011106 	beq	s0,at,5228 <__isr_vec_space+0x5208>
     e10:	1b080301 	0x1b080301
     e14:	13082508 	beq	t8,t0,a238 <__isr_vec_space+0xa218>
     e18:	00000005 	lsa	zero,zero,zero,0x1
     e1c:	25011101 	addiu	at,t0,4353
     e20:	030b130e 	0x30b130e
     e24:	0017100e 	0x17100e
     e28:	00240200 	0x240200
     e2c:	0b3e0b0b 	j	cf82c2c <__memory_size+0xcf6342c>
     e30:	00000e03 	sra	at,zero,0x18
     e34:	0b002403 	j	c00900c <__memory_size+0xbfe980c>
     e38:	030b3e0b 	0x30b3e0b
     e3c:	00000008 	jr	zero
     e40:	25011101 	addiu	at,t0,4353
     e44:	030b130e 	0x30b130e
     e48:	1201110e 	beq	s0,at,5284 <__isr_vec_space+0x5264>
     e4c:	00171006 	srlv	v0,s7,zero
     e50:	00240200 	0x240200
     e54:	0b3e0b0b 	j	cf82c2c <__memory_size+0xcf6342c>
     e58:	00000e03 	sra	at,zero,0x18
     e5c:	03001603 	0x3001603
     e60:	3b0b3a0e 	xori	t3,t8,0x3a0e
     e64:	0013490b 	0x13490b
     e68:	00240400 	0x240400
     e6c:	0b3e0b0b 	j	cf82c2c <__memory_size+0xcf6342c>
     e70:	00000803 	sra	at,zero,0x0
     e74:	3f012e05 	0x3f012e05
     e78:	3a0e0319 	xori	t6,s0,0x319
     e7c:	270b3b0b 	addiu	t3,t8,15115
     e80:	11134919 	beq	t0,s3,132e8 <__isr_vec_space+0x132c8>
     e84:	40061201 	0x40061201
     e88:	19429718 	0x19429718
     e8c:	00001301 	0x1301
     e90:	03000506 	0x3000506
     e94:	3b0b3a08 	xori	t3,t8,0x3a08
     e98:	0213490b 	0x213490b
     e9c:	07000017 	bltz	t8,efc <__isr_vec_space+0xedc>
     ea0:	0e030005 	jal	80c0014 <__memory_size+0x80a0814>
     ea4:	0b3b0b3a 	j	cec2ce8 <__memory_size+0xcea34e8>
     ea8:	17021349 	bne	t8,v0,5bd0 <__isr_vec_space+0x5bb0>
     eac:	34080000 	li	t0,0x0
     eb0:	3a0e0300 	xori	t6,s0,0x300
     eb4:	490b3b0b 	bc2tl	$cc2,fae4 <__isr_vec_space+0xfac4>
     eb8:	00180213 	0x180213
     ebc:	00340900 	0x340900
     ec0:	0b3a0803 	j	ce8200c <__memory_size+0xce6280c>
     ec4:	13490b3b 	beq	k0,t1,3bb4 <__isr_vec_space+0x3b94>
     ec8:	00001802 	srl	v1,zero,0x0
     ecc:	11010b0a 	beq	t0,at,3af8 <__isr_vec_space+0x3ad8>
     ed0:	00061201 	0x61201
     ed4:	82890b00 	lb	t1,2816(s4)
     ed8:	01110001 	movt	zero,t0,$fcc4
     edc:	00001331 	tgeu	zero,zero,0x4c
     ee0:	0b000f0c 	j	c003c30 <__memory_size+0xbfe4430>
     ee4:	0013490b 	0x13490b
     ee8:	00260d00 	0x260d00
     eec:	350e0000 	ori	t6,t0,0x0
     ef0:	00134900 	sll	t1,s3,0x4
     ef4:	002e0f00 	0x2e0f00
     ef8:	0e03193f 	jal	80c64fc <__memory_size+0x80a6cfc>
     efc:	0b3b0b3a 	j	cec2ce8 <__memory_size+0xcea34e8>
     f00:	13491927 	beq	k0,t1,73a0 <__isr_vec_space+0x7380>
     f04:	0000193c 	0x193c
     f08:	01110100 	0x1110100
     f0c:	0b130e25 	j	c4c3894 <__memory_size+0xc4a4094>
     f10:	01110e03 	0x1110e03
     f14:	17100612 	bne	t8,s0,2760 <__isr_vec_space+0x2740>
     f18:	24020000 	li	v0,0
     f1c:	3e0b0b00 	0x3e0b0b00
     f20:	000e030b 	0xe030b
     f24:	00160300 	sll	zero,s6,0xc
     f28:	0b3a0e03 	j	ce8380c <__memory_size+0xce6400c>
     f2c:	13490b3b 	beq	k0,t1,3c1c <__isr_vec_space+0x3bfc>
     f30:	24040000 	li	a0,0
     f34:	3e0b0b00 	0x3e0b0b00
     f38:	0008030b 	0x8030b
     f3c:	00160500 	sll	zero,s6,0x14
     f40:	0b3a0e03 	j	ce8380c <__memory_size+0xce6400c>
     f44:	1349053b 	beq	k0,t1,2434 <__isr_vec_space+0x2414>
     f48:	13060000 	beq	t8,a2,f4c <__isr_vec_space+0xf2c>
     f4c:	3a0b0b01 	xori	t3,s0,0xb01
     f50:	010b3b0b 	0x10b3b0b
     f54:	07000013 	bltz	t8,fa4 <__isr_vec_space+0xf84>
     f58:	0803000d 	j	c0034 <__memory_size+0xa0834>
     f5c:	0b3b0b3a 	j	cec2ce8 <__memory_size+0xcea34e8>
     f60:	0b381349 	j	ce04d24 <__memory_size+0xcde5524>
     f64:	01080000 	0x1080000
     f68:	01134901 	0x1134901
     f6c:	09000013 	j	400004c <__memory_size+0x3fe084c>
     f70:	13490021 	beq	k0,t1,ff8 <__isr_vec_space+0xfd8>
     f74:	00000b2f 	0xb2f
     f78:	0b01170a 	j	c045c28 <__memory_size+0xc026428>
     f7c:	3b0b3a0b 	xori	t3,t8,0x3a0b
     f80:	0013010b 	0x13010b
     f84:	000d0b00 	sll	at,t5,0xc
     f88:	00001349 	0x1349
     f8c:	03000d0c 	syscall	0xc0034
     f90:	3b0b3a08 	xori	t3,t8,0x3a08
     f94:	0013490b 	0x13490b
     f98:	01130d00 	0x1130d00
     f9c:	0b0b0e03 	j	c2c380c <__memory_size+0xc2a400c>
     fa0:	0b3b0b3a 	j	cec2ce8 <__memory_size+0xcea34e8>
     fa4:	00001301 	0x1301
     fa8:	49000d0e 	bc2f	43e4 <__isr_vec_space+0x43c4>
     fac:	000b3813 	0xb3813
     fb0:	000d0f00 	sll	at,t5,0x1c
     fb4:	0b3a0803 	j	ce8200c <__memory_size+0xce6280c>
     fb8:	1349053b 	beq	k0,t1,24a8 <__isr_vec_space+0x2488>
     fbc:	00000b38 	0xb38
     fc0:	03000d10 	0x3000d10
     fc4:	3b0b3a0e 	xori	t3,t8,0x3a0e
     fc8:	38134905 	xori	s3,zero,0x4905
     fcc:	1100000b 	beqz	t0,ffc <__isr_vec_space+0xfdc>
     fd0:	0e030113 	jal	80c044c <__memory_size+0x80a0c4c>
     fd4:	0b3a0b0b 	j	ce82c2c <__memory_size+0xce6342c>
     fd8:	1301053b 	beq	t8,at,24c8 <__isr_vec_space+0x24a8>
     fdc:	0f120000 	jal	c480000 <__memory_size+0xc460800>
     fe0:	490b0b00 	bc2tl	$cc2,3be4 <__isr_vec_space+0x3bc4>
     fe4:	13000013 	beqz	t8,1034 <__isr_vec_space+0x1014>
     fe8:	193f012e 	0x193f012e
     fec:	0b3a0e03 	j	ce8380c <__memory_size+0xce6400c>
     ff0:	19270b3b 	0x19270b3b
     ff4:	01111349 	0x1111349
     ff8:	18400612 	blez	v0,2844 <__isr_vec_space+0x2824>
     ffc:	01194297 	0x1194297
    1000:	14000013 	bnez	zero,1050 <__isr_vec_space+0x1030>
    1004:	08030005 	j	c0014 <__memory_size+0xa0814>
    1008:	0b3b0b3a 	j	cec2ce8 <__memory_size+0xcea34e8>
    100c:	18021349 	0x18021349
    1010:	34150000 	li	s5,0x0
    1014:	3a0e0300 	xori	t6,s0,0x300
    1018:	490b3b0b 	bc2tl	$cc2,fc48 <__isr_vec_space+0xfc28>
    101c:	00180213 	0x180213
    1020:	00341600 	0x341600
    1024:	0b3a0803 	j	ce8200c <__memory_size+0xce6280c>
    1028:	13490b3b 	beq	k0,t1,3d18 <__isr_vec_space+0x3cf8>
    102c:	00001802 	srl	v1,zero,0x0
    1030:	01110100 	0x1110100
    1034:	0b130e25 	j	c4c3894 <__memory_size+0xc4a4094>
    1038:	01110e03 	0x1110e03
    103c:	17100612 	bne	t8,s0,2888 <__isr_vec_space+0x2868>
    1040:	24020000 	li	v0,0
    1044:	3e0b0b00 	0x3e0b0b00
    1048:	000e030b 	0xe030b
    104c:	00160300 	sll	zero,s6,0xc
    1050:	0b3a0e03 	j	ce8380c <__memory_size+0xce6400c>
    1054:	1349053b 	beq	k0,t1,2544 <__isr_vec_space+0x2524>
    1058:	24040000 	li	a0,0
    105c:	3e0b0b00 	0x3e0b0b00
    1060:	0008030b 	0x8030b
    1064:	00160500 	sll	zero,s6,0x14
    1068:	0b3a0e03 	j	ce8380c <__memory_size+0xce6400c>
    106c:	13490b3b 	beq	k0,t1,3d5c <__isr_vec_space+0x3d3c>
    1070:	13060000 	beq	t8,a2,1074 <__isr_vec_space+0x1054>
    1074:	3a0b0b01 	xori	t3,s0,0xb01
    1078:	010b3b0b 	0x10b3b0b
    107c:	07000013 	bltz	t8,10cc <__isr_vec_space+0x10ac>
    1080:	0803000d 	j	c0034 <__memory_size+0xa0834>
    1084:	0b3b0b3a 	j	cec2ce8 <__memory_size+0xcea34e8>
    1088:	0b381349 	j	ce04d24 <__memory_size+0xcde5524>
    108c:	01080000 	0x1080000
    1090:	01134901 	0x1134901
    1094:	09000013 	j	400004c <__memory_size+0x3fe084c>
    1098:	13490021 	beq	k0,t1,1120 <__isr_vec_space+0x1100>
    109c:	00000b2f 	0xb2f
    10a0:	0b01170a 	j	c045c28 <__memory_size+0xc026428>
    10a4:	3b0b3a0b 	xori	t3,t8,0x3a0b
    10a8:	0013010b 	0x13010b
    10ac:	000d0b00 	sll	at,t5,0xc
    10b0:	00001349 	0x1349
    10b4:	03000d0c 	syscall	0xc0034
    10b8:	3b0b3a08 	xori	t3,t8,0x3a08
    10bc:	0013490b 	0x13490b
    10c0:	01130d00 	0x1130d00
    10c4:	0b0b0e03 	j	c2c380c <__memory_size+0xc2a400c>
    10c8:	0b3b0b3a 	j	cec2ce8 <__memory_size+0xcea34e8>
    10cc:	00001301 	0x1301
    10d0:	49000d0e 	bc2f	450c <__isr_vec_space+0x44ec>
    10d4:	000b3813 	0xb3813
    10d8:	000d0f00 	sll	at,t5,0x1c
    10dc:	0b3a0803 	j	ce8200c <__memory_size+0xce6280c>
    10e0:	1349053b 	beq	k0,t1,25d0 <__isr_vec_space+0x25b0>
    10e4:	00000b38 	0xb38
    10e8:	03000d10 	0x3000d10
    10ec:	3b0b3a0e 	xori	t3,t8,0x3a0e
    10f0:	38134905 	xori	s3,zero,0x4905
    10f4:	1100000b 	beqz	t0,1124 <__isr_vec_space+0x1104>
    10f8:	0e030113 	jal	80c044c <__memory_size+0x80a0c4c>
    10fc:	0b3a0b0b 	j	ce82c2c <__memory_size+0xce6342c>
    1100:	1301053b 	beq	t8,at,25f0 <__isr_vec_space+0x25d0>
    1104:	0f120000 	jal	c480000 <__memory_size+0xc460800>
    1108:	490b0b00 	bc2tl	$cc2,3d0c <__isr_vec_space+0x3cec>
    110c:	13000013 	beqz	t8,115c <__isr_vec_space+0x113c>
    1110:	193f012e 	0x193f012e
    1114:	0b3a0e03 	j	ce8380c <__memory_size+0xce6400c>
    1118:	19270b3b 	0x19270b3b
    111c:	01111349 	0x1111349
    1120:	18400612 	blez	v0,296c <__isr_vec_space+0x294c>
    1124:	01194297 	0x1194297
    1128:	14000013 	bnez	zero,1178 <__isr_vec_space+0x1158>
    112c:	08030005 	j	c0014 <__memory_size+0xa0814>
    1130:	0b3b0b3a 	j	cec2ce8 <__memory_size+0xcea34e8>
    1134:	17021349 	bne	t8,v0,5e5c <__isr_vec_space+0x5e3c>
    1138:	34150000 	li	s5,0x0
    113c:	3a0e0300 	xori	t6,s0,0x300
    1140:	490b3b0b 	bc2tl	$cc2,fd70 <__isr_vec_space+0xfd50>
    1144:	00180213 	0x180213
    1148:	00341600 	0x341600
    114c:	0b3a0803 	j	ce8200c <__memory_size+0xce6280c>
    1150:	13490b3b 	beq	k0,t1,3e40 <__isr_vec_space+0x3e20>
    1154:	00001802 	srl	v1,zero,0x0
    1158:	01110100 	0x1110100
    115c:	0b130e25 	j	c4c3894 <__memory_size+0xc4a4094>
    1160:	01110e03 	0x1110e03
    1164:	17100612 	bne	t8,s0,29b0 <__isr_vec_space+0x2990>
    1168:	24020000 	li	v0,0
    116c:	3e0b0b00 	0x3e0b0b00
    1170:	0008030b 	0x8030b
    1174:	00240300 	0x240300
    1178:	0b3e0b0b 	j	cf82c2c <__memory_size+0xcf6342c>
    117c:	00000e03 	sra	at,zero,0x18
    1180:	03001604 	0x3001604
    1184:	3b0b3a0e 	xori	t3,t8,0x3a0e
    1188:	0013490b 	0x13490b
    118c:	00160500 	sll	zero,s6,0x14
    1190:	0b3a0e03 	j	ce8380c <__memory_size+0xce6400c>
    1194:	1349053b 	beq	k0,t1,2684 <__isr_vec_space+0x2664>
    1198:	17060000 	bne	t8,a2,119c <__isr_vec_space+0x117c>
    119c:	3a0b0b01 	xori	t3,s0,0xb01
    11a0:	010b3b0b 	0x10b3b0b
    11a4:	07000013 	bltz	t8,11f4 <__isr_vec_space+0x11d4>
    11a8:	0e03000d 	jal	80c0034 <__memory_size+0x80a0834>
    11ac:	0b3b0b3a 	j	cec2ce8 <__memory_size+0xcea34e8>
    11b0:	00001349 	0x1349
    11b4:	49010108 	bc2t	15d8 <__isr_vec_space+0x15b8>
    11b8:	00130113 	0x130113
    11bc:	00210900 	0x210900
    11c0:	0b2f1349 	j	cbc4d24 <__memory_size+0xcba5524>
    11c4:	130a0000 	beq	t8,t2,11c8 <__isr_vec_space+0x11a8>
    11c8:	3a0b0b01 	xori	t3,s0,0xb01
    11cc:	010b3b0b 	0x10b3b0b
    11d0:	0b000013 	j	c00004c <__memory_size+0xbfe084c>
    11d4:	0e03000d 	jal	80c0034 <__memory_size+0x80a0834>
    11d8:	0b3b0b3a 	j	cec2ce8 <__memory_size+0xcea34e8>
    11dc:	0b381349 	j	ce04d24 <__memory_size+0xcde5524>
    11e0:	0f0c0000 	jal	c300000 <__memory_size+0xc2e0800>
    11e4:	000b0b00 	sll	at,t3,0xc
    11e8:	01130d00 	0x1130d00
    11ec:	0b0b0e03 	j	c2c380c <__memory_size+0xc2a400c>
    11f0:	0b3b0b3a 	j	cec2ce8 <__memory_size+0xcea34e8>
    11f4:	00001301 	0x1301
    11f8:	03000d0e 	0x3000d0e
    11fc:	3b0b3a08 	xori	t3,t8,0x3a08
    1200:	3813490b 	xori	s3,zero,0x490b
    1204:	0f00000b 	jal	c00002c <__memory_size+0xbfe082c>
    1208:	0b0b000f 	j	c2c003c <__memory_size+0xc2a083c>
    120c:	00001349 	0x1349
    1210:	03011310 	0x3011310
    1214:	3a050b0e 	xori	a1,s0,0xb0e
    1218:	010b3b0b 	0x10b3b0b
    121c:	11000013 	beqz	t0,126c <__isr_vec_space+0x124c>
    1220:	0e03000d 	jal	80c0034 <__memory_size+0x80a0834>
    1224:	0b3b0b3a 	j	cec2ce8 <__memory_size+0xcea34e8>
    1228:	05381349 	0x5381349
    122c:	15120000 	bne	t0,s2,1230 <__isr_vec_space+0x1210>
    1230:	00192700 	sll	a0,t9,0x1c
    1234:	01151300 	0x1151300
    1238:	13491927 	beq	k0,t1,76d8 <__isr_vec_space+0x76b8>
    123c:	00001301 	0x1301
    1240:	49000514 	bc2f	2694 <__isr_vec_space+0x2674>
    1244:	15000013 	bnez	t0,1294 <__isr_vec_space+0x1274>
    1248:	0e030113 	jal	80c044c <__memory_size+0x80a0c4c>
    124c:	0b3a050b 	j	ce8142c <__memory_size+0xce61c2c>
    1250:	1301053b 	beq	t8,at,2740 <__isr_vec_space+0x2720>
    1254:	0d160000 	jal	4580000 <__memory_size+0x4560800>
    1258:	3a0e0300 	xori	t6,s0,0x300
    125c:	49053b0b 	bc2t	$cc1,fe8c <__isr_vec_space+0xfe6c>
    1260:	000b3813 	0xb3813
    1264:	000d1700 	sll	v0,t5,0x1c
    1268:	0b3a0e03 	j	ce8380c <__memory_size+0xce6400c>
    126c:	1349053b 	beq	k0,t1,275c <__isr_vec_space+0x273c>
    1270:	00000538 	0x538
    1274:	49002618 	bc2f	aad8 <__isr_vec_space+0xaab8>
    1278:	19000013 	blez	t0,12c8 <__isr_vec_space+0x12a8>
    127c:	0e030113 	jal	80c044c <__memory_size+0x80a0c4c>
    1280:	0b3a0b0b 	j	ce82c2c <__memory_size+0xce6342c>
    1284:	1301053b 	beq	t8,at,2774 <__isr_vec_space+0x2754>
    1288:	131a0000 	beq	t8,k0,128c <__isr_vec_space+0x126c>
    128c:	3a0b0b01 	xori	t3,s0,0xb01
    1290:	01053b0b 	0x1053b0b
    1294:	1b000013 	blez	t8,12e4 <__isr_vec_space+0x12c4>
    1298:	0b0b0117 	j	c2c045c <__memory_size+0xc2a0c5c>
    129c:	053b0b3a 	0x53b0b3a
    12a0:	00001301 	0x1301
    12a4:	03000d1c 	0x3000d1c
    12a8:	3b0b3a0e 	xori	t3,t8,0x3a0e
    12ac:	00134905 	0x134905
    12b0:	01151d00 	0x1151d00
    12b4:	13011927 	beq	t8,at,7754 <__isr_vec_space+0x7734>
    12b8:	2e1e0000 	sltiu	s8,s0,0
    12bc:	03193f00 	0x3193f00
    12c0:	3b0b3a0e 	xori	t3,t8,0x3a0e
    12c4:	4919270b 	bc2t	$cc6,aef4 <__isr_vec_space+0xaed4>
    12c8:	12011113 	beq	s0,at,5718 <__isr_vec_space+0x56f8>
    12cc:	97184006 	lhu	t8,16390(t8)
    12d0:	00001942 	srl	v1,zero,0x5
    12d4:	0300341f 	0x300341f
    12d8:	3b0b3a0e 	xori	t3,t8,0x3a0e
    12dc:	3f134905 	0x3f134905
    12e0:	00193c19 	0x193c19
    12e4:	Address 0x00000000000012e4 is out of bounds.


Disassembly of section .debug_line:

00000000 <.debug_line>:
       0:	000000da 	0xda
       4:	00440002 	0x440002
       8:	01010000 	0x1010000
       c:	000d0efb 	0xd0efb
      10:	01010101 	0x1010101
      14:	01000000 	0x1000000
      18:	2f010000 	sltiu	at,t8,0
      1c:	72657375 	q16slr	xr13,xr12,xr5,xr9,9
      20:	70696d2f 	0x70696d2f
      24:	74777373 	jalx	1ddcdcc <__memory_size+0x1dbd5cc>
      28:	7469672f 	jalx	1a59cbc <__memory_size+0x1a3a4bc>
      2c:	77656e2f 	jalx	d95b8bc <__memory_size+0xd93c0bc>
      30:	2f62696c 	sltiu	v0,k1,26988
      34:	6762696c 	0x6762696c
      38:	73736f6c 	s16ldi	xr13,k1,438,ptn2
      3c:	70696d2f 	0x70696d2f
      40:	63000073 	0x63000073
      44:	2e307472 	sltiu	s0,s1,29810
      48:	00010053 	0x10053
      4c:	05000000 	bltz	t0,50 <__isr_vec_space+0x30>
      50:	00032002 	srl	a0,v1,0x0
      54:	00d10380 	0xd10380
      58:	4a210301 	c2	0x210301
      5c:	194b4b83 	0x194b4b83
      60:	834b83bb 	lb	t3,-31813(k0)
      64:	504b4b85 	beql	v0,t3,12e7c <__isr_vec_space+0x12e5c>
      68:	854e8383 	lh	t6,-31869(t2)
      6c:	83134b4b 	lb	s3,19275(t8)
      70:	83134c4b 	lb	s3,19531(t8)
      74:	134b4b4d 	beq	k0,t3,12dac <__isr_vec_space+0x12d8c>
      78:	4b4b4d83 	c2	0x14b4d83
      7c:	4b4d8313 	c2	0x14d8313
      80:	4d83134b 	0x4d83134b
      84:	83134b4b 	lb	s3,19275(t8)
      88:	88144d4b 	lwl	s4,19787(zero)
      8c:	834d4b51 	lb	t5,19281(k0)
      90:	84bb5083 	lh	k1,20611(a1)
      94:	bb4a0b03 	swr	t2,2819(k0)
      98:	134b8483 	beq	k0,t3,fffe12a8 <__entry+0x403e12a8>
      9c:	84848385 	lh	a0,-31867(a0)
      a0:	83854b4b 	lb	a1,19275(gp)
      a4:	034b4f4b 	0x34b4f4b
      a8:	83bb010f 	lb	k1,271(sp)
      ac:	84838384 	lh	v1,-31868(a0)
      b0:	820a0383 	lb	t2,899(s0)
      b4:	4b4b8385 	c2	0x14b8385
      b8:	8583834e 	lh	v1,-31922(t4)
      bc:	864b8584 	lh	t3,-31356(s2)
      c0:	85838383 	lh	v1,-31869(t4)
      c4:	4b4b4b4b 	c2	0x14b4b4b
      c8:	0313854d 	break	0x313,0x215
      cc:	03838219 	0x3838219
      d0:	83834a11 	lb	v1,18961(gp)
      d4:	85158386 	lh	s5,-31866(t0)
      d8:	0008024b 	0x8024b
      dc:	01200101 	0x1200101
      e0:	00020000 	sll	zero,v0,0x0
      e4:	0000004a 	0x4a
      e8:	0efb0101 	jal	bec0404 <__memory_size+0xbea0c04>
      ec:	0101000d 	break	0x101
      f0:	00000101 	0x101
      f4:	00000100 	sll	zero,zero,0x4
      f8:	6f620001 	0x6f620001
      fc:	532e746f 	beql	t9,t6,1d2bc <__isr_vec_space+0x1d29c>
     100:	00000000 	nop
     104:	74696e69 	jalx	1a5b9a4 <__memory_size+0x1a3c1a4>
     108:	6361635f 	0x6361635f
     10c:	2e736568 	sltiu	s3,s3,25960
     110:	00000053 	mtlhx	zero
     114:	696e6900 	0x696e6900
     118:	70635f74 	q16sll	xr13,xr7,xr13,xr8,1
     11c:	00532e30 	tge	v0,s3,0xb8
     120:	69000000 	0x69000000
     124:	5f74696e 	0x5f74696e
     128:	2e626c74 	sltiu	v0,s3,27764
     12c:	00000053 	mtlhx	zero
     130:	05000000 	bltz	t0,134 <__isr_vec_space+0x114>
     134:	c0000002 	ll	zero,2(zero)
     138:	00c0039f 	0xc0039f
     13c:	4b4b8301 	c2	0x14b8301
     140:	4b4a0903 	c2	0x14a0903
     144:	504b4b4b 	beql	v0,t3,12e74 <__isr_vec_space+0x12e54>
     148:	834e4b83 	lb	t6,19331(k0)
     14c:	4b834e4b 	c2	0x1834e4b
     150:	4b4b834f 	c2	0x14b834f
     154:	4b834e4b 	c2	0x1834e4b
     158:	834b834e 	lb	t3,-31922(k0)
     15c:	4b504e4b 	c2	0x1504e4b
     160:	b8030204 	swr	v1,516(zero)
     164:	4d4d4a7f 	0x4d4d4a7f
     168:	4c4b4c4b 	0x4c4b4c4b
     16c:	4b4d4b4b 	c2	0x14d4b4b
     170:	4b4d4c4c 	c2	0x14d4c4c
     174:	4b4b4f4c 	c2	0x14b4f4c
     178:	034b4e4b 	0x34b4e4b
     17c:	4d4d4a09 	0x4d4d4a09
     180:	4c4b4c4b 	0x4c4b4c4b
     184:	4b4d4b4b 	c2	0x14d4b4b
     188:	4b4d4c4c 	c2	0x14d4c4c
     18c:	504c4b4b 	beql	v0,t4,12ebc <__isr_vec_space+0x12e9c>
     190:	4d4b4c4b 	0x4d4b4c4b
     194:	4b4b504b 	c2	0x14b504b
     198:	044b4b4b 	tltiu	v0,19275
     19c:	026e0301 	0x26e0301
     1a0:	4b01018c 	c2	0x101018c
     1a4:	4b157c02 	c2	0x1157c02
     1a8:	a0030304 	sb	v1,772(zero)
     1ac:	4d834a7f 	0x4d834a7f
     1b0:	4d4b4b4b 	0x4d4b4b4b
     1b4:	4c4b4c4b 	0x4c4b4c4b
     1b8:	4c4b4c4b 	0x4c4b4c4b
     1bc:	4c4b4c4b 	0x4c4b4c4b
     1c0:	4f4b4c4b 	c3	0x14b4c4b
     1c4:	044b4c4d 	tltiu	v0,19533
     1c8:	f23a0301 	0xf23a0301
     1cc:	0304044b 	0x304044b
     1d0:	4b4a7f9b 	c2	0x14a7f9b
     1d4:	4b4b4b4b 	c2	0x14b4b4b
     1d8:	4b4b4b4e 	c2	0x14b4b4e
     1dc:	4b4d4b4b 	c2	0x14d4b4b
     1e0:	4c4b4b4b 	0x4c4b4b4b
     1e4:	044b4d4b 	tltiu	v0,19787
     1e8:	00d00301 	0xd00301
     1ec:	4b012802 	c2	0x1012802
     1f0:	024b4b4b 	0x24b4b4b
     1f4:	4b1801f0 	c2	0x11801f0
     1f8:	4b4b4b4b 	c2	0x14b4b4b
     1fc:	0004024b 	0x4024b
     200:	00670101 	0x670101
     204:	00020000 	sll	zero,v0,0x0
     208:	0000001d 	0x1d
     20c:	0efb0101 	jal	bec0404 <__memory_size+0xbea0c04>
     210:	0101000d 	break	0x101
     214:	00000101 	0x101
     218:	00000100 	sll	zero,zero,0x4
     21c:	616d0001 	0x616d0001
     220:	632e6e69 	0x632e6e69
     224:	00000000 	nop
     228:	02050000 	0x2050000
     22c:	8000075c 	lb	zero,1884(zero)
     230:	4c012403 	0x4c012403
     234:	bbf3bbbc 	swr	s3,-17476(ra)
     238:	5184f6f0 	beql	t4,a0,ffffddfc <__entry+0x403fddfc>
     23c:	4b4bbc4c 	c2	0x14bbc4c
     240:	4b4b4b4b 	c2	0x14b4b4b
     244:	824b034b 	lb	t3,843(s2)
     248:	820a03f2 	lb	t2,1010(s0)
     24c:	03040200 	0x3040200
     250:	04020084 	bltzl	zero,464 <__isr_vec_space+0x444>
     254:	02008303 	0x2008303
     258:	03b70304 	0x3b70304
     25c:	2003820c 	addi	v1,zero,-32244
     260:	00153c08 	0x153c08
     264:	bb010402 	swr	at,1026(t8)
     268:	01000802 	0x1000802
     26c:	0000a901 	0xa901
     270:	90000200 	lbu	zero,512(zero)
     274:	01000000 	0x1000000
     278:	0d0efb01 	jal	43bec04 <__memory_size+0x439f404>
     27c:	01010100 	0x1010100
     280:	00000001 	movf	zero,zero,$fcc0
     284:	01000001 	movf	zero,t0,$fcc0
     288:	6573752f 	0x6573752f
     28c:	696d2f72 	0x696d2f72
     290:	77737370 	jalx	dcdcdc0 <__memory_size+0xdcbd5c0>
     294:	69672f74 	0x69672f74
     298:	656e2f74 	0x656e2f74
     29c:	62696c77 	0x62696c77
     2a0:	77656e2f 	jalx	d95b8bc <__memory_size+0xd93c0bc>
     2a4:	2f62696c 	sltiu	v0,k1,26988
     2a8:	6362696c 	0x6362696c
     2ac:	6474732f 	0x6474732f
     2b0:	0062696c 	0x62696c
     2b4:	6573752f 	0x6573752f
     2b8:	696d2f72 	0x696d2f72
     2bc:	77737370 	jalx	dcdcdc0 <__memory_size+0xdcbd5c0>
     2c0:	69672f74 	0x69672f74
     2c4:	656e2f74 	0x656e2f74
     2c8:	62696c77 	0x62696c77
     2cc:	77656e2f 	jalx	d95b8bc <__memory_size+0xd93c0bc>
     2d0:	2f62696c 	sltiu	v0,k1,26988
     2d4:	6362696c 	0x6362696c
     2d8:	636e692f 	0x636e692f
     2dc:	6564756c 	0x6564756c
     2e0:	74610000 	jalx	1840000 <__memory_size+0x1820800>
     2e4:	74697865 	jalx	1a5e194 <__memory_size+0x1a3e994>
     2e8:	0100632e 	0x100632e
     2ec:	74610000 	jalx	1840000 <__memory_size+0x1820800>
     2f0:	74697865 	jalx	1a5e194 <__memory_size+0x1a3e994>
     2f4:	0100682e 	0x100682e
     2f8:	74730000 	jalx	1cc0000 <__memory_size+0x1ca0800>
     2fc:	62696c64 	0x62696c64
     300:	0200682e 	0x200682e
     304:	00000000 	nop
     308:	08a00205 	j	2800814 <__memory_size+0x27e1014>
     30c:	3f038000 	0x3f038000
     310:	4b498301 	c2	0x1498301
     314:	000c02bb 	0xc02bb
     318:	016d0101 	0x16d0101
     31c:	00020000 	sll	zero,v0,0x0
     320:	0000014f 	sync	0x5
     324:	0efb0101 	jal	bec0404 <__memory_size+0xbea0c04>
     328:	0101000d 	break	0x101
     32c:	00000101 	0x101
     330:	00000100 	sll	zero,zero,0x4
     334:	73752f01 	0x73752f01
     338:	6d2f7265 	0x6d2f7265
     33c:	73737069 	0x73737069
     340:	672f7477 	0x672f7477
     344:	6e2f7469 	0x6e2f7469
     348:	696c7765 	0x696c7765
     34c:	656e2f62 	0x656e2f62
     350:	62696c77 	0x62696c77
     354:	62696c2f 	0x62696c2f
     358:	74732f63 	jalx	1ccbd8c <__memory_size+0x1cac58c>
     35c:	62696c64 	0x62696c64
     360:	73752f00 	0x73752f00
     364:	6d2f7265 	0x6d2f7265
     368:	73737069 	0x73737069
     36c:	672f7477 	0x672f7477
     370:	6e2f7469 	0x6e2f7469
     374:	696c7765 	0x696c7765
     378:	656e2f62 	0x656e2f62
     37c:	62696c77 	0x62696c77
     380:	62696c2f 	0x62696c2f
     384:	6e692f63 	0x6e692f63
     388:	64756c63 	0x64756c63
     38c:	79732f65 	st.h	$w29,742(a1)
     390:	752f0073 	jalx	4bc01cc <__memory_size+0x4ba09cc>
     394:	2f726573 	sltiu	s2,k1,25971
     398:	7370696d 	s16sdi	xr5,k1,52,
     39c:	2f747773 	sltiu	s4,k1,30579
     3a0:	6c697562 	0x6c697562
     3a4:	30322d64 	andi	s2,at,0x2d64
     3a8:	302e3531 	andi	t6,at,0x3531
     3ac:	35302d36 	ori	s0,t1,0x2d36
     3b0:	736e692f 	0x736e692f
     3b4:	6c6c6174 	0x6c6c6174
     3b8:	70696d2d 	s16sdi	xr4,v1,182,ptn1
     3bc:	746d2d73 	jalx	1b4b5cc <__memory_size+0x1b2bdcc>
     3c0:	6c652d69 	0x6c652d69
     3c4:	696c2f66 	0x696c2f66
     3c8:	63672f62 	0x63672f62
     3cc:	696d2f63 	0x696d2f63
     3d0:	6d2d7370 	0x6d2d7370
     3d4:	652d6974 	0x652d6974
     3d8:	342f666c 	ori	t7,at,0x666c
     3dc:	322e392e 	andi	t6,s1,0x392e
     3e0:	636e692f 	0x636e692f
     3e4:	6564756c 	0x6564756c
     3e8:	73752f00 	0x73752f00
     3ec:	6d2f7265 	0x6d2f7265
     3f0:	73737069 	0x73737069
     3f4:	672f7477 	0x672f7477
     3f8:	6e2f7469 	0x6e2f7469
     3fc:	696c7765 	0x696c7765
     400:	656e2f62 	0x656e2f62
     404:	62696c77 	0x62696c77
     408:	62696c2f 	0x62696c2f
     40c:	6e692f63 	0x6e692f63
     410:	64756c63 	0x64756c63
     414:	65000065 	0x65000065
     418:	2e746978 	sltiu	s4,s3,27000
     41c:	00010063 	0x10063
     420:	636f6c00 	0x636f6c00
     424:	00682e6b 	0x682e6b
     428:	5f000002 	bgtzl	t8,434 <__isr_vec_space+0x414>
     42c:	65707974 	0x65707974
     430:	00682e73 	tltu	v1,t0,0xb9
     434:	73000002 	mul	zero,t8,zero
     438:	65646474 	0x65646474
     43c:	00682e66 	0x682e66
     440:	72000003 	0x72000003
     444:	746e6565 	jalx	1b99594 <__memory_size+0x1b79d94>
     448:	0200682e 	0x200682e
     44c:	74730000 	jalx	1cc0000 <__memory_size+0x1ca0800>
     450:	62696c64 	0x62696c64
     454:	0400682e 	bltz	zero,1a510 <__isr_vec_space+0x1a4f0>
     458:	74610000 	jalx	1840000 <__memory_size+0x1820800>
     45c:	74697865 	jalx	1a5e194 <__memory_size+0x1a3e994>
     460:	0100682e 	0x100682e
     464:	6e750000 	0x6e750000
     468:	64747369 	0x64747369
     46c:	0200682e 	0x200682e
     470:	00000000 	nop
     474:	08c80205 	j	3200814 <__memory_size+0x31e1014>
     478:	3b038000 	xori	v1,t8,0x8000
     47c:	7a035001 	bseli.b	$w0,$w10,0x3
     480:	0884884a 	j	2122128 <__memory_size+0x2102928>
     484:	0802833d 	j	a0cf4 <__memory_size+0x814f4>
     488:	05010100 	bgez	t0,88c <__isr_vec_space+0x86c>
     48c:	02000001 	movf	zero,s0,$fcc0
     490:	0000ff00 	sll	ra,zero,0x1c
     494:	fb010100 	sdc2	$1,256(t8)
     498:	01000d0e 	0x1000d0e
     49c:	00010101 	0x10101
     4a0:	00010000 	sll	zero,at,0x0
     4a4:	752f0100 	jalx	4bc0400 <__memory_size+0x4ba0c00>
     4a8:	2f726573 	sltiu	s2,k1,25971
     4ac:	7370696d 	s16sdi	xr5,k1,52,
     4b0:	2f747773 	sltiu	s4,k1,30579
     4b4:	2f746967 	sltiu	s4,k1,26983
     4b8:	6c77656e 	0x6c77656e
     4bc:	6e2f6269 	0x6e2f6269
     4c0:	696c7765 	0x696c7765
     4c4:	696c2f62 	0x696c2f62
     4c8:	692f6362 	0x692f6362
     4cc:	756c636e 	jalx	5b18db8 <__memory_size+0x5af95b8>
     4d0:	732f6564 	s8ldi	xr5,t9,-39,ptn3
     4d4:	2f007379 	sltiu	zero,t8,29561
     4d8:	72657375 	q16slr	xr13,xr12,xr5,xr9,9
     4dc:	70696d2f 	0x70696d2f
     4e0:	74777373 	jalx	1ddcdcc <__memory_size+0x1dbd5cc>
     4e4:	6975622f 	0x6975622f
     4e8:	322d646c 	andi	t5,s1,0x646c
     4ec:	2e353130 	sltiu	s5,s1,12592
     4f0:	302d3630 	andi	t5,at,0x3630
     4f4:	6e692f35 	0x6e692f35
     4f8:	6c617473 	0x6c617473
     4fc:	696d2d6c 	0x696d2d6c
     500:	6d2d7370 	0x6d2d7370
     504:	652d6974 	0x652d6974
     508:	6c2f666c 	0x6c2f666c
     50c:	672f6269 	0x672f6269
     510:	6d2f6363 	0x6d2f6363
     514:	2d737069 	sltiu	s3,t3,28777
     518:	2d69746d 	sltiu	t1,t3,29805
     51c:	2f666c65 	sltiu	a2,k1,27749
     520:	2e392e34 	sltiu	t9,s1,11828
     524:	6e692f32 	0x6e692f32
     528:	64756c63 	0x64756c63
     52c:	752f0065 	jalx	4bc0194 <__memory_size+0x4ba0994>
     530:	2f726573 	sltiu	s2,k1,25971
     534:	7370696d 	s16sdi	xr5,k1,52,
     538:	2f747773 	sltiu	s4,k1,30579
     53c:	2f746967 	sltiu	s4,k1,26983
     540:	6c77656e 	0x6c77656e
     544:	6e2f6269 	0x6e2f6269
     548:	696c7765 	0x696c7765
     54c:	696c2f62 	0x696c2f62
     550:	722f6362 	s8ldd	xr13,s1,-40,ptn3
     554:	746e6565 	jalx	1b99594 <__memory_size+0x1b79d94>
     558:	6f6c0000 	0x6f6c0000
     55c:	682e6b63 	0x682e6b63
     560:	00000100 	sll	zero,zero,0x4
     564:	7079745f 	udi15	v1,t9,t6,0x11
     568:	682e7365 	0x682e7365
     56c:	00000100 	sll	zero,zero,0x4
     570:	64647473 	0x64647473
     574:	682e6665 	0x682e6665
     578:	00000200 	sll	zero,zero,0x8
     57c:	6e656572 	0x6e656572
     580:	00682e74 	teq	v1,t0,0xb9
     584:	69000001 	0x69000001
     588:	7275706d 	s16sdi	xr1,s3,-328,
     58c:	00632e65 	0x632e65
     590:	00000003 	sra	zero,zero,0x0
     594:	00000180 	sll	zero,zero,0x6
     598:	01470002 	0x1470002
     59c:	01010000 	0x1010000
     5a0:	000d0efb 	0xd0efb
     5a4:	01010101 	0x1010101
     5a8:	01000000 	0x1000000
     5ac:	2f010000 	sltiu	at,t8,0
     5b0:	72657375 	q16slr	xr13,xr12,xr5,xr9,9
     5b4:	70696d2f 	0x70696d2f
     5b8:	74777373 	jalx	1ddcdcc <__memory_size+0x1dbd5cc>
     5bc:	7469672f 	jalx	1a59cbc <__memory_size+0x1a3a4bc>
     5c0:	77656e2f 	jalx	d95b8bc <__memory_size+0xd93c0bc>
     5c4:	2f62696c 	sltiu	v0,k1,26988
     5c8:	6c77656e 	0x6c77656e
     5cc:	6c2f6269 	0x6c2f6269
     5d0:	2f636269 	sltiu	v1,k1,25193
     5d4:	6c647473 	0x6c647473
     5d8:	2f006269 	sltiu	zero,t8,25193
     5dc:	72657375 	q16slr	xr13,xr12,xr5,xr9,9
     5e0:	70696d2f 	0x70696d2f
     5e4:	74777373 	jalx	1ddcdcc <__memory_size+0x1dbd5cc>
     5e8:	6975622f 	0x6975622f
     5ec:	322d646c 	andi	t5,s1,0x646c
     5f0:	2e353130 	sltiu	s5,s1,12592
     5f4:	302d3630 	andi	t5,at,0x3630
     5f8:	6e692f35 	0x6e692f35
     5fc:	6c617473 	0x6c617473
     600:	696d2d6c 	0x696d2d6c
     604:	6d2d7370 	0x6d2d7370
     608:	652d6974 	0x652d6974
     60c:	6c2f666c 	0x6c2f666c
     610:	672f6269 	0x672f6269
     614:	6d2f6363 	0x6d2f6363
     618:	2d737069 	sltiu	s3,t3,28777
     61c:	2d69746d 	sltiu	t1,t3,29805
     620:	2f666c65 	sltiu	a2,k1,27749
     624:	2e392e34 	sltiu	t9,s1,11828
     628:	6e692f32 	0x6e692f32
     62c:	64756c63 	0x64756c63
     630:	752f0065 	jalx	4bc0194 <__memory_size+0x4ba0994>
     634:	2f726573 	sltiu	s2,k1,25971
     638:	7370696d 	s16sdi	xr5,k1,52,
     63c:	2f747773 	sltiu	s4,k1,30579
     640:	2f746967 	sltiu	s4,k1,26983
     644:	6c77656e 	0x6c77656e
     648:	6e2f6269 	0x6e2f6269
     64c:	696c7765 	0x696c7765
     650:	696c2f62 	0x696c2f62
     654:	692f6362 	0x692f6362
     658:	756c636e 	jalx	5b18db8 <__memory_size+0x5af95b8>
     65c:	732f6564 	s8ldi	xr5,t9,-39,ptn3
     660:	2f007379 	sltiu	zero,t8,29561
     664:	72657375 	q16slr	xr13,xr12,xr5,xr9,9
     668:	70696d2f 	0x70696d2f
     66c:	74777373 	jalx	1ddcdcc <__memory_size+0x1dbd5cc>
     670:	7469672f 	jalx	1a59cbc <__memory_size+0x1a3a4bc>
     674:	77656e2f 	jalx	d95b8bc <__memory_size+0xd93c0bc>
     678:	2f62696c 	sltiu	v0,k1,26988
     67c:	6c77656e 	0x6c77656e
     680:	6c2f6269 	0x6c2f6269
     684:	2f636269 	sltiu	v1,k1,25193
     688:	6c636e69 	0x6c636e69
     68c:	00656475 	0x656475
     690:	615f5f00 	0x615f5f00
     694:	69786574 	0x69786574
     698:	00632e74 	teq	v1,v1,0xb9
     69c:	73000001 	maddu	t8,zero
     6a0:	65646474 	0x65646474
     6a4:	00682e66 	0x682e66
     6a8:	6c000002 	0x6c000002
     6ac:	2e6b636f 	sltiu	t3,s3,25455
     6b0:	00030068 	0x30068
     6b4:	79745f00 	ori.b	$w28,$w11,0x74
     6b8:	2e736570 	sltiu	s3,s3,25968
     6bc:	00030068 	0x30068
     6c0:	65657200 	0x65657200
     6c4:	682e746e 	0x682e746e
     6c8:	00000300 	sll	zero,zero,0xc
     6cc:	78657461 	ld.h	$w17,202(t6)
     6d0:	682e7469 	0x682e7469
     6d4:	00000100 	sll	zero,zero,0x4
     6d8:	6c647473 	0x6c647473
     6dc:	682e6269 	0x682e6269
     6e0:	00000400 	sll	zero,zero,0x10
     6e4:	02050000 	0x2050000
     6e8:	80000904 	lb	zero,2308(zero)
     6ec:	0100c703 	0x100c703
     6f0:	4a78031a 	c2	0x78031a
     6f4:	4a78038a 	c2	0x78038a
     6f8:	834bec08 	lb	t3,-5112(k0)
     6fc:	83f5f983 	lb	s5,-1661(ra)
     700:	4b4b498a 	c2	0x14b498a
     704:	03514b4c 	syscall	0xd452d
     708:	4db9ba18 	0x4db9ba18
     70c:	bc83bc48 	cache	0x3,-17336(a0)
     710:	024b7808 	0x24b7808
     714:	01010020 	add	zero,t0,at
     718:	000001bb 	0x1bb
     71c:	01400002 	0x1400002
     720:	01010000 	0x1010000
     724:	000d0efb 	0xd0efb
     728:	01010101 	0x1010101
     72c:	01000000 	0x1000000
     730:	2f010000 	sltiu	at,t8,0
     734:	72657375 	q16slr	xr13,xr12,xr5,xr9,9
     738:	70696d2f 	0x70696d2f
     73c:	74777373 	jalx	1ddcdcc <__memory_size+0x1dbd5cc>
     740:	7469672f 	jalx	1a59cbc <__memory_size+0x1a3a4bc>
     744:	77656e2f 	jalx	d95b8bc <__memory_size+0xd93c0bc>
     748:	2f62696c 	sltiu	v0,k1,26988
     74c:	6c77656e 	0x6c77656e
     750:	6c2f6269 	0x6c2f6269
     754:	2f636269 	sltiu	v1,k1,25193
     758:	6c647473 	0x6c647473
     75c:	2f006269 	sltiu	zero,t8,25193
     760:	72657375 	q16slr	xr13,xr12,xr5,xr9,9
     764:	70696d2f 	0x70696d2f
     768:	74777373 	jalx	1ddcdcc <__memory_size+0x1dbd5cc>
     76c:	7469672f 	jalx	1a59cbc <__memory_size+0x1a3a4bc>
     770:	77656e2f 	jalx	d95b8bc <__memory_size+0xd93c0bc>
     774:	2f62696c 	sltiu	v0,k1,26988
     778:	6c77656e 	0x6c77656e
     77c:	6c2f6269 	0x6c2f6269
     780:	2f636269 	sltiu	v1,k1,25193
     784:	6c636e69 	0x6c636e69
     788:	2f656475 	sltiu	a1,k1,25717
     78c:	00737973 	tltu	v1,s3,0x1e5
     790:	6573752f 	0x6573752f
     794:	696d2f72 	0x696d2f72
     798:	77737370 	jalx	dcdcdc0 <__memory_size+0xdcbd5c0>
     79c:	75622f74 	jalx	588bdd0 <__memory_size+0x586c5d0>
     7a0:	2d646c69 	sltiu	a0,t3,27753
     7a4:	35313032 	ori	s1,t1,0x3032
     7a8:	2d36302e 	sltiu	s6,t1,12334
     7ac:	692f3530 	0x692f3530
     7b0:	6174736e 	0x6174736e
     7b4:	6d2d6c6c 	0x6d2d6c6c
     7b8:	2d737069 	sltiu	s3,t3,28777
     7bc:	2d69746d 	sltiu	t1,t3,29805
     7c0:	2f666c65 	sltiu	a2,k1,27749
     7c4:	2f62696c 	sltiu	v0,k1,26988
     7c8:	2f636367 	sltiu	v1,k1,25447
     7cc:	7370696d 	s16sdi	xr5,k1,52,
     7d0:	69746d2d 	0x69746d2d
     7d4:	666c652d 	0x666c652d
     7d8:	392e342f 	xori	t6,t1,0x342f
     7dc:	692f322e 	0x692f322e
     7e0:	756c636e 	jalx	5b18db8 <__memory_size+0x5af95b8>
     7e4:	2f006564 	sltiu	zero,t8,25956
     7e8:	72657375 	q16slr	xr13,xr12,xr5,xr9,9
     7ec:	70696d2f 	0x70696d2f
     7f0:	74777373 	jalx	1ddcdcc <__memory_size+0x1dbd5cc>
     7f4:	7469672f 	jalx	1a59cbc <__memory_size+0x1a3a4bc>
     7f8:	77656e2f 	jalx	d95b8bc <__memory_size+0xd93c0bc>
     7fc:	2f62696c 	sltiu	v0,k1,26988
     800:	6c77656e 	0x6c77656e
     804:	6c2f6269 	0x6c2f6269
     808:	2f636269 	sltiu	v1,k1,25193
     80c:	6c636e69 	0x6c636e69
     810:	00656475 	0x656475
     814:	635f5f00 	0x635f5f00
     818:	5f6c6c61 	0x5f6c6c61
     81c:	78657461 	ld.h	$w17,202(t6)
     820:	632e7469 	0x632e7469
     824:	00000100 	sll	zero,zero,0x4
     828:	6b636f6c 	0x6b636f6c
     82c:	0200682e 	0x200682e
     830:	745f0000 	jalx	17c0000 <__memory_size+0x17a0800>
     834:	73657079 	0x73657079
     838:	0200682e 	0x200682e
     83c:	74730000 	jalx	1cc0000 <__memory_size+0x1ca0800>
     840:	66656464 	0x66656464
     844:	0300682e 	0x300682e
     848:	65720000 	0x65720000
     84c:	2e746e65 	sltiu	s4,s3,28261
     850:	00020068 	0x20068
     854:	64747300 	0x64747300
     858:	2e62696c 	sltiu	v0,s3,26988
     85c:	00040068 	0x40068
     860:	05000000 	bltz	t0,864 <__isr_vec_space+0x844>
     864:	000a0c02 	srl	at,t2,0x10
     868:	00c30380 	0xc30380
     86c:	010f0301 	0x10f0301
     870:	034a7103 	0x34a7103
     874:	71034a0f 	d16mace	xr8,xr2,xr13,xr0,AS,WW
     878:	00c4034a 	0xc4034a
     87c:	7fbc034a 	0x7fbc034a
     880:	4a1c034a 	c2	0x1c034a
     884:	034a2803 	0x34a2803
     888:	034a7fbc 	0x34a7fbc
     88c:	0128020f 	0x128020f
     890:	894c4983 	lwl	t4,18819(t2)
     894:	01040200 	0x1040200
     898:	8906f206 	lwl	a2,-3578(t0)
     89c:	02040200 	0x2040200
     8a0:	c0068206 	ll	a2,-32250(zero)
     8a4:	884d7708 	lwl	t5,30472(v0)
     8a8:	820903f3 	lb	t1,1011(s0)
     8ac:	01040200 	0x1040200
     8b0:	0200ba06 	0x200ba06
     8b4:	03060204 	0x3060204
     8b8:	2c03ba5d 	sltiu	v1,zero,-17827
     8bc:	020087ba 	0x20087ba
     8c0:	ba060104 	swr	a2,260(s0)
     8c4:	86838a06 	lh	v1,-30202(s4)
     8c8:	825c034b 	lb	gp,843(s2)
     8cc:	0387f4f3 	tltu	gp,a3,0x3d3
     8d0:	2c028224 	sltiu	v0,zero,-32220
     8d4:	0d010100 	jal	4040400 <__memory_size+0x4020c00>
     8d8:	02000001 	movf	zero,s0,$fcc0
     8dc:	0000ca00 	sll	t9,zero,0x8
     8e0:	fb010100 	sdc2	$1,256(t8)
     8e4:	01000d0e 	0x1000d0e
     8e8:	00010101 	0x10101
     8ec:	00010000 	sll	zero,at,0x0
     8f0:	752f0100 	jalx	4bc0400 <__memory_size+0x4ba0c00>
     8f4:	2f726573 	sltiu	s2,k1,25971
     8f8:	7370696d 	s16sdi	xr5,k1,52,
     8fc:	2f747773 	sltiu	s4,k1,30579
     900:	2f746967 	sltiu	s4,k1,26983
     904:	6c77656e 	0x6c77656e
     908:	6c2f6269 	0x6c2f6269
     90c:	6c676269 	0x6c676269
     910:	2f73736f 	sltiu	s3,k1,29551
     914:	7370696d 	s16sdi	xr5,k1,52,
     918:	73752f00 	0x73752f00
     91c:	6d2f7265 	0x6d2f7265
     920:	73737069 	0x73737069
     924:	672f7477 	0x672f7477
     928:	6e2f7469 	0x6e2f7469
     92c:	696c7765 	0x696c7765
     930:	656e2f62 	0x656e2f62
     934:	62696c77 	0x62696c77
     938:	62696c2f 	0x62696c2f
     93c:	6e692f63 	0x6e692f63
     940:	64756c63 	0x64756c63
     944:	616d2f65 	0x616d2f65
     948:	6e696863 	0x6e696863
     94c:	752f0065 	jalx	4bc0194 <__memory_size+0x4ba0994>
     950:	2f726573 	sltiu	s2,k1,25971
     954:	7370696d 	s16sdi	xr5,k1,52,
     958:	2f747773 	sltiu	s4,k1,30579
     95c:	2f746967 	sltiu	s4,k1,26983
     960:	6c77656e 	0x6c77656e
     964:	6e2f6269 	0x6e2f6269
     968:	696c7765 	0x696c7765
     96c:	696c2f62 	0x696c2f62
     970:	692f6362 	0x692f6362
     974:	756c636e 	jalx	5b18db8 <__memory_size+0x5af95b8>
     978:	00006564 	0x6564
     97c:	5f696875 	0x5f696875
     980:	74697865 	jalx	1a5e194 <__memory_size+0x1a3e994>
     984:	0100632e 	0x100632e
     988:	645f0000 	0x645f0000
     98c:	75616665 	jalx	5859994 <__memory_size+0x583a194>
     990:	745f746c 	jalx	17dd1b0 <__memory_size+0x17bd9b0>
     994:	73657079 	0x73657079
     998:	0200682e 	0x200682e
     99c:	74730000 	jalx	1cc0000 <__memory_size+0x1ca0800>
     9a0:	746e6964 	jalx	1b9a590 <__memory_size+0x1b7ad90>
     9a4:	0300682e 	0x300682e
     9a8:	00000000 	nop
     9ac:	0b8c0205 	j	e300814 <__memory_size+0xe2e1014>
     9b0:	3c038000 	lui	v1,0x8000
     9b4:	82160301 	lb	s6,769(s0)
     9b8:	034a6a03 	0x34a6a03
     9bc:	6c034a14 	0x6c034a14
     9c0:	4a12034a 	c2	0x12034a
     9c4:	4a6c034c 	c2	0x6c034c
     9c8:	034a1203 	0x34a1203
     9cc:	16034a6e 	bne	s0,v1,13388 <__isr_vec_space+0x13368>
     9d0:	4a6a034a 	c2	0x6a034a
     9d4:	4c4b4b4b 	0x4c4b4b4b
     9d8:	be4a0d03 	cache	0xa,3331(s2)
     9dc:	83837e83 	lb	v1,32387(gp)
     9e0:	02f26d03 	0x2f26d03
     9e4:	01010008 	0x1010008
     9e8:	00000087 	0x87
     9ec:	004b0002 	0x4b0002
     9f0:	01010000 	0x1010000
     9f4:	000d0efb 	0xd0efb
     9f8:	01010101 	0x1010101
     9fc:	01000000 	0x1000000
     a00:	2f010000 	sltiu	at,t8,0
     a04:	72657375 	q16slr	xr13,xr12,xr5,xr9,9
     a08:	70696d2f 	0x70696d2f
     a0c:	74777373 	jalx	1ddcdcc <__memory_size+0x1dbd5cc>
     a10:	7469672f 	jalx	1a59cbc <__memory_size+0x1a3a4bc>
     a14:	77656e2f 	jalx	d95b8bc <__memory_size+0xd93c0bc>
     a18:	2f62696c 	sltiu	v0,k1,26988
     a1c:	6762696c 	0x6762696c
     a20:	73736f6c 	s16ldi	xr13,k1,438,ptn2
     a24:	70696d2f 	0x70696d2f
     a28:	75000073 	jalx	40001cc <__memory_size+0x3fe09cc>
     a2c:	675f6968 	0x675f6968
     a30:	72617465 	s8sdi	xr1,s3,93,ptn0
     a34:	532e7367 	beql	t9,t6,1d7d4 <__isr_vec_space+0x1d7b4>
     a38:	00000100 	sll	zero,zero,0x4
     a3c:	02050000 	0x2050000
     a40:	80000c14 	lb	zero,3092(zero)
     a44:	4b012a03 	c2	0x1012a03
     a48:	4d4c4b4c 	0x4d4c4b4c
     a4c:	4b4b4b84 	c2	0x14b4b84
     a50:	4e4b4b83 	c3	0x4b4b83
     a54:	4c4c4b4b 	0x4c4c4b4b
     a58:	834b4b84 	lb	t3,19332(k0)
     a5c:	4c4b4b4b 	0x4c4b4b4b
     a60:	4c4b4b4b 	0x4c4b4b4b
     a64:	4b4b844c 	c2	0x14b844c
     a68:	4b4e4b85 	c2	0x14e4b85
     a6c:	0802144b 	j	8512c <__memory_size+0x6592c>
     a70:	f4010100 	sdc1	$f1,256(zero)
     a74:	02000000 	0x2000000
     a78:	0000d300 	sll	k0,zero,0xc
     a7c:	fb010100 	sdc2	$1,256(t8)
     a80:	01000d0e 	0x1000d0e
     a84:	00010101 	0x10101
     a88:	00010000 	sll	zero,at,0x0
     a8c:	752f0100 	jalx	4bc0400 <__memory_size+0x4ba0c00>
     a90:	2f726573 	sltiu	s2,k1,25971
     a94:	7370696d 	s16sdi	xr5,k1,52,
     a98:	2f747773 	sltiu	s4,k1,30579
     a9c:	2f746967 	sltiu	s4,k1,26983
     aa0:	6c77656e 	0x6c77656e
     aa4:	6c2f6269 	0x6c2f6269
     aa8:	6c676269 	0x6c676269
     aac:	2f73736f 	sltiu	s3,k1,29551
     ab0:	7370696d 	s16sdi	xr5,k1,52,
     ab4:	73752f00 	0x73752f00
     ab8:	6d2f7265 	0x6d2f7265
     abc:	73737069 	0x73737069
     ac0:	672f7477 	0x672f7477
     ac4:	6e2f7469 	0x6e2f7469
     ac8:	696c7765 	0x696c7765
     acc:	656e2f62 	0x656e2f62
     ad0:	62696c77 	0x62696c77
     ad4:	62696c2f 	0x62696c2f
     ad8:	6e692f63 	0x6e692f63
     adc:	64756c63 	0x64756c63
     ae0:	616d2f65 	0x616d2f65
     ae4:	6e696863 	0x6e696863
     ae8:	752f0065 	jalx	4bc0194 <__memory_size+0x4ba0994>
     aec:	2f726573 	sltiu	s2,k1,25971
     af0:	7370696d 	s16sdi	xr5,k1,52,
     af4:	2f747773 	sltiu	s4,k1,30579
     af8:	2f746967 	sltiu	s4,k1,26983
     afc:	6c77656e 	0x6c77656e
     b00:	6e2f6269 	0x6e2f6269
     b04:	696c7765 	0x696c7765
     b08:	696c2f62 	0x696c2f62
     b0c:	692f6362 	0x692f6362
     b10:	756c636e 	jalx	5b18db8 <__memory_size+0x5af95b8>
     b14:	00006564 	0x6564
     b18:	5f696875 	0x5f696875
     b1c:	5f746567 	0x5f746567
     b20:	5f6d6172 	0x5f6d6172
     b24:	676e6172 	0x676e6172
     b28:	00632e65 	0x632e65
     b2c:	5f000001 	bgtzl	t8,b34 <__isr_vec_space+0xb14>
     b30:	61666564 	0x61666564
     b34:	5f746c75 	0x5f746c75
     b38:	65707974 	0x65707974
     b3c:	00682e73 	tltu	v1,t0,0xb9
     b40:	73000002 	mul	zero,t8,zero
     b44:	6e696474 	0x6e696474
     b48:	00682e74 	teq	v1,t0,0xb9
     b4c:	00000003 	sra	zero,zero,0x0
     b50:	cc020500 	pref	0x2,1280(zero)
     b54:	0380000c 	syscall	0xe0000
     b58:	45170127 	bc1tl	$fcc5,ff8 <__isr_vec_space+0xfd8>
     b5c:	4e4b454f 	c3	0x4b454f
     b60:	864c83bc 	lh	t4,-31812(s2)
     b64:	08028450 	j	a1140 <__memory_size+0x81940>
     b68:	04010100 	b	f6c <__isr_vec_space+0xf4c>
     b6c:	02000001 	movf	zero,s0,$fcc0
     b70:	00005d00 	sll	t3,zero,0x14
     b74:	fb010100 	sdc2	$1,256(t8)
     b78:	01000d0e 	0x1000d0e
     b7c:	00010101 	0x10101
     b80:	00010000 	sll	zero,at,0x0
     b84:	752f0100 	jalx	4bc0400 <__memory_size+0x4ba0c00>
     b88:	2f726573 	sltiu	s2,k1,25971
     b8c:	7370696d 	s16sdi	xr5,k1,52,
     b90:	2f747773 	sltiu	s4,k1,30579
     b94:	2f746967 	sltiu	s4,k1,26983
     b98:	6c77656e 	0x6c77656e
     b9c:	6c2f6269 	0x6c2f6269
     ba0:	6c676269 	0x6c676269
     ba4:	2f73736f 	sltiu	s3,k1,29551
     ba8:	7370696d 	s16sdi	xr5,k1,52,
     bac:	6c61682f 	0x6c61682f
     bb0:	62696c2f 	0x62696c2f
     bb4:	70696d2f 	0x70696d2f
     bb8:	6d000073 	0x6d000073
     bbc:	5f737069 	0x5f737069
     bc0:	70637865 	s8sdi	xr1,v1,-34,ptn0
     bc4:	6e655f74 	0x6e655f74
     bc8:	2e797274 	sltiu	t9,s3,29300
     bcc:	00010053 	0x10053
     bd0:	05000000 	bltz	t0,bd4 <__isr_vec_space+0xbb4>
     bd4:	00000002 	srl	zero,zero,0x0
     bd8:	00c20380 	0xc20380
     bdc:	854b8301 	lh	t3,-31999(t2)
     be0:	02838384 	0x2838384
     be4:	83831854 	lb	v1,6228(gp)
     be8:	83177002 	lb	s7,28674(t8)
     bec:	16700283 	bne	s3,s0,15fc <__isr_vec_space+0x15dc>
     bf0:	0802834d 	j	a0d34 <__memory_size+0x81534>
     bf4:	00010100 	sll	zero,at,0x4
     bf8:	18b80205 	0x18b80205
     bfc:	f2038000 	0xf2038000
     c00:	4d4c0100 	lwxc1	$f4,t4(t2)
     c04:	4b4b4b4b 	c2	0x14b4b4b
     c08:	4b4b4b4b 	c2	0x14b4b4b
     c0c:	4b4b4b4b 	c2	0x14b4b4b
     c10:	4b4b4b4b 	c2	0x14b4b4b
     c14:	4b4b4b4b 	c2	0x14b4b4b
     c18:	4b4b4b4b 	c2	0x14b4b4b
     c1c:	4b4b4c4b 	c2	0x14b4c4b
     c20:	4b4d4b4b 	c2	0x14d4b4b
     c24:	4b4f4b4b 	c2	0x14f4b4b
     c28:	4b4b4d4b 	c2	0x14b4d4b
     c2c:	4b4b4b4c 	c2	0x14b4b4c
     c30:	4b4c834b 	c2	0x14c834b
     c34:	4d4b4c83 	0x4d4b4c83
     c38:	4b4b4b4d 	c2	0x14b4b4d
     c3c:	844d4b4b 	lh	t5,19275(v0)
     c40:	834e4d4d 	lb	t6,19789(k0)
     c44:	4b4b4b88 	c2	0x14b4b88
     c48:	4b4b4b4d 	c2	0x14b4b4d
     c4c:	4b4b4b4b 	c2	0x14b4b4b
     c50:	4b4b4b4b 	c2	0x14b4b4b
     c54:	4b4b4b4b 	c2	0x14b4b4b
     c58:	4b4b4b4b 	c2	0x14b4b4b
     c5c:	4b4b4b4b 	c2	0x14b4b4b
     c60:	4b4c4c4b 	c2	0x14c4c4b
     c64:	4b4b4b4b 	c2	0x14b4b4b
     c68:	4b4b4b4b 	c2	0x14b4b4b
     c6c:	04024c4b 	bltzl	zero,13d9c <__isr_vec_space+0x13d7c>
     c70:	b7010100 	0xb7010100
     c74:	02000002 	0x2000002
     c78:	0001d900 	sll	k1,at,0x4
     c7c:	fb010100 	sdc2	$1,256(t8)
     c80:	01000d0e 	0x1000d0e
     c84:	00010101 	0x10101
     c88:	00010000 	sll	zero,at,0x0
     c8c:	752f0100 	jalx	4bc0400 <__memory_size+0x4ba0c00>
     c90:	2f726573 	sltiu	s2,k1,25971
     c94:	7370696d 	s16sdi	xr5,k1,52,
     c98:	2f747773 	sltiu	s4,k1,30579
     c9c:	2f746967 	sltiu	s4,k1,26983
     ca0:	6c77656e 	0x6c77656e
     ca4:	6c2f6269 	0x6c2f6269
     ca8:	6c676269 	0x6c676269
     cac:	2f73736f 	sltiu	s3,k1,29551
     cb0:	7370696d 	s16sdi	xr5,k1,52,
     cb4:	6c61682f 	0x6c61682f
     cb8:	62696c2f 	0x62696c2f
     cbc:	70696d2f 	0x70696d2f
     cc0:	752f0073 	jalx	4bc01cc <__memory_size+0x4ba09cc>
     cc4:	2f726573 	sltiu	s2,k1,25971
     cc8:	7370696d 	s16sdi	xr5,k1,52,
     ccc:	2f747773 	sltiu	s4,k1,30579
     cd0:	6c697562 	0x6c697562
     cd4:	30322d64 	andi	s2,at,0x2d64
     cd8:	302e3531 	andi	t6,at,0x3531
     cdc:	35302d36 	ori	s0,t1,0x2d36
     ce0:	736e692f 	0x736e692f
     ce4:	6c6c6174 	0x6c6c6174
     ce8:	70696d2d 	s16sdi	xr4,v1,182,ptn1
     cec:	746d2d73 	jalx	1b4b5cc <__memory_size+0x1b2bdcc>
     cf0:	6c652d69 	0x6c652d69
     cf4:	696c2f66 	0x696c2f66
     cf8:	63672f62 	0x63672f62
     cfc:	696d2f63 	0x696d2f63
     d00:	6d2d7370 	0x6d2d7370
     d04:	652d6974 	0x652d6974
     d08:	342f666c 	ori	t7,at,0x666c
     d0c:	322e392e 	andi	t6,s1,0x392e
     d10:	636e692f 	0x636e692f
     d14:	6564756c 	0x6564756c
     d18:	73752f00 	0x73752f00
     d1c:	6d2f7265 	0x6d2f7265
     d20:	73737069 	0x73737069
     d24:	672f7477 	0x672f7477
     d28:	6e2f7469 	0x6e2f7469
     d2c:	696c7765 	0x696c7765
     d30:	656e2f62 	0x656e2f62
     d34:	62696c77 	0x62696c77
     d38:	62696c2f 	0x62696c2f
     d3c:	6e692f63 	0x6e692f63
     d40:	64756c63 	0x64756c63
     d44:	616d2f65 	0x616d2f65
     d48:	6e696863 	0x6e696863
     d4c:	752f0065 	jalx	4bc0194 <__memory_size+0x4ba0994>
     d50:	2f726573 	sltiu	s2,k1,25971
     d54:	7370696d 	s16sdi	xr5,k1,52,
     d58:	2f747773 	sltiu	s4,k1,30579
     d5c:	2f746967 	sltiu	s4,k1,26983
     d60:	6c77656e 	0x6c77656e
     d64:	6c2f6269 	0x6c2f6269
     d68:	6c676269 	0x6c676269
     d6c:	2f73736f 	sltiu	s3,k1,29551
     d70:	7370696d 	s16sdi	xr5,k1,52,
     d74:	6c61682f 	0x6c61682f
     d78:	636e692f 	0x636e692f
     d7c:	6564756c 	0x6564756c
     d80:	70696d2f 	0x70696d2f
     d84:	752f0073 	jalx	4bc01cc <__memory_size+0x4ba09cc>
     d88:	2f726573 	sltiu	s2,k1,25971
     d8c:	7370696d 	s16sdi	xr5,k1,52,
     d90:	2f747773 	sltiu	s4,k1,30579
     d94:	2f746967 	sltiu	s4,k1,26983
     d98:	6c77656e 	0x6c77656e
     d9c:	6e2f6269 	0x6e2f6269
     da0:	696c7765 	0x696c7765
     da4:	696c2f62 	0x696c2f62
     da8:	692f6362 	0x692f6362
     dac:	756c636e 	jalx	5b18db8 <__memory_size+0x5af95b8>
     db0:	2f006564 	sltiu	zero,t8,25956
     db4:	72657375 	q16slr	xr13,xr12,xr5,xr9,9
     db8:	70696d2f 	0x70696d2f
     dbc:	74777373 	jalx	1ddcdcc <__memory_size+0x1dbd5cc>
     dc0:	7469672f 	jalx	1a59cbc <__memory_size+0x1a3a4bc>
     dc4:	77656e2f 	jalx	d95b8bc <__memory_size+0xd93c0bc>
     dc8:	2f62696c 	sltiu	v0,k1,26988
     dcc:	6c77656e 	0x6c77656e
     dd0:	6c2f6269 	0x6c2f6269
     dd4:	2f636269 	sltiu	v1,k1,25193
     dd8:	6c636e69 	0x6c636e69
     ddc:	2f656475 	sltiu	a1,k1,25717
     de0:	00737973 	tltu	v1,s3,0x1e5
     de4:	70696d00 	0x70696d00
     de8:	78655f73 	0x78655f73
     dec:	5f747063 	0x5f747063
     df0:	646e6168 	0x646e6168
     df4:	2e72656c 	sltiu	s2,s3,25964
     df8:	00010063 	0x10063
     dfc:	64747300 	0x64747300
     e00:	2e666564 	sltiu	a2,s3,25956
     e04:	00020068 	0x20068
     e08:	65645f00 	0x65645f00
     e0c:	6c756166 	0x6c756166
     e10:	79745f74 	0x79745f74
     e14:	2e736570 	sltiu	s3,s3,25968
     e18:	00030068 	0x30068
     e1c:	32336d00 	andi	s3,s1,0x6d00
     e20:	682e3063 	0x682e3063
     e24:	00000400 	sll	zero,zero,0x10
     e28:	69647473 	0x69647473
     e2c:	682e746e 	0x682e746e
     e30:	00000500 	sll	zero,zero,0x14
     e34:	2e6c6168 	sltiu	t4,s3,24936
     e38:	00040068 	0x40068
     e3c:	72747300 	0x72747300
     e40:	2e676e69 	sltiu	a3,s3,28265
     e44:	00050068 	0x50068
     e48:	696e7500 	0x696e7500
     e4c:	2e647473 	sltiu	a0,s3,29811
     e50:	00060068 	0x60068
     e54:	05000000 	bltz	t0,e58 <__isr_vec_space+0xe38>
     e58:	000d1402 	srl	v0,t5,0x10
     e5c:	01300380 	0x1300380
     e60:	0883b208 	j	20ec820 <__memory_size+0x20cd020>
     e64:	4a760377 	c2	0x760377
     e68:	494a0a03 	0x494a0a03
     e6c:	84ab08f3 	lh	t3,2291(a1)
     e70:	750883bc 	jalx	4220ef0 <__memory_size+0x42016f0>
     e74:	03137808 	0x3137808
     e78:	49138219 	bc2tl	$cc4,fffe16e0 <__entry+0x403e16e0>
     e7c:	02f3494b 	0x2f3494b
     e80:	bef51524 	cache	0x15,5412(s7)
     e84:	bd3d08be 	cache	0x1d,2238(t1)
     e88:	847508be 	lh	s5,2238(v1)
     e8c:	3c080b03 	lui	t0,0xb03
     e90:	08f5f5f4 	j	3d7d7d0 <__memory_size+0x3d5dfd0>
     e94:	854bbc41 	lh	t3,-17343(t2)
     e98:	83edf4f6 	lb	t5,-2826(ra)
     e9c:	9603f7bb 	lhu	v1,-2117(s0)
     ea0:	ed038201 	swc3	$3,-32255(t0)
     ea4:	bdbd827e 	cache	0x1d,-32130(t5)
     ea8:	083f08bd 	j	fc22f4 <__memory_size+0xfa2af4>
     eac:	08f3f340 	j	3cfcd00 <__memory_size+0x3cdd500>
     eb0:	4bbb4b3e 	c2	0x1bb4b3e
     eb4:	f3f7854b 	0xf3f7854b
     eb8:	4b3e08f3 	c2	0x13e08f3
     ebc:	844c4bbb 	lh	t4,19387(v0)
     ec0:	3f08f5f5 	0x3f08f5f5
     ec4:	3f083f08 	0x3f083f08
     ec8:	bdbd3f08 	cache	0x1d,16136(t5)
     ecc:	083f08f5 	j	fc23d4 <__memory_size+0xfa2bd4>
     ed0:	083f083f 	j	fc20fc <__memory_size+0xfa28fc>
     ed4:	0840083f 	j	10020fc <__memory_size+0xfe28fc>
     ed8:	083d08ad 	j	f422b4 <__memory_size+0xf22ab4>
     edc:	083e083d 	j	f820f4 <__memory_size+0xf628f4>
     ee0:	083d083d 	j	f420f4 <__memory_size+0xf228f4>
     ee4:	083e083d 	j	f820f4 <__memory_size+0xf628f4>
     ee8:	083d083d 	j	f420f4 <__memory_size+0xf228f4>
     eec:	083e083d 	j	f820f4 <__memory_size+0xf628f4>
     ef0:	083d083d 	j	f420f4 <__memory_size+0xf228f4>
     ef4:	083e083d 	j	f820f4 <__memory_size+0xf628f4>
     ef8:	083d083d 	j	f420f4 <__memory_size+0xf228f4>
     efc:	083e083d 	j	f820f4 <__memory_size+0xf628f4>
     f00:	083d083d 	j	f420f4 <__memory_size+0xf228f4>
     f04:	083e083d 	j	f820f4 <__memory_size+0xf628f4>
     f08:	083d083d 	j	f420f4 <__memory_size+0xf228f4>
     f0c:	083e083d 	j	f820f4 <__memory_size+0xf628f4>
     f10:	083d083d 	j	f420f4 <__memory_size+0xf228f4>
     f14:	083f083d 	j	fc20f4 <__memory_size+0xfa28f4>
     f18:	083f083d 	j	fc20f4 <__memory_size+0xfa28f4>
     f1c:	083e083d 	j	f820f4 <__memory_size+0xf628f4>
     f20:	083d083d 	j	f420f4 <__memory_size+0xf228f4>
     f24:	083f083d 	j	fc20f4 <__memory_size+0xfa28f4>
     f28:	00180243 	sra	zero,t8,0x9
     f2c:	00980101 	0x980101
     f30:	00020000 	sll	zero,v0,0x0
     f34:	00000060 	0x60
     f38:	0efb0101 	jal	bec0404 <__memory_size+0xbea0c04>
     f3c:	0101000d 	break	0x101
     f40:	00000101 	0x101
     f44:	00000100 	sll	zero,zero,0x4
     f48:	73752f01 	0x73752f01
     f4c:	6d2f7265 	0x6d2f7265
     f50:	73737069 	0x73737069
     f54:	672f7477 	0x672f7477
     f58:	6e2f7469 	0x6e2f7469
     f5c:	696c7765 	0x696c7765
     f60:	696c2f62 	0x696c2f62
     f64:	6f6c6762 	0x6f6c6762
     f68:	6d2f7373 	0x6d2f7373
     f6c:	2f737069 	sltiu	s3,k1,28777
     f70:	2f6c6168 	sltiu	t4,k1,24936
     f74:	2f62696c 	sltiu	v0,k1,26988
     f78:	7370696d 	s16sdi	xr5,k1,52,
     f7c:	696d0000 	0x696d0000
     f80:	655f7370 	0x655f7370
     f84:	74706378 	jalx	1c18de0 <__memory_size+0x1bf95e0>
     f88:	6765725f 	0x6765725f
     f8c:	65747369 	0x65747369
     f90:	00532e72 	tlt	v0,s3,0xb9
     f94:	00000001 	movf	zero,zero,$fcc0
     f98:	bc020500 	cache	0x2,1280(zero)
     f9c:	03800014 	0x3800014
     fa0:	4b4f0135 	c2	0x14f0135
     fa4:	8383524b 	lb	v1,21067(gp)
     fa8:	4b4d834b 	c2	0x14d834b
     fac:	4a090384 	c2	0x90384
     fb0:	4d4b4b86 	0x4d4b4b86
     fb4:	4b4b854d 	c2	0x14b854d
     fb8:	4b4b854c 	c2	0x14b854c
     fbc:	4b858613 	c2	0x1858613
     fc0:	854b4d4b 	lh	t3,19787(t2)
     fc4:	0008024c 	syscall	0x2009
     fc8:	01090101 	0x1090101
     fcc:	00020000 	sll	zero,v0,0x0
     fd0:	0000005c 	0x5c
     fd4:	0efb0101 	jal	bec0404 <__memory_size+0xbea0c04>
     fd8:	0101000d 	break	0x101
     fdc:	00000101 	0x101
     fe0:	00000100 	sll	zero,zero,0x4
     fe4:	73752f01 	0x73752f01
     fe8:	6d2f7265 	0x6d2f7265
     fec:	73737069 	0x73737069
     ff0:	672f7477 	0x672f7477
     ff4:	6e2f7469 	0x6e2f7469
     ff8:	696c7765 	0x696c7765
     ffc:	696c2f62 	0x696c2f62
    1000:	6f6c6762 	0x6f6c6762
    1004:	6d2f7373 	0x6d2f7373
    1008:	2f737069 	sltiu	s3,k1,28777
    100c:	2f6c6168 	sltiu	t4,k1,24936
    1010:	2f62696c 	sltiu	v0,k1,26988
    1014:	7370696d 	s16sdi	xr5,k1,52,
    1018:	696d0000 	0x696d0000
    101c:	655f7370 	0x655f7370
    1020:	74706378 	jalx	1c18de0 <__memory_size+0x1bf95e0>
    1024:	6f6f625f 	0x6f6f625f
    1028:	00532e74 	teq	v0,s3,0xb9
    102c:	00000001 	movf	zero,zero,$fcc0
    1030:	6c020500 	0x6c020500
    1034:	03800015 	0x3800015
    1038:	830100cf 	lb	at,207(t8)
    103c:	4b4b4c4b 	c2	0x14b4c4b
    1040:	4b4b4b4b 	c2	0x14b4b4b
    1044:	4b4b4b4b 	c2	0x14b4b4b
    1048:	4f4c4b4b 	c3	0x14c4b4b
    104c:	4d4b4d4b 	0x4d4b4d4b
    1050:	4b874b4b 	c2	0x1874b4b
    1054:	03134d4d 	break	0x313,0x135
    1058:	4c4b820e 	0x4c4b820e
    105c:	4b4b4b4b 	c2	0x14b4b4b
    1060:	4b4c834d 	c2	0x14c834d
    1064:	4b854b4c 	c2	0x1854b4c
    1068:	4b4b834d 	c2	0x14b834d
    106c:	4b4b4b4b 	c2	0x14b4b4b
    1070:	4b4b4b4b 	c2	0x14b4b4b
    1074:	524b4b4b 	beql	s2,t3,13da4 <__isr_vec_space+0x13d84>
    1078:	4b4d4c4b 	c2	0x14d4c4b
    107c:	1003134d 	beq	zero,v1,5db4 <__isr_vec_space+0x5d94>
    1080:	4b4b4d82 	c2	0x14b4d82
    1084:	4b83154b 	c2	0x183154b
    1088:	4b4d4b4b 	c2	0x14d4b4b
    108c:	4b4b4b4b 	c2	0x14b4b4b
    1090:	4b4b4b4b 	c2	0x14b4b4b
    1094:	4b4b4b4b 	c2	0x14b4b4b
    1098:	4b4b4b4b 	c2	0x14b4b4b
    109c:	4b4b4b4b 	c2	0x14b4b4b
    10a0:	4b4b4b4b 	c2	0x14b4b4b
    10a4:	834d4b4b 	lb	t5,19275(k0)
    10a8:	4a15034b 	c2	0x15034b
    10ac:	0f034d4b 	jal	c0d352c <__memory_size+0xc0b3d2c>
    10b0:	4b4b8382 	c2	0x14b8382
    10b4:	82110313 	lb	s1,787(s0)
    10b8:	4b4b8385 	c2	0x14b8385
    10bc:	4b4b4b85 	c2	0x14b4b85
    10c0:	4b4b4b84 	c2	0x14b4b84
    10c4:	83524b4e 	lb	s2,19278(k0)
    10c8:	4b4c8484 	c2	0x14c8484
    10cc:	4b844b4b 	c2	0x1844b4b
    10d0:	08024c4c 	j	93130 <__memory_size+0x73930>
    10d4:	8a010100 	lwl	at,256(s0)
    10d8:	02000000 	0x2000000
    10dc:	00005b00 	sll	t3,zero,0xc
    10e0:	fb010100 	sdc2	$1,256(t8)
    10e4:	01000d0e 	0x1000d0e
    10e8:	00010101 	0x10101
    10ec:	00010000 	sll	zero,at,0x0
    10f0:	752f0100 	jalx	4bc0400 <__memory_size+0x4ba0c00>
    10f4:	2f726573 	sltiu	s2,k1,25971
    10f8:	7370696d 	s16sdi	xr5,k1,52,
    10fc:	2f747773 	sltiu	s4,k1,30579
    1100:	2f746967 	sltiu	s4,k1,26983
    1104:	6c77656e 	0x6c77656e
    1108:	6c2f6269 	0x6c2f6269
    110c:	6c676269 	0x6c676269
    1110:	2f73736f 	sltiu	s3,k1,29551
    1114:	7370696d 	s16sdi	xr5,k1,52,
    1118:	6c61682f 	0x6c61682f
    111c:	62696c2f 	0x62696c2f
    1120:	70696d2f 	0x70696d2f
    1124:	6d000073 	0x6d000073
    1128:	5f737069 	0x5f737069
    112c:	70637865 	s8sdi	xr1,v1,-34,ptn0
    1130:	73695f74 	q16sll	xr13,xr7,xr5,xr10,13
    1134:	00532e72 	tlt	v0,s3,0xb9
    1138:	00000001 	movf	zero,zero,$fcc0
    113c:	00020500 	sll	zero,v0,0x14
    1140:	03800002 	0x3800002
    1144:	8383012d 	lb	v1,301(gp)
    1148:	f68383f6 	sdc1	$f3,-31754(s4)
    114c:	83f68383 	lb	s6,-31869(ra)
    1150:	8383f683 	lb	v1,-2429(gp)
    1154:	f68383f6 	sdc1	$f3,-31754(s4)
    1158:	83f68383 	lb	s6,-31869(ra)
    115c:	8383f783 	lb	v1,-2173(gp)
    1160:	01000802 	0x1000802
    1164:	00001901 	0x1901
    1168:	13000200 	beqz	t8,196c <__isr_vec_space+0x194c>
    116c:	01000000 	0x1000000
    1170:	0d0efb01 	jal	43bec04 <__memory_size+0x439f404>
    1174:	01010100 	0x1010100
    1178:	00000001 	movf	zero,zero,$fcc0
    117c:	01000001 	movf	zero,t0,$fcc0
    1180:	01880000 	0x1880000
    1184:	00020000 	sll	zero,v0,0x0
    1188:	0000016a 	0x16a
    118c:	0efb0101 	jal	bec0404 <__memory_size+0xbea0c04>
    1190:	0101000d 	break	0x101
    1194:	00000101 	0x101
    1198:	00000100 	sll	zero,zero,0x4
    119c:	73752f01 	0x73752f01
    11a0:	6d2f7265 	0x6d2f7265
    11a4:	73737069 	0x73737069
    11a8:	672f7477 	0x672f7477
    11ac:	6e2f7469 	0x6e2f7469
    11b0:	696c7765 	0x696c7765
    11b4:	696c2f62 	0x696c2f62
    11b8:	6f6c6762 	0x6f6c6762
    11bc:	6d2f7373 	0x6d2f7373
    11c0:	00737069 	0x737069
    11c4:	6573752f 	0x6573752f
    11c8:	696d2f72 	0x696d2f72
    11cc:	77737370 	jalx	dcdcdc0 <__memory_size+0xdcbd5c0>
    11d0:	69672f74 	0x69672f74
    11d4:	656e2f74 	0x656e2f74
    11d8:	62696c77 	0x62696c77
    11dc:	77656e2f 	jalx	d95b8bc <__memory_size+0xd93c0bc>
    11e0:	2f62696c 	sltiu	v0,k1,26988
    11e4:	6362696c 	0x6362696c
    11e8:	636e692f 	0x636e692f
    11ec:	6564756c 	0x6564756c
    11f0:	63616d2f 	0x63616d2f
    11f4:	656e6968 	0x656e6968
    11f8:	73752f00 	0x73752f00
    11fc:	6d2f7265 	0x6d2f7265
    1200:	73737069 	0x73737069
    1204:	672f7477 	0x672f7477
    1208:	6e2f7469 	0x6e2f7469
    120c:	696c7765 	0x696c7765
    1210:	656e2f62 	0x656e2f62
    1214:	62696c77 	0x62696c77
    1218:	62696c2f 	0x62696c2f
    121c:	6e692f63 	0x6e692f63
    1220:	64756c63 	0x64756c63
    1224:	752f0065 	jalx	4bc0194 <__memory_size+0x4ba0994>
    1228:	2f726573 	sltiu	s2,k1,25971
    122c:	7370696d 	s16sdi	xr5,k1,52,
    1230:	2f747773 	sltiu	s4,k1,30579
    1234:	6c697562 	0x6c697562
    1238:	30322d64 	andi	s2,at,0x2d64
    123c:	302e3531 	andi	t6,at,0x3531
    1240:	35302d36 	ori	s0,t1,0x2d36
    1244:	736e692f 	0x736e692f
    1248:	6c6c6174 	0x6c6c6174
    124c:	70696d2d 	s16sdi	xr4,v1,182,ptn1
    1250:	746d2d73 	jalx	1b4b5cc <__memory_size+0x1b2bdcc>
    1254:	6c652d69 	0x6c652d69
    1258:	696c2f66 	0x696c2f66
    125c:	63672f62 	0x63672f62
    1260:	696d2f63 	0x696d2f63
    1264:	6d2d7370 	0x6d2d7370
    1268:	652d6974 	0x652d6974
    126c:	342f666c 	ori	t7,at,0x666c
    1270:	322e392e 	andi	t6,s1,0x392e
    1274:	636e692f 	0x636e692f
    1278:	6564756c 	0x6564756c
    127c:	73752f00 	0x73752f00
    1280:	6d2f7265 	0x6d2f7265
    1284:	73737069 	0x73737069
    1288:	672f7477 	0x672f7477
    128c:	6e2f7469 	0x6e2f7469
    1290:	696c7765 	0x696c7765
    1294:	656e2f62 	0x656e2f62
    1298:	62696c77 	0x62696c77
    129c:	62696c2f 	0x62696c2f
    12a0:	6e692f63 	0x6e692f63
    12a4:	64756c63 	0x64756c63
    12a8:	79732f65 	st.h	$w29,742(a1)
    12ac:	75000073 	jalx	40001cc <__memory_size+0x3fe09cc>
    12b0:	775f6968 	jalx	d7da5a0 <__memory_size+0xd7bada0>
    12b4:	65746972 	0x65746972
    12b8:	0100632e 	0x100632e
    12bc:	645f0000 	0x645f0000
    12c0:	75616665 	jalx	5859994 <__memory_size+0x583a194>
    12c4:	745f746c 	jalx	17dd1b0 <__memory_size+0x17bd9b0>
    12c8:	73657079 	0x73657079
    12cc:	0200682e 	0x200682e
    12d0:	74730000 	jalx	1cc0000 <__memory_size+0x1ca0800>
    12d4:	746e6964 	jalx	1b9a590 <__memory_size+0x1b7ad90>
    12d8:	0300682e 	0x300682e
    12dc:	74730000 	jalx	1cc0000 <__memory_size+0x1ca0800>
    12e0:	66656464 	0x66656464
    12e4:	0400682e 	bltz	zero,1b3a0 <__isr_vec_space+0x1b380>
    12e8:	72650000 	madd	s3,a1
    12ec:	2e6f6e72 	sltiu	t7,s3,28274
    12f0:	00050068 	0x50068
    12f4:	05000000 	bltz	t0,12f8 <__isr_vec_space+0x12d8>
    12f8:	00180402 	srl	zero,t8,0x10
    12fc:	01340380 	0x1340380
    1300:	454f464e 	0x454f464e
    1304:	4bf65052 	c2	0x1f65052
    1308:	001402f6 	tne	zero,s4,0xb
    130c:	01340101 	0x1340101
    1310:	00020000 	sll	zero,v0,0x0
    1314:	0000011b 	0x11b
    1318:	0efb0101 	jal	bec0404 <__memory_size+0xbea0c04>
    131c:	0101000d 	break	0x101
    1320:	00000101 	0x101
    1324:	00000100 	sll	zero,zero,0x4
    1328:	73752f01 	0x73752f01
    132c:	6d2f7265 	0x6d2f7265
    1330:	73737069 	0x73737069
    1334:	672f7477 	0x672f7477
    1338:	6e2f7469 	0x6e2f7469
    133c:	696c7765 	0x696c7765
    1340:	696c2f62 	0x696c2f62
    1344:	6f6c6762 	0x6f6c6762
    1348:	6d2f7373 	0x6d2f7373
    134c:	00737069 	0x737069
    1350:	6573752f 	0x6573752f
    1354:	696d2f72 	0x696d2f72
    1358:	77737370 	jalx	dcdcdc0 <__memory_size+0xdcbd5c0>
    135c:	69672f74 	0x69672f74
    1360:	656e2f74 	0x656e2f74
    1364:	62696c77 	0x62696c77
    1368:	77656e2f 	jalx	d95b8bc <__memory_size+0xd93c0bc>
    136c:	2f62696c 	sltiu	v0,k1,26988
    1370:	6362696c 	0x6362696c
    1374:	636e692f 	0x636e692f
    1378:	6564756c 	0x6564756c
    137c:	63616d2f 	0x63616d2f
    1380:	656e6968 	0x656e6968
    1384:	73752f00 	0x73752f00
    1388:	6d2f7265 	0x6d2f7265
    138c:	73737069 	0x73737069
    1390:	672f7477 	0x672f7477
    1394:	6e2f7469 	0x6e2f7469
    1398:	696c7765 	0x696c7765
    139c:	656e2f62 	0x656e2f62
    13a0:	62696c77 	0x62696c77
    13a4:	62696c2f 	0x62696c2f
    13a8:	6e692f63 	0x6e692f63
    13ac:	64756c63 	0x64756c63
    13b0:	752f0065 	jalx	4bc0194 <__memory_size+0x4ba0994>
    13b4:	2f726573 	sltiu	s2,k1,25971
    13b8:	7370696d 	s16sdi	xr5,k1,52,
    13bc:	2f747773 	sltiu	s4,k1,30579
    13c0:	2f746967 	sltiu	s4,k1,26983
    13c4:	6c77656e 	0x6c77656e
    13c8:	6c2f6269 	0x6c2f6269
    13cc:	6c676269 	0x6c676269
    13d0:	2f73736f 	sltiu	s3,k1,29551
    13d4:	7370696d 	s16sdi	xr5,k1,52,
    13d8:	6c61682f 	0x6c61682f
    13dc:	636e692f 	0x636e692f
    13e0:	6564756c 	0x6564756c
    13e4:	70696d2f 	0x70696d2f
    13e8:	75000073 	jalx	40001cc <__memory_size+0x3fe09cc>
    13ec:	655f6968 	0x655f6968
    13f0:	70656378 	0x70656378
    13f4:	6e6f6974 	0x6e6f6974
    13f8:	0100632e 	0x100632e
    13fc:	645f0000 	0x645f0000
    1400:	75616665 	jalx	5859994 <__memory_size+0x583a194>
    1404:	745f746c 	jalx	17dd1b0 <__memory_size+0x17bd9b0>
    1408:	73657079 	0x73657079
    140c:	0200682e 	0x200682e
    1410:	74730000 	jalx	1cc0000 <__memory_size+0x1ca0800>
    1414:	746e6964 	jalx	1b9a590 <__memory_size+0x1b7ad90>
    1418:	0300682e 	0x300682e
    141c:	336d0000 	andi	t5,k1,0x0
    1420:	2e306332 	sltiu	s0,s1,25394
    1424:	00040068 	0x40068
    1428:	6c616800 	0x6c616800
    142c:	0400682e 	bltz	zero,1b4e8 <__isr_vec_space+0x1b4c8>
    1430:	00000000 	nop
    1434:	18540205 	0x18540205
    1438:	34038000 	li	v1,0x8000
    143c:	4c4b1501 	0x4c4b1501
    1440:	00080250 	0x80250
    1444:	013f0101 	0x13f0101
    1448:	00020000 	sll	zero,v0,0x0
    144c:	0000011a 	0x11a
    1450:	0efb0101 	jal	bec0404 <__memory_size+0xbea0c04>
    1454:	0101000d 	break	0x101
    1458:	00000101 	0x101
    145c:	00000100 	sll	zero,zero,0x4
    1460:	73752f01 	0x73752f01
    1464:	6d2f7265 	0x6d2f7265
    1468:	73737069 	0x73737069
    146c:	672f7477 	0x672f7477
    1470:	6e2f7469 	0x6e2f7469
    1474:	696c7765 	0x696c7765
    1478:	696c2f62 	0x696c2f62
    147c:	6f6c6762 	0x6f6c6762
    1480:	6d2f7373 	0x6d2f7373
    1484:	00737069 	0x737069
    1488:	6573752f 	0x6573752f
    148c:	696d2f72 	0x696d2f72
    1490:	77737370 	jalx	dcdcdc0 <__memory_size+0xdcbd5c0>
    1494:	69672f74 	0x69672f74
    1498:	656e2f74 	0x656e2f74
    149c:	62696c77 	0x62696c77
    14a0:	62696c2f 	0x62696c2f
    14a4:	736f6c67 	0x736f6c67
    14a8:	696d2f73 	0x696d2f73
    14ac:	682f7370 	0x682f7370
    14b0:	692f6c61 	0x692f6c61
    14b4:	756c636e 	jalx	5b18db8 <__memory_size+0x5af95b8>
    14b8:	6d2f6564 	0x6d2f6564
    14bc:	00737069 	0x737069
    14c0:	6573752f 	0x6573752f
    14c4:	696d2f72 	0x696d2f72
    14c8:	77737370 	jalx	dcdcdc0 <__memory_size+0xdcbd5c0>
    14cc:	69672f74 	0x69672f74
    14d0:	656e2f74 	0x656e2f74
    14d4:	62696c77 	0x62696c77
    14d8:	77656e2f 	jalx	d95b8bc <__memory_size+0xd93c0bc>
    14dc:	2f62696c 	sltiu	v0,k1,26988
    14e0:	6362696c 	0x6362696c
    14e4:	636e692f 	0x636e692f
    14e8:	6564756c 	0x6564756c
    14ec:	63616d2f 	0x63616d2f
    14f0:	656e6968 	0x656e6968
    14f4:	73752f00 	0x73752f00
    14f8:	6d2f7265 	0x6d2f7265
    14fc:	73737069 	0x73737069
    1500:	672f7477 	0x672f7477
    1504:	6e2f7469 	0x6e2f7469
    1508:	696c7765 	0x696c7765
    150c:	656e2f62 	0x656e2f62
    1510:	62696c77 	0x62696c77
    1514:	62696c2f 	0x62696c2f
    1518:	6e692f63 	0x6e692f63
    151c:	64756c63 	0x64756c63
    1520:	75000065 	jalx	4000194 <__memory_size+0x3fe0994>
    1524:	695f6968 	0x695f6968
    1528:	7269646e 	0x7269646e
    152c:	2e746365 	sltiu	s4,s3,25445
    1530:	00010063 	0x10063
    1534:	32336d00 	andi	s3,s1,0x6d00
    1538:	682e3063 	0x682e3063
    153c:	00000200 	sll	zero,zero,0x8
    1540:	6665645f 	0x6665645f
    1544:	746c7561 	jalx	1b1d584 <__memory_size+0x1afdd84>
    1548:	7079745f 	udi15	v1,t9,t6,0x11
    154c:	682e7365 	0x682e7365
    1550:	00000300 	sll	zero,zero,0xc
    1554:	69647473 	0x69647473
    1558:	682e746e 	0x682e746e
    155c:	00000400 	sll	zero,zero,0x10
    1560:	2e6c6168 	sltiu	t4,s3,24936
    1564:	00020068 	0x20068
    1568:	05000000 	bltz	t0,156c <__isr_vec_space+0x154c>
    156c:	00186802 	srl	t5,t8,0x0
    1570:	01230380 	0x1230380
    1574:	464f4b01 	c1	0x4f4b01
    1578:	4e4b4b4b 	c3	0x4b4b4b
    157c:	4b464f4f 	c2	0x1464f4f
    1580:	4d4c484d 	0x4d4c484d
    1584:	01000802 	0x1000802
    1588:	00011f01 	0x11f01
    158c:	09000200 	j	4000800 <__memory_size+0x3fe1000>
    1590:	01000001 	movf	zero,t0,$fcc0
    1594:	0d0efb01 	jal	43bec04 <__memory_size+0x439f404>
    1598:	01010100 	0x1010100
    159c:	00000001 	movf	zero,zero,$fcc0
    15a0:	01000001 	movf	zero,t0,$fcc0
    15a4:	6573752f 	0x6573752f
    15a8:	696d2f72 	0x696d2f72
    15ac:	77737370 	jalx	dcdcdc0 <__memory_size+0xdcbd5c0>
    15b0:	69672f74 	0x69672f74
    15b4:	656e2f74 	0x656e2f74
    15b8:	62696c77 	0x62696c77
    15bc:	77656e2f 	jalx	d95b8bc <__memory_size+0xd93c0bc>
    15c0:	2f62696c 	sltiu	v0,k1,26988
    15c4:	6362696c 	0x6362696c
    15c8:	7272652f 	0x7272652f
    15cc:	2f006f6e 	sltiu	zero,t8,28526
    15d0:	72657375 	q16slr	xr13,xr12,xr5,xr9,9
    15d4:	70696d2f 	0x70696d2f
    15d8:	74777373 	jalx	1ddcdcc <__memory_size+0x1dbd5cc>
    15dc:	7469672f 	jalx	1a59cbc <__memory_size+0x1a3a4bc>
    15e0:	77656e2f 	jalx	d95b8bc <__memory_size+0xd93c0bc>
    15e4:	2f62696c 	sltiu	v0,k1,26988
    15e8:	6c77656e 	0x6c77656e
    15ec:	6c2f6269 	0x6c2f6269
    15f0:	2f636269 	sltiu	v1,k1,25193
    15f4:	6c636e69 	0x6c636e69
    15f8:	2f656475 	sltiu	a1,k1,25717
    15fc:	00737973 	tltu	v1,s3,0x1e5
    1600:	6573752f 	0x6573752f
    1604:	696d2f72 	0x696d2f72
    1608:	77737370 	jalx	dcdcdc0 <__memory_size+0xdcbd5c0>
    160c:	75622f74 	jalx	588bdd0 <__memory_size+0x586c5d0>
    1610:	2d646c69 	sltiu	a0,t3,27753
    1614:	35313032 	ori	s1,t1,0x3032
    1618:	2d36302e 	sltiu	s6,t1,12334
    161c:	692f3530 	0x692f3530
    1620:	6174736e 	0x6174736e
    1624:	6d2d6c6c 	0x6d2d6c6c
    1628:	2d737069 	sltiu	s3,t3,28777
    162c:	2d69746d 	sltiu	t1,t3,29805
    1630:	2f666c65 	sltiu	a2,k1,27749
    1634:	2f62696c 	sltiu	v0,k1,26988
    1638:	2f636367 	sltiu	v1,k1,25447
    163c:	7370696d 	s16sdi	xr5,k1,52,
    1640:	69746d2d 	0x69746d2d
    1644:	666c652d 	0x666c652d
    1648:	392e342f 	xori	t6,t1,0x342f
    164c:	692f322e 	0x692f322e
    1650:	756c636e 	jalx	5b18db8 <__memory_size+0x5af95b8>
    1654:	00006564 	0x6564
    1658:	6e727265 	0x6e727265
    165c:	00632e6f 	0x632e6f
    1660:	6c000001 	0x6c000001
    1664:	2e6b636f 	sltiu	t3,s3,25455
    1668:	00020068 	0x20068
    166c:	79745f00 	ori.b	$w28,$w11,0x74
    1670:	2e736570 	sltiu	s3,s3,25968
    1674:	00020068 	0x20068
    1678:	64747300 	0x64747300
    167c:	2e666564 	sltiu	a2,s3,25956
    1680:	00030068 	0x30068
    1684:	65657200 	0x65657200
    1688:	682e746e 	0x682e746e
    168c:	00000200 	sll	zero,zero,0x8
    1690:	6e727265 	0x6e727265
    1694:	00682e6f 	0x682e6f
    1698:	00000002 	srl	zero,zero,0x0
    169c:	ac020500 	sw	v0,1280(zero)
    16a0:	03800018 	mult	gp,zero
    16a4:	0214010b 	0x214010b
    16a8:	0101000c 	syscall	0x40400

Disassembly of section .debug_frame:

00000000 <.debug_frame>:
   0:	0000000c 	syscall
   4:	ffffffff 	sdc3	$31,-1(ra)
   8:	7c010001 	0x7c010001
   c:	001d0d1f 	0x1d0d1f
  10:	00000014 	0x14
  14:	00000000 	nop
  18:	8000075c 	lb	zero,1884(zero)
  1c:	00000060 	0x60
  20:	02100e44 	0x2100e44
  24:	00000e5c 	0xe5c
  28:	00000014 	0x14
  2c:	00000000 	nop
  30:	800007bc 	lb	zero,1980(zero)
  34:	00000038 	0x38
  38:	74080e44 	jalx	203910 <__memory_size+0x1e4110>
  3c:	0000000e 	0xe
  40:	00000020 	add	zero,zero,zero
  44:	00000000 	nop
  48:	800007f4 	lb	zero,2036(zero)
  4c:	00000050 	0x50
  50:	4c200e44 	0x4c200e44
  54:	0291019f 	0x291019f
  58:	40020390 	0x40020390
  5c:	d1d0000e 	0xd1d0000e
  60:	000000df 	0xdf
  64:	0000000c 	syscall
  68:	00000000 	nop
  6c:	80000844 	lb	zero,2116(zero)
  70:	00000014 	0x14
  74:	0000000c 	syscall
  78:	ffffffff 	sdc3	$31,-1(ra)
  7c:	7c010001 	0x7c010001
  80:	001d0d1f 	0x1d0d1f
  84:	00000018 	mult	zero,zero
  88:	00000074 	teq	zero,zero,0x1
  8c:	800008a0 	lb	zero,2208(zero)
  90:	00000028 	0x28
  94:	4c180e44 	0x4c180e44
  98:	0e58019f 	jal	960067c <__memory_size+0x95e0e7c>
  9c:	0000df00 	sll	k1,zero,0x1c
  a0:	0000000c 	syscall
  a4:	ffffffff 	sdc3	$31,-1(ra)
  a8:	7c010001 	0x7c010001
  ac:	001d0d1f 	0x1d0d1f
  b0:	00000014 	0x14
  b4:	000000a0 	0xa0
  b8:	800008c8 	lb	zero,2248(zero)
  bc:	0000003c 	0x3c
  c0:	4c180e44 	0x4c180e44
  c4:	019f0290 	0x19f0290
  c8:	0000000c 	syscall
  cc:	ffffffff 	sdc3	$31,-1(ra)
  d0:	7c010001 	0x7c010001
  d4:	001d0d1f 	0x1d0d1f
  d8:	0000002c 	0x2c
  dc:	000000c8 	0xc8
  e0:	80000904 	lb	zero,2308(zero)
  e4:	00000108 	0x108
  e8:	44280e48 	0x44280e48
  ec:	94480690 	lhu	t0,1680(v0)
  f0:	03934802 	0x3934802
  f4:	4c049248 	0x4c049248
  f8:	019f0591 	0x19f0591
  fc:	000ed802 	srl	k1,t6,0x0
 100:	d3d2d1d0 	0xd3d2d1d0
 104:	0000dfd4 	0xdfd4
 108:	0000000c 	syscall
 10c:	ffffffff 	sdc3	$31,-1(ra)
 110:	7c010001 	0x7c010001
 114:	001d0d1f 	0x1d0d1f
 118:	00000038 	0x38
 11c:	00000108 	0x108
 120:	80000a0c 	lb	zero,2572(zero)
 124:	00000180 	sll	zero,zero,0x6
 128:	48400e48 	0x48400e48
 12c:	97480793 	lhu	t0,1939(k0)
 130:	04965003 	0x4965003
 134:	9f600694 	0x9f600694
 138:	95029e01 	lhu	v0,-25087(t0)
 13c:	91089205 	lbu	t0,-28155(t0)
 140:	030a9009 	0x30a9009
 144:	000e0138 	0xe0138
 148:	d3d2d1d0 	0xd3d2d1d0
 14c:	d7d6d5d4 	ldc1	$f22,-10796(s8)
 150:	0000dfde 	0xdfde
 154:	0000000c 	syscall
 158:	ffffffff 	sdc3	$31,-1(ra)
 15c:	7c010001 	0x7c010001
 160:	001d0d1f 	0x1d0d1f
 164:	00000020 	add	zero,zero,zero
 168:	00000154 	0x154
 16c:	80000b8c 	lb	zero,2956(zero)
 170:	00000088 	0x88
 174:	44280e44 	0x44280e44
 178:	91480392 	lbu	t0,914(t2)
 17c:	05904804 	bltzal	t4,12190 <__isr_vec_space+0x12170>
 180:	9f029354 	0x9f029354
 184:	00000001 	movf	zero,zero,$fcc0
 188:	0000000c 	syscall
 18c:	ffffffff 	sdc3	$31,-1(ra)
 190:	7c010001 	0x7c010001
 194:	001d0d1f 	0x1d0d1f
 198:	0000000c 	syscall
 19c:	00000188 	0x188
 1a0:	80000ccc 	lb	zero,3276(zero)
 1a4:	00000048 	0x48
 1a8:	0000000c 	syscall
 1ac:	ffffffff 	sdc3	$31,-1(ra)
 1b0:	7c010001 	0x7c010001
 1b4:	001d0d1f 	0x1d0d1f
 1b8:	00000024 	and	zero,zero,zero
 1bc:	000001a8 	0x1a8
 1c0:	80000d14 	lb	zero,3348(zero)
 1c4:	000000c0 	ehb
 1c8:	44280e44 	0x44280e44
 1cc:	91480292 	lbu	t0,658(t2)
 1d0:	04904803 	bltzal	a0,121e0 <__isr_vec_space+0x121c0>
 1d4:	02019f4c 	syscall	0x8067d
 1d8:	d0000e9c 	0xd0000e9c
 1dc:	00dfd2d1 	0xdfd2d1
 1e0:	0000000c 	syscall
 1e4:	000001a8 	0x1a8
 1e8:	80000dd4 	lb	zero,3540(zero)
 1ec:	00000008 	jr	zero
 1f0:	00000024 	and	zero,zero,zero
 1f4:	000001a8 	0x1a8
 1f8:	80000ddc 	lb	zero,3548(zero)
 1fc:	000006dc 	0x6dc
 200:	48200e48 	0x48200e48
 204:	9f4c0490 	0x9f4c0490
 208:	48029201 	0x48029201
 20c:	b8030391 	swr	v1,913(zero)
 210:	d0000e06 	0xd0000e06
 214:	00dfd2d1 	0xdfd2d1
 218:	0000000c 	syscall
 21c:	ffffffff 	sdc3	$31,-1(ra)
 220:	7c010001 	0x7c010001
 224:	001d0d1f 	0x1d0d1f
 228:	0000001c 	0x1c
 22c:	00000218 	0x218
 230:	80001804 	lb	zero,6148(zero)
 234:	00000050 	0x50
 238:	50200e44 	beqzl	at,3b4c <__isr_vec_space+0x3b2c>
 23c:	0290019f 	0x290019f
 240:	d0000e7c 	0xd0000e7c
 244:	000000df 	0xdf
 248:	0000000c 	syscall
 24c:	ffffffff 	sdc3	$31,-1(ra)
 250:	7c010001 	0x7c010001
 254:	001d0d1f 	0x1d0d1f
 258:	0000000c 	syscall
 25c:	00000248 	0x248
 260:	80001854 	lb	zero,6228(zero)
 264:	00000014 	0x14
 268:	0000000c 	syscall
 26c:	ffffffff 	sdc3	$31,-1(ra)
 270:	7c010001 	0x7c010001
 274:	001d0d1f 	0x1d0d1f
 278:	0000000c 	syscall
 27c:	00000268 	0x268
 280:	80001868 	lb	zero,6248(zero)
 284:	00000044 	0x44
 288:	0000000c 	syscall
 28c:	ffffffff 	sdc3	$31,-1(ra)
 290:	7c010001 	0x7c010001
 294:	001d0d1f 	0x1d0d1f
 298:	0000000c 	syscall
 29c:	00000288 	0x288
 2a0:	800018ac 	lb	zero,6316(zero)
 2a4:	0000000c 	syscall

Disassembly of section .debug_str:

00000000 <.debug_str>:
   0:	20554e47 	addi	s5,v0,20039
   4:	2e342043 	sltiu	s4,s1,8259
   8:	20322e39 	addi	s2,at,11833
   c:	6c656d2d 	0x6c656d2d
  10:	736d2d20 	0x736d2d20
  14:	2d74666f 	sltiu	s4,t3,26223
  18:	616f6c66 	0x616f6c66
  1c:	6d2d2074 	0x6d2d2074
  20:	68637261 	0x68637261
  24:	34316d3d 	ori	s1,at,0x6d3d
  28:	2d20636b 	sltiu	zero,t1,25451
  2c:	746c706d 	jalx	1b1c1b4 <__memory_size+0x1afc9b4>
  30:	696d2d20 	0x696d2d20
  34:	32337370 	andi	s3,s1,0x7370
  38:	2d203272 	sltiu	zero,t1,12914
  3c:	6e79736d 	0x6e79736d
  40:	2d206963 	sltiu	zero,t1,26979
  44:	6962616d 	0x6962616d
  48:	2032333d 	addi	s2,at,13117
  4c:	2d20672d 	sltiu	zero,t1,26413
  50:	5f00314f 	bgtzl	t8,c590 <__isr_vec_space+0xc570>
  54:	7370696d 	s16sdi	xr5,k1,52,
  58:	6e61685f 	0x6e61685f
  5c:	5f656c64 	0x5f656c64
  60:	65637865 	0x65637865
  64:	6f697470 	0x6f697470
  68:	4d44006e 	msub.ps	$f1,$f10,$f0,$f4
  6c:	49535f41 	0x49535f41
  70:	6300455a 	0x6300455a
  74:	5f727275 	0x5f727275
  78:	4400736d 	0x4400736d
  7c:	535f414d 	beql	k0,ra,105b4 <__isr_vec_space+0x10594>
  80:	75004352 	jalx	4010d48 <__memory_size+0x3ff1548>
  84:	6769736e 	0x6769736e
  88:	2064656e 	addi	a0,v1,25966
  8c:	72616863 	s8std	xr1,s3,90,ptn0
  90:	6c656400 	0x6c656400
  94:	6d5f7961 	0x6d5f7961
  98:	68730073 	0x68730073
  9c:	2074726f 	addi	s4,v1,29295
  a0:	69736e75 	0x69736e75
  a4:	64656e67 	0x64656e67
  a8:	746e6920 	jalx	1b9a480 <__memory_size+0x1b7ac80>
  ac:	66696400 	0x66696400
  b0:	74730066 	jalx	1cc0198 <__memory_size+0x1ca0998>
  b4:	5f747261 	0x5f747261
  b8:	6d00736d 	0x6d00736d
  bc:	006e6961 	0x6e6961
  c0:	375f4f49 	ori	ra,k0,0x4f49
  c4:	45474553 	0x45474553
  c8:	4f49004e 	c3	0x149004e
  cc:	4553375f 	0x4553375f
  d0:	49003047 	bc2f	c1f0 <__isr_vec_space+0xc1d0>
  d4:	53375f4f 	beql	t9,s7,17e14 <__isr_vec_space+0x17df4>
  d8:	00314745 	0x314745
  dc:	375f4f49 	ori	ra,k0,0x4f49
  e0:	32474553 	andi	a3,s2,0x4553
  e4:	5f4f4900 	0x5f4f4900
  e8:	47455337 	bz.w	$w5,14dc8 <__isr_vec_space+0x14da8>
  ec:	4f490033 	c3	0x1490033
  f0:	4c494d5f 	0x4c494d5f
  f4:	0053494c 	syscall	0x14d25
  f8:	676e6f6c 	0x676e6f6c
  fc:	6e6f6c20 	0x6e6f6c20
 100:	6e752067 	0x6e752067
 104:	6e676973 	0x6e676973
 108:	69206465 	0x69206465
 10c:	4400746e 	0x4400746e
 110:	445f414d 	0x445f414d
 114:	72005453 	udi3	s0,zero,t2,0x11
 118:	6f736165 	0x6f736165
 11c:	6973006e 	0x6973006e
 120:	7974657a 	0x7974657a
 124:	2f006570 	sltiu	zero,t8,25968
 128:	656d6f68 	0x656d6f68
 12c:	6177732f 	0x6177732f
 130:	6b616c6c 	0x6b616c6c
 134:	636f442f 	0x636f442f
 138:	6e656d75 	0x6e656d75
 13c:	542f7374 	bnel	at,t7,1cf10 <__isr_vec_space+0x1cef0>
 140:	50472f55 	beql	v0,a3,be98 <__isr_vec_space+0xbe78>
 144:	4c2f4145 	0x4c2f4145
 148:	2f736261 	sltiu	s3,k1,25185
 14c:	3762614c 	ori	v0,k1,0x614c
 150:	6f72502f 	0x6f72502f
 154:	6d617267 	0x6d617267
 158:	4d442f73 	0x4d442f73
 15c:	00315f41 	0x315f41
 160:	74697277 	jalx	1a5c9dc <__memory_size+0x1a3d1dc>
 164:	78654865 	st.h	$w1,202(t1)
 168:	546c6156 	bnel	v1,t4,186c4 <__isr_vec_space+0x186a4>
 16c:	6553376f 	0x6553376f
 170:	6c007367 	0x6c007367
 174:	20676e6f 	addi	a3,v1,28271
 178:	676e6f6c 	0x676e6f6c
 17c:	746e6920 	jalx	1b9a480 <__memory_size+0x1b7ac80>
 180:	69616d00 	0x69616d00
 184:	00632e6e 	0x632e6e
 188:	4c5f4f49 	0x4c5f4f49
 18c:	00524445 	0x524445
 190:	726f6873 	d32sar	xr1,xr10,xr13,xr11,9
 194:	6e692074 	0x6e692074
 198:	4d440074 	0x4d440074
 19c:	54535f41 	bnel	v0,s3,17ea4 <__isr_vec_space+0x17e84>
 1a0:	00545241 	0x545241
 1a4:	74615f5f 	jalx	1857d7c <__memory_size+0x183857c>
 1a8:	74697865 	jalx	1a5e194 <__memory_size+0x1a3e994>
 1ac:	7079745f 	udi15	v1,t9,t6,0x11
 1b0:	2f007365 	sltiu	zero,t8,29541
 1b4:	72657375 	q16slr	xr13,xr12,xr5,xr9,9
 1b8:	70696d2f 	0x70696d2f
 1bc:	74777373 	jalx	1ddcdcc <__memory_size+0x1dbd5cc>
 1c0:	7469672f 	jalx	1a59cbc <__memory_size+0x1a3a4bc>
 1c4:	77656e2f 	jalx	d95b8bc <__memory_size+0xd93c0bc>
 1c8:	2f62696c 	sltiu	v0,k1,26988
 1cc:	6c77656e 	0x6c77656e
 1d0:	6c2f6269 	0x6c2f6269
 1d4:	2f636269 	sltiu	v1,k1,25193
 1d8:	6c647473 	0x6c647473
 1dc:	612f6269 	0x612f6269
 1e0:	69786574 	0x69786574
 1e4:	00632e74 	teq	v1,v1,0xb9
 1e8:	20554e47 	addi	s5,v0,20039
 1ec:	2e342043 	sltiu	s4,s1,8259
 1f0:	20322e39 	addi	s2,at,11833
 1f4:	6c656d2d 	0x6c656d2d
 1f8:	736d2d20 	0x736d2d20
 1fc:	2d74666f 	sltiu	s4,t3,26223
 200:	616f6c66 	0x616f6c66
 204:	6d2d2074 	0x6d2d2074
 208:	65746e69 	0x65746e69
 20c:	6e696c72 	0x6e696c72
 210:	696d2d6b 	0x696d2d6b
 214:	36317370 	ori	s1,s1,0x7370
 218:	636d2d20 	0x636d2d20
 21c:	2d65646f 	sltiu	a1,t3,25711
 220:	64616572 	0x64616572
 224:	656c6261 	0x656c6261
 228:	7263703d 	0x7263703d
 22c:	2d206c65 	sltiu	zero,t1,27749
 230:	2d6f6e6d 	sltiu	t7,t3,28269
 234:	706f7067 	0x706f7067
 238:	6d2d2074 	0x6d2d2074
 23c:	74666f73 	jalx	199bdcc <__memory_size+0x197c5cc>
 240:	6f6c662d 	0x6f6c662d
 244:	2d207461 	sltiu	zero,t1,29793
 248:	6372616d 	0x6372616d
 24c:	696d3d68 	0x696d3d68
 250:	32337370 	andi	s3,s1,0x7370
 254:	2d203272 	sltiu	zero,t1,12914
 258:	746c706d 	jalx	1b1c1b4 <__memory_size+0x1afc9b4>
 25c:	696d2d20 	0x696d2d20
 260:	32337370 	andi	s3,s1,0x7370
 264:	2d203272 	sltiu	zero,t1,12914
 268:	6e79736d 	0x6e79736d
 26c:	2d206963 	sltiu	zero,t1,26979
 270:	6962616d 	0x6962616d
 274:	2032333d 	addi	s2,at,13117
 278:	2d20672d 	sltiu	zero,t1,26413
 27c:	2d20324f 	sltiu	zero,t1,12879
 280:	2d20734f 	sltiu	zero,t1,29519
 284:	2d6f6e66 	sltiu	t7,t3,28262
 288:	6c697562 	0x6c697562
 28c:	006e6974 	teq	v1,t6,0x1a5
 290:	65725f5f 	0x65725f5f
 294:	74736967 	jalx	1cda59c <__memory_size+0x1cbad9c>
 298:	655f7265 	0x655f7265
 29c:	70746978 	0x70746978
 2a0:	00636f72 	tlt	v1,v1,0x1bd
 2a4:	74655f5f 	jalx	1957d7c <__memory_size+0x193857c>
 2a8:	656e6f5f 	0x656e6f5f
 2ac:	00746978 	0x746978
 2b0:	74655f5f 	jalx	1957d7c <__memory_size+0x193857c>
 2b4:	6178635f 	0x6178635f
 2b8:	655f5f00 	0x655f5f00
 2bc:	74615f74 	jalx	1857dd0 <__memory_size+0x18385d0>
 2c0:	74697865 	jalx	1a5e194 <__memory_size+0x1a3e994>
 2c4:	73645f00 	0x73645f00
 2c8:	61685f6f 	0x61685f6f
 2cc:	656c646e 	0x656c646e
 2d0:	6e665f00 	0x6e665f00
 2d4:	73677261 	0x73677261
 2d8:	61725f00 	0x61725f00
 2dc:	3834646e 	xori	s4,at,0x646e
 2e0:	6d655f00 	0x6d655f00
 2e4:	65677265 	0x65677265
 2e8:	0079636e 	0x79636e
 2ec:	7263775f 	udi15	s3,v1,t6,0x1d
 2f0:	626d6f74 	0x626d6f74
 2f4:	6174735f 	0x6174735f
 2f8:	5f006574 	bgtzl	t8,198cc <__isr_vec_space+0x198ac>
 2fc:	72736377 	q16sar	xr13,xr8,xr13,xr12,9
 300:	626d6f74 	0x626d6f74
 304:	74735f73 	jalx	1cd7dcc <__memory_size+0x1cb85cc>
 308:	00657461 	0x657461
 30c:	66626c5f 	0x66626c5f
 310:	657a6973 	0x657a6973
 314:	626d5f00 	0x626d5f00
 318:	776f7472 	jalx	dbdd1c8 <__memory_size+0xdbbd9c8>
 31c:	74735f63 	jalx	1cd7d8c <__memory_size+0x1cb858c>
 320:	00657461 	0x657461
 324:	7463775f 	jalx	18ddd7c <__memory_size+0x18be57c>
 328:	5f626d6f 	0x5f626d6f
 32c:	74617473 	jalx	185d1cc <__memory_size+0x183d9cc>
 330:	5f5f0065 	0x5f5f0065
 334:	735f6d74 	q16sll	xr5,xr11,xr13,xr7,13
 338:	5f006365 	bgtzl	t8,190d0 <__isr_vec_space+0x190b0>
 33c:	66756275 	0x66756275
 340:	745f5f00 	jalx	17d7c00 <__memory_size+0x17b8400>
 344:	6f685f6d 	0x6f685f6d
 348:	5f007275 	bgtzl	t8,1cd20 <__isr_vec_space+0x1cd00>
 34c:	0066735f 	0x66735f
 350:	5f6e6f5f 	0x5f6e6f5f
 354:	74697865 	jalx	1a5e194 <__memory_size+0x1a3e994>
 358:	6772615f 	0x6772615f
 35c:	635f0073 	0x635f0073
 360:	696b6f6f 	0x696b6f6f
 364:	5f5f0065 	0x5f5f0065
 368:	756c6773 	jalx	5b19dcc <__memory_size+0x5afa5cc>
 36c:	665f0065 	0x665f0065
 370:	7367616c 	s16ldi	xr5,k1,-80,ptn0
 374:	73695f00 	0x73695f00
 378:	6178635f 	0x6178635f
 37c:	74735f00 	jalx	1cd7c00 <__memory_size+0x1cb8400>
 380:	006e6964 	0x6e6964
 384:	6b6c625f 	0x6b6c625f
 388:	657a6973 	0x657a6973
 38c:	76635f00 	jalx	98d7c00 <__memory_size+0x98b8400>
 390:	66756274 	0x66756274
 394:	666f5f00 	0x666f5f00
 398:	74657366 	jalx	195cd98 <__memory_size+0x193d598>
 39c:	626d5f00 	0x626d5f00
 3a0:	6f747273 	0x6f747273
 3a4:	5f736377 	0x5f736377
 3a8:	74617473 	jalx	185d1cc <__memory_size+0x183d9cc>
 3ac:	6d5f0065 	0x6d5f0065
 3b0:	656c7262 	0x656c7262
 3b4:	74735f6e 	jalx	1cd7db8 <__memory_size+0x1cb85b8>
 3b8:	00657461 	0x657461
 3bc:	6573752f 	0x6573752f
 3c0:	696d2f72 	0x696d2f72
 3c4:	77737370 	jalx	dcdcdc0 <__memory_size+0xdcbd5c0>
 3c8:	69672f74 	0x69672f74
 3cc:	656e2f74 	0x656e2f74
 3d0:	62696c77 	0x62696c77
 3d4:	77656e2f 	jalx	d95b8bc <__memory_size+0xd93c0bc>
 3d8:	2f62696c 	sltiu	v0,k1,26988
 3dc:	6362696c 	0x6362696c
 3e0:	6474732f 	0x6474732f
 3e4:	2f62696c 	sltiu	v0,k1,26988
 3e8:	74697865 	jalx	1a5e194 <__memory_size+0x1a3e994>
 3ec:	5f00632e 	bgtzl	t8,190a8 <__isr_vec_space+0x19088>
 3f0:	00736e66 	0x736e66
 3f4:	6769735f 	0x6769735f
 3f8:	665f006e 	0x665f006e
 3fc:	6b636f6c 	0x6b636f6c
 400:	5f00745f 	bgtzl	t8,1d580 <__isr_vec_space+0x1d560>
 404:	65647473 	0x65647473
 408:	5f007272 	bgtzl	t8,1cdd4 <__isr_vec_space+0x1cdb4>
 40c:	69676942 	0x69676942
 410:	5f00746e 	bgtzl	t8,1d5cc <__isr_vec_space+0x1d5ac>
 414:	6d6d6167 	0x6d6d6167
 418:	69735f61 	0x69735f61
 41c:	61676e67 	0x61676e67
 420:	725f006d 	s16sdi	xr1,s2,-128,
 424:	00646165 	0x646165
 428:	7365725f 	udi15	k1,a1,t6,0x9
 42c:	5f746c75 	0x5f746c75
 430:	5f5f006b 	0x5f5f006b
 434:	5f006d74 	bgtzl	t8,1ba08 <__isr_vec_space+0x1b9e8>
 438:	6863775f 	0x6863775f
 43c:	735f0062 	s8ldd	xr1,k0,-64,ptn7
 440:	756f6474 	jalx	5bd91d0 <__memory_size+0x5bb99d0>
 444:	635f0074 	0x635f0074
 448:	656c7476 	0x656c7476
 44c:	665f006e 	0x665f006e
 450:	00656c69 	0x656c69
 454:	6f696e5f 	0x6f696e5f
 458:	5f007362 	bgtzl	t8,1d1e4 <__isr_vec_space+0x1d1c4>
 45c:	78657461 	ld.h	$w17,202(t6)
 460:	00307469 	0x307469
 464:	6769735f 	0x6769735f
 468:	5f6c616e 	0x5f6c616e
 46c:	00667562 	0x667562
 470:	6373615f 	0x6373615f
 474:	656d6974 	0x656d6974
 478:	6675625f 	0x6675625f
 47c:	65725f00 	0x65725f00
 480:	746c7573 	jalx	1b1d5cc <__memory_size+0x1afddcc>
 484:	775f5f00 	jalx	d7d7c00 <__memory_size+0xd7b8400>
 488:	77006863 	jalx	c01a18c <__memory_size+0xbffa98c>
 48c:	5f746e69 	0x5f746e69
 490:	665f0074 	0x665f0074
 494:	7367616c 	s16ldi	xr5,k1,-80,ptn0
 498:	775f0032 	jalx	d7c00c8 <__memory_size+0xd7a08c8>
 49c:	65746972 	0x65746972
 4a0:	656e5f00 	0x656e5f00
 4a4:	00667478 	0x667478
 4a8:	6d745f5f 	0x6d745f5f
 4ac:	6e6f6d5f 	0x6e6f6d5f
 4b0:	735f5f00 	0x735f5f00
 4b4:	69646964 	0x69646964
 4b8:	0074696e 	0x74696e
 4bc:	66666f5f 	0x66666f5f
 4c0:	5f00745f 	bgtzl	t8,1d640 <__isr_vec_space+0x1d620>
 4c4:	6c61635f 	0x6c61635f
 4c8:	78655f6c 	0x78655f6c
 4cc:	72707469 	0x72707469
 4d0:	0073636f 	0x73636f
 4d4:	6572665f 	0x6572665f
 4d8:	73696c65 	s8sdi	xr1,k1,91,ptn2
 4dc:	4c5f0074 	0x4c5f0074
 4e0:	5f4b434f 	0x5f4b434f
 4e4:	55434552 	bnel	t2,v1,11a30 <__isr_vec_space+0x11a10>
 4e8:	56495352 	bnel	s2,t1,15234 <__isr_vec_space+0x15214>
 4ec:	00545f45 	0x545f45
 4f0:	77656e5f 	jalx	d95b97c <__memory_size+0xd93c17c>
 4f4:	5f685f00 	0x5f685f00
 4f8:	6e727265 	0x6e727265
 4fc:	5f5f006f 	0x5f5f006f
 500:	795f6d74 	0x795f6d74
 504:	00796164 	0x796164
 508:	62735f5f 	0x62735f5f
 50c:	5f006675 	bgtzl	t8,19ee4 <__isr_vec_space+0x19ec4>
 510:	73626f69 	0x73626f69
 514:	465f5f00 	c1	0x5f5f00
 518:	00454c49 	0x454c49
 51c:	73626d5f 	udi15	k1,v0,t5,0x15
 520:	65746174 	0x65746174
 524:	5f00745f 	bgtzl	t8,1d6a4 <__isr_vec_space+0x1d684>
 528:	4946735f 	0x4946735f
 52c:	5f00454c 	bgtzl	t8,11a60 <__isr_vec_space+0x11a40>
 530:	7473626d 	jalx	1cd89b4 <__memory_size+0x1cb91b4>
 534:	00657461 	0x657461
 538:	6e61725f 	0x6e61725f
 53c:	656e5f64 	0x656e5f64
 540:	5f007478 	bgtzl	t8,1d724 <__isr_vec_space+0x1d704>
 544:	656c626d 	0x656c626d
 548:	74735f6e 	jalx	1cd7db8 <__memory_size+0x1cb85b8>
 54c:	00657461 	0x657461
 550:	636e695f 	0x636e695f
 554:	6e695f00 	0x6e695f00
 558:	635f0064 	0x635f0064
 55c:	65727275 	0x65727275
 560:	6c5f746e 	0x6c5f746e
 564:	6c61636f 	0x6c61636f
 568:	5f5f0065 	0x5f5f0065
 56c:	61656c63 	0x61656c63
 570:	0070756e 	0x70756e
 574:	78616d5f 	0x78616d5f
 578:	00736477 	0x736477
 57c:	6565725f 	0x6565725f
 580:	5f00746e 	bgtzl	t8,1d73c <__isr_vec_space+0x1d71c>
 584:	64656573 	0x64656573
 588:	635f5f00 	0x635f5f00
 58c:	746e756f 	jalx	1b9d5bc <__memory_size+0x1b7ddbc>
 590:	765f5f00 	jalx	97d7c00 <__memory_size+0x97b8400>
 594:	65756c61 	0x65756c61
 598:	65735f00 	0x65735f00
 59c:	5f006b65 	bgtzl	t8,1b334 <__isr_vec_space+0x1b314>
 5a0:	736f7066 	s32mulu	xr1,xr12,k1,t7
 5a4:	5f00745f 	bgtzl	t8,1d724 <__isr_vec_space+0x1d704>
 5a8:	5f6d745f 	0x5f6d745f
 5ac:	72616579 	0x72616579
 5b0:	745f5f00 	jalx	17d7c00 <__memory_size+0x17b8400>
 5b4:	696d5f6d 	0x696d5f6d
 5b8:	6d5f006e 	0x6d5f006e
 5bc:	00746c75 	0x746c75
 5c0:	7274735f 	udi15	s3,s4,t6,0xd
 5c4:	5f6b6f74 	0x5f6b6f74
 5c8:	7473616c 	jalx	1cd85b0 <__memory_size+0x1cb8db0>
 5cc:	6e665f00 	0x6e665f00
 5d0:	65707974 	0x65707974
 5d4:	615f0073 	0x615f0073
 5d8:	5f006464 	bgtzl	t8,1976c <__isr_vec_space+0x1974c>
 5dc:	6f4c555f 	0x6f4c555f
 5e0:	5f00676e 	bgtzl	t8,1a39c <__isr_vec_space+0x1a37c>
 5e4:	64746567 	0x64746567
 5e8:	5f657461 	0x5f657461
 5ec:	00727265 	0x727265
 5f0:	6f6c675f 	0x6f6c675f
 5f4:	5f6c6162 	0x5f6c6162
 5f8:	75706d69 	jalx	5c1b5a4 <__memory_size+0x5bfbda4>
 5fc:	705f6572 	0x705f6572
 600:	5f007274 	bgtzl	t8,1cfd4 <__isr_vec_space+0x1cfb4>
 604:	72727563 	s8std	xr5,s3,-99,
 608:	5f746e65 	0x5f746e65
 60c:	65746163 	0x65746163
 610:	79726f67 	st.d	$w29,2960(t5)
 614:	6e755f00 	0x6e755f00
 618:	64657375 	0x64657375
 61c:	6e61725f 	0x6e61725f
 620:	775f0064 	jalx	d7c0190 <__memory_size+0xd7a0990>
 624:	5f007364 	bgtzl	t8,1d3b8 <__isr_vec_space+0x1d398>
 628:	5f6d745f 	0x5f6d745f
 62c:	79616477 	0x79616477
 630:	6c675f00 	0x6c675f00
 634:	5f006575 	bgtzl	t8,19c0c <__isr_vec_space+0x19bec>
 638:	6c616d6e 	0x6c616d6e
 63c:	00636f6c 	0x636f6c
 640:	34366c5f 	ori	s6,at,0x6c5f
 644:	75625f61 	jalx	5897d84 <__memory_size+0x5878584>
 648:	735f0066 	s32mul	xr1,xr0,k0,ra
 64c:	665f6769 	0x665f6769
 650:	00636e75 	0x636e75
 654:	75626e5f 	jalx	589b97c <__memory_size+0x587c17c>
 658:	755f0066 	jalx	57c0198 <__memory_size+0x57a0998>
 65c:	6573756e 	0x6573756e
 660:	5f5f0064 	0x5f5f0064
 664:	695f6d74 	0x695f6d74
 668:	74736473 	jalx	1cd91cc <__memory_size+0x1cb99cc>
 66c:	6f6c5f00 	0x6f6c5f00
 670:	746c6163 	jalx	1b1858c <__memory_size+0x1af8d8c>
 674:	5f656d69 	0x5f656d69
 678:	00667562 	0x667562
 67c:	6f6c635f 	0x6f6c635f
 680:	5f006573 	bgtzl	t8,19c50 <__isr_vec_space+0x19c30>
 684:	00383472 	tlt	at,t8,0xd1
 688:	74626d5f 	jalx	189b57c <__memory_size+0x187bd7c>
 68c:	5f63776f 	0x5f63776f
 690:	74617473 	jalx	185d1cc <__memory_size+0x183d9cc>
 694:	705f0065 	s8sdi	xr1,v0,-64,
 698:	5f007335 	bgtzl	t8,1d370 <__isr_vec_space+0x1d350>
 69c:	5f6d745f 	0x5f6d745f
 6a0:	7961646d 	0x7961646d
 6a4:	706d6900 	0x706d6900
 6a8:	5f657275 	0x5f657275
 6ac:	61746164 	0x61746164
 6b0:	73752f00 	0x73752f00
 6b4:	6d2f7265 	0x6d2f7265
 6b8:	73737069 	0x73737069
 6bc:	672f7477 	0x672f7477
 6c0:	6e2f7469 	0x6e2f7469
 6c4:	696c7765 	0x696c7765
 6c8:	656e2f62 	0x656e2f62
 6cc:	62696c77 	0x62696c77
 6d0:	62696c2f 	0x62696c2f
 6d4:	65722f63 	0x65722f63
 6d8:	2f746e65 	sltiu	s4,k1,28261
 6dc:	75706d69 	jalx	5c1b5a4 <__memory_size+0x5bfbda4>
 6e0:	632e6572 	0x632e6572
 6e4:	7a697300 	nori.b	$w12,$w14,0x69
 6e8:	00745f65 	0x745f65
 6ec:	6573752f 	0x6573752f
 6f0:	696d2f72 	0x696d2f72
 6f4:	77737370 	jalx	dcdcdc0 <__memory_size+0xdcbd5c0>
 6f8:	69672f74 	0x69672f74
 6fc:	656e2f74 	0x656e2f74
 700:	62696c77 	0x62696c77
 704:	77656e2f 	jalx	d95b8bc <__memory_size+0xd93c0bc>
 708:	2f62696c 	sltiu	v0,k1,26988
 70c:	6362696c 	0x6362696c
 710:	6474732f 	0x6474732f
 714:	2f62696c 	sltiu	v0,k1,26988
 718:	74615f5f 	jalx	1857d7c <__memory_size+0x183857c>
 71c:	74697865 	jalx	1a5e194 <__memory_size+0x1a3e994>
 720:	6600632e 	0x6600632e
 724:	00656572 	tlt	v1,a1,0x195
 728:	7473616c 	jalx	1cd85b0 <__memory_size+0x1cb8db0>
 72c:	65720070 	0x65720070
 730:	72617473 	d32sar	xr1,xr13,xr5,xr8,9
 734:	752f0074 	jalx	4bc01d0 <__memory_size+0x4ba09d0>
 738:	2f726573 	sltiu	s2,k1,25971
 73c:	7370696d 	s16sdi	xr5,k1,52,
 740:	2f747773 	sltiu	s4,k1,30579
 744:	2f746967 	sltiu	s4,k1,26983
 748:	6c77656e 	0x6c77656e
 74c:	6e2f6269 	0x6e2f6269
 750:	696c7765 	0x696c7765
 754:	696c2f62 	0x696c2f62
 758:	732f6362 	s8ldd	xr13,t9,-40,ptn3
 75c:	696c6474 	0x696c6474
 760:	5f5f2f62 	0x5f5f2f62
 764:	6c6c6163 	0x6c6c6163
 768:	6574615f 	0x6574615f
 76c:	2e746978 	sltiu	s4,s3,27000
 770:	5f5f0063 	0x5f5f0063
 774:	78657461 	ld.h	$w17,202(t6)
 778:	6c5f7469 	0x6c5f7469
 77c:	006b636f 	0x6b636f
 780:	20554e47 	addi	s5,v0,20039
 784:	2e342043 	sltiu	s4,s1,8259
 788:	20322e39 	addi	s2,at,11833
 78c:	6c656d2d 	0x6c656d2d
 790:	636d2d20 	0x636d2d20
 794:	2d65646f 	sltiu	a1,t3,25711
 798:	64616572 	0x64616572
 79c:	656c6261 	0x656c6261
 7a0:	7263703d 	0x7263703d
 7a4:	2d206c65 	sltiu	zero,t1,27749
 7a8:	746e696d 	jalx	1b9a5b4 <__memory_size+0x1b7adb4>
 7ac:	696c7265 	0x696c7265
 7b0:	6d2d6b6e 	0x6d2d6b6e
 7b4:	31737069 	andi	s3,t3,0x7069
 7b8:	6d2d2036 	0x6d2d2036
 7bc:	65646f63 	0x65646f63
 7c0:	6165722d 	0x6165722d
 7c4:	6c626164 	0x6c626164
 7c8:	63703d65 	0x63703d65
 7cc:	206c6572 	addi	t4,v1,25970
 7d0:	6f6e6d2d 	0x6f6e6d2d
 7d4:	6f70672d 	0x6f70672d
 7d8:	2d207470 	sltiu	zero,t1,29808
 7dc:	666f736d 	0x666f736d
 7e0:	6c662d74 	0x6c662d74
 7e4:	2074616f 	addi	s4,v1,24943
 7e8:	72616d2d 	s16sdi	xr4,s3,182,ptn0
 7ec:	6d3d6863 	0x6d3d6863
 7f0:	33737069 	andi	s3,k1,0x7069
 7f4:	20327232 	addi	s2,at,29234
 7f8:	6c706d2d 	0x6c706d2d
 7fc:	6d2d2074 	0x6d2d2074
 800:	33737069 	andi	s3,k1,0x7069
 804:	20327232 	addi	s2,at,29234
 808:	79736d2d 	0x79736d2d
 80c:	2069636e 	addi	t1,v1,25454
 810:	62616d2d 	0x62616d2d
 814:	32333d69 	andi	s3,s1,0x3d69
 818:	20672d20 	addi	a3,v1,11552
 81c:	2d20672d 	sltiu	zero,t1,26413
 820:	2d20324f 	sltiu	zero,t1,12879
 824:	2d20734f 	sltiu	zero,t1,29519
 828:	2d20324f 	sltiu	zero,t1,12879
 82c:	2d20324f 	sltiu	zero,t1,12879
 830:	5f00734f 	bgtzl	t8,1d570 <__isr_vec_space+0x1d550>
 834:	7465725f 	jalx	195c97c <__memory_size+0x193d17c>
 838:	5f6e7275 	0x5f6e7275
 83c:	625f6f74 	0x625f6f74
 840:	00746f6f 	0x746f6f
 844:	74697865 	jalx	1a5e194 <__memory_size+0x1a3e994>
 848:	646f635f 	0x646f635f
 84c:	5f5f0065 	0x5f5f0065
 850:	74697865 	jalx	1a5e194 <__memory_size+0x1a3e994>
 854:	755f5f00 	jalx	57d7c00 <__memory_size+0x57b8400>
 858:	655f6573 	0x655f6573
 85c:	74706378 	jalx	1c18de0 <__memory_size+0x1bf95e0>
 860:	6f6f625f 	0x6f6f625f
 864:	5f5f0074 	0x5f5f0074
 868:	33746e69 	andi	s4,k1,0x6e69
 86c:	00745f32 	tlt	v1,s4,0x17c
 870:	31677261 	andi	a3,t3,0x7261
 874:	73752f00 	0x73752f00
 878:	6d2f7265 	0x6d2f7265
 87c:	73737069 	0x73737069
 880:	672f7477 	0x672f7477
 884:	6e2f7469 	0x6e2f7469
 888:	696c7765 	0x696c7765
 88c:	696c2f62 	0x696c2f62
 890:	6f6c6762 	0x6f6c6762
 894:	6d2f7373 	0x6d2f7373
 898:	2f737069 	sltiu	s3,k1,28777
 89c:	5f696875 	0x5f696875
 8a0:	74697865 	jalx	1a5e194 <__memory_size+0x1a3e994>
 8a4:	5f00632e 	bgtzl	t8,19560 <__isr_vec_space+0x19540>
 8a8:	7465675f 	jalx	1959d7c <__memory_size+0x193a57c>
 8ac:	6174735f 	0x6174735f
 8b0:	70757472 	0x70757472
 8b4:	5645425f 	bnel	s2,a1,11234 <__isr_vec_space+0x11214>
 8b8:	73752f00 	0x73752f00
 8bc:	6d2f7265 	0x6d2f7265
 8c0:	73737069 	0x73737069
 8c4:	672f7477 	0x672f7477
 8c8:	6e2f7469 	0x6e2f7469
 8cc:	696c7765 	0x696c7765
 8d0:	696c2f62 	0x696c2f62
 8d4:	6f6c6762 	0x6f6c6762
 8d8:	6d2f7373 	0x6d2f7373
 8dc:	2f737069 	sltiu	s3,k1,28777
 8e0:	5f696875 	0x5f696875
 8e4:	5f746567 	0x5f746567
 8e8:	5f6d6172 	0x5f6d6172
 8ec:	676e6172 	0x676e6172
 8f0:	00632e65 	0x632e65
 8f4:	656d5f5f 	0x656d5f5f
 8f8:	79726f6d 	0x79726f6d
 8fc:	7a69735f 	0x7a69735f
 900:	5f720065 	0x5f720065
 904:	65747865 	0x65747865
 908:	7200746e 	0x7200746e
 90c:	655f6d61 	0x655f6d61
 910:	6e657478 	0x6e657478
 914:	5f5f0074 	0x5f5f0074
 918:	6f6d656d 	0x6f6d656d
 91c:	625f7972 	0x625f7972
 920:	00657361 	0x657361
 924:	61625f72 	0x61625f72
 928:	72006573 	d32sar	xr5,xr9,xr1,xr0,8
 92c:	625f6d61 	0x625f6d61
 930:	00657361 	0x657361
 934:	7465675f 	jalx	1959d7c <__memory_size+0x193a57c>
 938:	6d61725f 	0x6d61725f
 93c:	6e61725f 	0x6e61725f
 940:	70006567 	d32sarw	xr5,xr9,xr1,zero
 944:	6e737475 	0x6e737475
 948:	5f5f0073 	0x5f5f0073
 94c:	69616863 	0x69616863
 950:	68755f6e 	0x68755f6e
 954:	78655f69 	0x78655f69
 958:	00747063 	0x747063
 95c:	68755f5f 	0x68755f5f
 960:	6e695f69 	0x6e695f69
 964:	65726964 	0x65726964
 968:	63007463 	0x63007463
 96c:	65737561 	0x65737561
 970:	655f5f00 	0x655f5f00
 974:	70656378 	0x70656378
 978:	6e6f6974 	0x6e6f6974
 97c:	6e61685f 	0x6e61685f
 980:	5f656c64 	0x5f656c64
 984:	62726576 	0x62726576
 988:	0065736f 	0x65736f
 98c:	62756f64 	0x62756f64
 990:	7300656c 	s16ldi	xr5,t8,50,ptn0
 994:	74666968 	jalx	199a5a0 <__memory_size+0x197ada0>
 998:	6e696c00 	0x6e696c00
 99c:	7874636b 	0x7874636b
 9a0:	755f5f00 	jalx	57d7c00 <__memory_size+0x57b8400>
 9a4:	33746e69 	andi	s4,k1,0x6e69
 9a8:	00745f32 	tlt	v1,s4,0x17c
 9ac:	6b6e696c 	0x6b6e696c
 9b0:	72747300 	0x72747300
 9b4:	006e656c 	0x6e656c
 9b8:	74736f70 	jalx	1cdbdc0 <__memory_size+0x1cbc5c0>
 9bc:	63706700 	0x63706700
 9c0:	62007874 	0x62007874
 9c4:	61766461 	0x61766461
 9c8:	00726464 	0x726464
 9cc:	616f6c66 	0x616f6c66
 9d0:	72730074 	q16sll	xr1,xr0,xr12,xr12,9
 9d4:	745f6765 	jalx	17d9d94 <__memory_size+0x17ba594>
 9d8:	755f5f00 	jalx	57d7c00 <__memory_size+0x57b8400>
 9dc:	655f6968 	0x655f6968
 9e0:	70656378 	0x70656378
 9e4:	6e6f6974 	0x6e6f6974
 9e8:	665f5f00 	0x665f5f00
 9ec:	6873756c 	0x6873756c
 9f0:	5f6f745f 	0x5f6f745f
 9f4:	6f72657a 	0x6f72657a
 9f8:	74757000 	jalx	1d5c000 <__memory_size+0x1d3c800>
 9fc:	73646e73 	d32sar	xr9,xr11,xr1,xr9,13
 a00:	67696400 	0x67696400
 a04:	00737469 	0x737469
 a08:	74617473 	jalx	185d1cc <__memory_size+0x183d9cc>
 a0c:	62007375 	0x62007375
 a10:	69706461 	0x69706461
 a14:	7274736e 	0x7274736e
 a18:	64616200 	0x64616200
 a1c:	74736e69 	jalx	1cdb9a4 <__memory_size+0x1cbc1a4>
 a20:	752f0072 	jalx	4bc01c8 <__memory_size+0x4ba09c8>
 a24:	2f726573 	sltiu	s2,k1,25971
 a28:	7370696d 	s16sdi	xr5,k1,52,
 a2c:	2f747773 	sltiu	s4,k1,30579
 a30:	2f746967 	sltiu	s4,k1,26983
 a34:	6c77656e 	0x6c77656e
 a38:	6c2f6269 	0x6c2f6269
 a3c:	6c676269 	0x6c676269
 a40:	2f73736f 	sltiu	s3,k1,29551
 a44:	7370696d 	s16sdi	xr5,k1,52,
 a48:	6c61682f 	0x6c61682f
 a4c:	62696c2f 	0x62696c2f
 a50:	70696d2f 	0x70696d2f
 a54:	696d2f73 	0x696d2f73
 a58:	655f7370 	0x655f7370
 a5c:	74706378 	jalx	1c18de0 <__memory_size+0x1bf95e0>
 a60:	6e61685f 	0x6e61685f
 a64:	72656c64 	s8ldi	xr1,s3,91,ptn1
 a68:	2f00632e 	sltiu	zero,t8,25390
 a6c:	72657375 	q16slr	xr13,xr12,xr5,xr9,9
 a70:	70696d2f 	0x70696d2f
 a74:	74777373 	jalx	1ddcdcc <__memory_size+0x1dbd5cc>
 a78:	7469672f 	jalx	1a59cbc <__memory_size+0x1a3a4bc>
 a7c:	77656e2f 	jalx	d95b8bc <__memory_size+0xd93c0bc>
 a80:	2f62696c 	sltiu	v0,k1,26988
 a84:	6c77656e 	0x6c77656e
 a88:	6c2f6269 	0x6c2f6269
 a8c:	2f636269 	sltiu	v1,k1,25193
 a90:	6863616d 	0x6863616d
 a94:	2f656e69 	sltiu	a1,k1,28265
 a98:	7370696d 	s16sdi	xr5,k1,52,
 a9c:	7274732f 	0x7274732f
 aa0:	2e6e656c 	sltiu	t6,s3,25964
 aa4:	656e0063 	0x656e0063
 aa8:	72655f77 	q16sar	xr13,xr7,xr5,xr9,9
 aac:	006f6e72 	tlt	v1,t7,0x1b9
 ab0:	32677261 	andi	a3,s3,0x7261
 ab4:	73752f00 	0x73752f00
 ab8:	6d2f7265 	0x6d2f7265
 abc:	73737069 	0x73737069
 ac0:	672f7477 	0x672f7477
 ac4:	6e2f7469 	0x6e2f7469
 ac8:	696c7765 	0x696c7765
 acc:	696c2f62 	0x696c2f62
 ad0:	6f6c6762 	0x6f6c6762
 ad4:	6d2f7373 	0x6d2f7373
 ad8:	2f737069 	sltiu	s3,k1,28777
 adc:	5f696875 	0x5f696875
 ae0:	74697277 	jalx	1a5c9dc <__memory_size+0x1a3d1dc>
 ae4:	00632e65 	0x632e65
 ae8:	33677261 	andi	a3,k1,0x7261
 aec:	655f5f00 	0x655f5f00
 af0:	6f6e7272 	0x6f6e7272
 af4:	72726500 	0x72726500
 af8:	745f6f6e 	jalx	17dbdb8 <__memory_size+0x17bc5b8>
 afc:	2f00706d 	sltiu	zero,t8,28781
 b00:	72657375 	q16slr	xr13,xr12,xr5,xr9,9
 b04:	70696d2f 	0x70696d2f
 b08:	74777373 	jalx	1ddcdcc <__memory_size+0x1dbd5cc>
 b0c:	7469672f 	jalx	1a59cbc <__memory_size+0x1a3a4bc>
 b10:	77656e2f 	jalx	d95b8bc <__memory_size+0xd93c0bc>
 b14:	2f62696c 	sltiu	v0,k1,26988
 b18:	6762696c 	0x6762696c
 b1c:	73736f6c 	s16ldi	xr13,k1,438,ptn2
 b20:	70696d2f 	0x70696d2f
 b24:	68752f73 	0x68752f73
 b28:	78655f69 	0x78655f69
 b2c:	74706563 	jalx	1c1958c <__memory_size+0x1bf9d8c>
 b30:	2e6e6f69 	sltiu	t6,s3,28521
 b34:	65720063 	0x65720063
 b38:	72003174 	q16sll	xr5,xr12,xr0,xr0,8
 b3c:	00327465 	0x327465
 b40:	34677261 	ori	a3,v1,0x7261
 b44:	73752f00 	0x73752f00
 b48:	6d2f7265 	0x6d2f7265
 b4c:	73737069 	0x73737069
 b50:	672f7477 	0x672f7477
 b54:	6e2f7469 	0x6e2f7469
 b58:	696c7765 	0x696c7765
 b5c:	696c2f62 	0x696c2f62
 b60:	6f6c6762 	0x6f6c6762
 b64:	6d2f7373 	0x6d2f7373
 b68:	2f737069 	sltiu	s3,k1,28777
 b6c:	5f696875 	0x5f696875
 b70:	69646e69 	0x69646e69
 b74:	74636572 	jalx	18d95c8 <__memory_size+0x18b9dc8>
 b78:	2f00632e 	sltiu	zero,t8,25390
 b7c:	72657375 	q16slr	xr13,xr12,xr5,xr9,9
 b80:	70696d2f 	0x70696d2f
 b84:	74777373 	jalx	1ddcdcc <__memory_size+0x1dbd5cc>
 b88:	7469672f 	jalx	1a59cbc <__memory_size+0x1a3a4bc>
 b8c:	77656e2f 	jalx	d95b8bc <__memory_size+0xd93c0bc>
 b90:	2f62696c 	sltiu	v0,k1,26988
 b94:	6c77656e 	0x6c77656e
 b98:	6c2f6269 	0x6c2f6269
 b9c:	2f636269 	sltiu	v1,k1,25193
 ba0:	6e727265 	0x6e727265
 ba4:	72652f6f 	0x72652f6f
 ba8:	2e6f6e72 	sltiu	t7,s3,28274
 bac:	Address 0x0000000000000bac is out of bounds.


Disassembly of section .debug_loc:

00000000 <.debug_loc>:
   0:	00000060 	0x60
   4:	0000007c 	0x7c
   8:	7c540001 	0x7c540001
   c:	88000000 	lwl	zero,0(zero)
  10:	01000000 	0x1000000
  14:	00885300 	0x885300
  18:	00980000 	0x980000
  1c:	00050000 	sll	zero,a1,0x0
  20:	25340073 	addiu	s4,t1,115
  24:	0000009f 	0x9f
  28:	00000000 	nop
  2c:	0000a800 	sll	s5,zero,0x0
  30:	0000b800 	sll	s7,zero,0x0
  34:	30000200 	andi	zero,zero,0x200
  38:	0000009f 	0x9f
  3c:	00000000 	nop
  40:	00000000 	nop
  44:	00001400 	sll	v0,zero,0x10
  48:	54000100 	bnezl	zero,44c <__isr_vec_space+0x42c>
  4c:	00000014 	0x14
  50:	0000001b 	divu	zero,zero,zero
  54:	1b550001 	0x1b550001
  58:	28000000 	slti	zero,zero,0
  5c:	04000000 	bltz	zero,60 <__isr_vec_space+0x40>
  60:	5401f300 	bnel	zero,at,ffffcc64 <__entry+0x403fcc64>
  64:	0000009f 	0x9f
  68:	00000000 	nop
  6c:	00000000 	nop
  70:	00001700 	sll	v0,zero,0x1c
  74:	54000100 	bnezl	zero,478 <__isr_vec_space+0x458>
  78:	00000017 	0x17
  7c:	0000003c 	0x3c
  80:	00600001 	movf	zero,v1,$fcc0
  84:	00000000 	nop
  88:	00000000 	nop
  8c:	64000000 	0x64000000
  90:	01000000 	0x1000000
  94:	00645400 	0x645400
  98:	00fc0000 	0xfc0000
  9c:	00010000 	sll	zero,at,0x0
  a0:	0000fc61 	0xfc61
  a4:	00010800 	sll	at,at,0x0
  a8:	f3000400 	0xf3000400
  ac:	009f5401 	0x9f5401
  b0:	00000000 	nop
  b4:	00000000 	nop
  b8:	64000000 	0x64000000
  bc:	01000000 	0x1000000
  c0:	00645500 	0x645500
  c4:	006b0000 	0x6b0000
  c8:	00010000 	sll	zero,at,0x0
  cc:	00006b55 	0x6b55
  d0:	0000f800 	sll	ra,zero,0x0
  d4:	62000100 	0x62000100
  d8:	000000f8 	0xf8
  dc:	00000108 	0x108
  e0:	01f30004 	sllv	zero,s3,t7
  e4:	00009f55 	0x9f55
  e8:	00000000 	nop
  ec:	00000000 	nop
  f0:	00640000 	0x640000
  f4:	00010000 	sll	zero,at,0x0
  f8:	00006456 	0x6456
  fc:	00006b00 	sll	t5,zero,0xc
 100:	56000100 	bnezl	s0,504 <__isr_vec_space+0x4e4>
 104:	0000006b 	0x6b
 108:	000000f0 	tge	zero,zero,0x3
 10c:	f0640001 	0xf0640001
 110:	08000000 	j	0 <hardware_exit_hook>
 114:	04000001 	bltz	zero,11c <__isr_vec_space+0xfc>
 118:	5601f300 	bnel	s0,at,ffffcd1c <__entry+0x403fcd1c>
 11c:	0000009f 	0x9f
 120:	00000000 	nop
 124:	00000000 	nop
 128:	00006400 	sll	t4,zero,0x10
 12c:	57000100 	bnezl	t8,530 <__isr_vec_space+0x510>
 130:	00000064 	0x64
 134:	0000006b 	0x6b
 138:	6b570001 	0x6b570001
 13c:	f4000000 	sdc1	$f0,0(zero)
 140:	01000000 	0x1000000
 144:	00f46300 	0xf46300
 148:	01080000 	0x1080000
 14c:	00040000 	sll	zero,a0,0x0
 150:	9f5701f3 	0x9f5701f3
 154:	00000000 	nop
 158:	00000000 	nop
 15c:	00000094 	0x94
 160:	000000cc 	syscall	0x3
 164:	88720004 	lwl	s2,4(v1)
 168:	00009f01 	0x9f01
 16c:	00000000 	nop
 170:	00340000 	0x340000
 174:	00580000 	0x580000
 178:	00010000 	sll	zero,at,0x0
 17c:	00005852 	mflhxu	t3
 180:	00006b00 	sll	t5,zero,0xc
 184:	80000300 	lb	zero,768(zero)
 188:	006c02c8 	0x6c02c8
 18c:	00e00000 	0xe00000
 190:	00010000 	sll	zero,at,0x0
 194:	00000052 	mflhxu	zero
 198:	00000000 	nop
 19c:	00000000 	nop
 1a0:	00004c00 	sll	t1,zero,0x10
 1a4:	54000100 	bnezl	zero,5a8 <__isr_vec_space+0x588>
 1a8:	0000004c 	syscall	0x1
 1ac:	00000160 	0x160
 1b0:	60660001 	0x60660001
 1b4:	80000001 	lb	zero,1(zero)
 1b8:	04000001 	bltz	zero,1c0 <__isr_vec_space+0x1a0>
 1bc:	5401f300 	bnel	zero,at,ffffcdc0 <__entry+0x403fcdc0>
 1c0:	0000009f 	0x9f
 1c4:	00000000 	nop
 1c8:	00000000 	nop
 1cc:	00004c00 	sll	t1,zero,0x10
 1d0:	55000100 	bnezl	t0,5d4 <__isr_vec_space+0x5b4>
 1d4:	0000004c 	syscall	0x1
 1d8:	00000168 	0x168
 1dc:	68640001 	0x68640001
 1e0:	80000001 	lb	zero,1(zero)
 1e4:	04000001 	bltz	zero,1ec <__isr_vec_space+0x1cc>
 1e8:	5501f300 	bnel	t0,at,ffffcdec <__entry+0x403fcdec>
 1ec:	0000009f 	0x9f
 1f0:	00000000 	nop
 1f4:	00011000 	sll	v0,at,0x0
 1f8:	00011800 	sll	v1,at,0x0
 1fc:	82000200 	lb	zero,512(s0)
 200:	00011c00 	sll	v1,at,0x10
 204:	00012400 	sll	a0,at,0x10
 208:	52000100 	beqzl	s0,60c <__isr_vec_space+0x5ec>
 20c:	00000000 	nop
 210:	00000000 	nop
 214:	00000058 	0x58
 218:	0000011c 	0x11c
 21c:	1c620001 	0x1c620001
 220:	24000001 	li	zero,1
 224:	01000001 	movf	zero,t0,$fcc0
 228:	01245200 	0x1245200
 22c:	01700000 	0x1700000
 230:	00010000 	sll	zero,at,0x0
 234:	00000062 	0x62
 238:	00000000 	nop
 23c:	00011000 	sll	v0,at,0x0
 240:	00011800 	sll	v1,at,0x0
 244:	82000700 	lb	zero,1792(s0)
 248:	88230600 	lwl	v1,1536(at)
 24c:	011c9f01 	0x11c9f01
 250:	01240000 	0x1240000
 254:	00040000 	sll	zero,a0,0x0
 258:	9f018872 	0x9f018872
 25c:	00000000 	nop
 260:	00000000 	nop
 264:	00000068 	0x68
 268:	00000154 	0x154
 26c:	00650001 	movt	zero,v1,$fcc1
 270:	00000000 	nop
 274:	78000000 	andi.b	$w0,$w0,0x0
 278:	e4000000 	swc1	$f0,0(zero)
 27c:	05000000 	bltz	t0,280 <__isr_vec_space+0x260>
 280:	00853100 	0x853100
 284:	00e49f24 	0xe49f24
 288:	00ec0000 	0xec0000
 28c:	00050000 	sll	zero,a1,0x0
 290:	24018531 	li	at,-31439
 294:	0001249f 	0x1249f
 298:	00015400 	sll	t2,at,0x10
 29c:	31000500 	andi	zero,t0,0x500
 2a0:	9f240085 	0x9f240085
 2a4:	00000000 	nop
 2a8:	00000000 	nop
 2ac:	00000090 	0x90
 2b0:	000000c7 	0xc7
 2b4:	24530001 	addiu	s3,v0,1
 2b8:	3b000001 	xori	zero,t8,0x1
 2bc:	01000001 	movf	zero,t0,$fcc0
 2c0:	01445300 	0x1445300
 2c4:	014b0000 	0x14b0000
 2c8:	00010000 	sll	zero,at,0x0
 2cc:	00000053 	mtlhx	zero
 2d0:	00000000 	nop
 2d4:	0000b400 	sll	s6,zero,0x10
 2d8:	0000e000 	sll	gp,zero,0x0
 2dc:	6e000100 	0x6e000100
 2e0:	00000124 	0x124
 2e4:	00000154 	0x154
 2e8:	006e0001 	0x6e0001
 2ec:	00000000 	nop
 2f0:	00000000 	nop
 2f4:	34000000 	li	zero,0x0
 2f8:	01000000 	0x1000000
 2fc:	00345400 	0x345400
 300:	00880000 	0x880000
 304:	00010000 	sll	zero,at,0x0
 308:	00000063 	0x63
 30c:	00000000 	nop
 310:	00000000 	nop
 314:	00003800 	sll	a3,zero,0x0
 318:	54000100 	bnezl	zero,71c <__isr_vec_space+0x6fc>
 31c:	00000038 	0x38
 320:	00000048 	0x48
 324:	00560001 	0x560001
 328:	00000000 	nop
 32c:	00000000 	nop
 330:	38000000 	xori	zero,zero,0x0
 334:	01000000 	0x1000000
 338:	00385500 	0x385500
 33c:	00480000 	0x480000
 340:	00010000 	sll	zero,at,0x0
 344:	00000057 	0x57
 348:	00000000 	nop
 34c:	00000000 	nop
 350:	00002b00 	sll	a1,zero,0xc
 354:	54000100 	bnezl	zero,758 <__isr_vec_space+0x738>
 358:	0000002b 	sltu	zero,zero,zero
 35c:	000000b4 	teq	zero,zero,0x2
 360:	b4610001 	0xb4610001
 364:	c0000000 	ll	zero,0(zero)
 368:	04000000 	bltz	zero,36c <__isr_vec_space+0x34c>
 36c:	5401f300 	bnel	zero,at,ffffcf70 <__entry+0x403fcf70>
 370:	0000009f 	0x9f
 374:	00000000 	nop
 378:	00000000 	nop
 37c:	00002b00 	sll	a1,zero,0xc
 380:	55000100 	bnezl	t0,784 <__isr_vec_space+0x764>
 384:	0000002b 	sltu	zero,zero,zero
 388:	000000b0 	tge	zero,zero,0x2
 38c:	b0620001 	0xb0620001
 390:	c0000000 	ll	zero,0(zero)
 394:	04000000 	bltz	zero,398 <__isr_vec_space+0x378>
 398:	5501f300 	bnel	t0,at,ffffcf9c <__entry+0x403fcf9c>
 39c:	0000009f 	0x9f
 3a0:	00000000 	nop
 3a4:	00000000 	nop
 3a8:	00002b00 	sll	a1,zero,0xc
 3ac:	56000100 	bnezl	s0,7b0 <__isr_vec_space+0x790>
 3b0:	0000002b 	sltu	zero,zero,zero
 3b4:	000000b8 	0xb8
 3b8:	b8600001 	swr	zero,1(v1)
 3bc:	c0000000 	ll	zero,0(zero)
 3c0:	04000000 	bltz	zero,3c4 <__isr_vec_space+0x3a4>
 3c4:	5601f300 	bnel	s0,at,ffffcfc8 <__entry+0x403fcfc8>
 3c8:	0000009f 	0x9f
 3cc:	00000000 	nop
 3d0:	00000400 	sll	zero,zero,0x10
 3d4:	00005400 	sll	t2,zero,0x10
 3d8:	91000200 	lbu	zero,512(t0)
 3dc:	00005468 	0x5468
 3e0:	00008700 	sll	s0,zero,0x1c
 3e4:	75000200 	jalx	4000800 <__memory_size+0x3fe1000>
 3e8:	00008700 	sll	s0,zero,0x1c
 3ec:	0000b800 	sll	s7,zero,0x0
 3f0:	91000200 	lbu	zero,512(t0)
 3f4:	0000b868 	0xb868
 3f8:	0000c000 	sll	t8,zero,0x0
 3fc:	8d000200 	lw	zero,512(t0)
 400:	00000068 	0x68
 404:	00000000 	nop
 408:	00003c00 	sll	a3,zero,0x10
 40c:	00004c00 	sll	t1,zero,0x10
 410:	4c000200 	lwxc1	$f8,zero(zero)
 414:	0000609f 	0x609f
 418:	00006800 	sll	t5,zero,0x0
 41c:	52000100 	beqzl	s0,820 <__isr_vec_space+0x800>
 420:	00000068 	0x68
 424:	00000074 	teq	zero,zero,0x1
 428:	73310009 	0x73310009
 42c:	24321c00 	addiu	s2,at,7168
 430:	749f1c23 	jalx	27c708c <__memory_size+0x27a788c>
 434:	87000000 	lh	zero,0(t8)
 438:	08000000 	j	0 <hardware_exit_hook>
 43c:	09007300 	j	401cc00 <__memory_size+0x3ffd400>
 440:	1c231efc 	0x1c231efc
 444:	0000009f 	0x9f
 448:	00000000 	nop
 44c:	00000400 	sll	zero,zero,0x10
 450:	00004c00 	sll	t1,zero,0x10
 454:	30000200 	andi	zero,zero,0x200
 458:	0000609f 	0x609f
 45c:	00008700 	sll	s0,zero,0x1c
 460:	53000100 	beqzl	t8,864 <__isr_vec_space+0x844>
 464:	00000000 	nop
 468:	00000000 	nop
 46c:	000000c0 	ehb
 470:	000000c7 	0xc7
 474:	c7540001 	lwc1	$f20,1(k0)
 478:	c8000000 	lwc2	$0,0(zero)
 47c:	04000000 	bltz	zero,480 <__isr_vec_space+0x460>
 480:	5401f300 	bnel	zero,at,ffffd084 <__entry+0x403fd084>
 484:	0000009f 	0x9f
 488:	00000000 	nop
 48c:	0000c000 	sll	t8,zero,0x0
 490:	0000c700 	sll	t8,zero,0x1c
 494:	55000100 	bnezl	t0,898 <__isr_vec_space+0x878>
 498:	000000c7 	0xc7
 49c:	000000c8 	0xc8
 4a0:	01f30004 	sllv	zero,s3,t7
 4a4:	00009f55 	0x9f55
 4a8:	00000000 	nop
 4ac:	00c00000 	0xc00000
 4b0:	00c70000 	0xc70000
 4b4:	00010000 	sll	zero,at,0x0
 4b8:	0000c756 	0xc756
 4bc:	0000c800 	sll	t9,zero,0x0
 4c0:	f3000400 	0xf3000400
 4c4:	009f5601 	0x9f5601
 4c8:	00000000 	nop
 4cc:	c8000000 	lwc2	$0,0(zero)
 4d0:	10000000 	b	4d4 <__isr_vec_space+0x4b4>
 4d4:	01000001 	movf	zero,t0,$fcc0
 4d8:	01105400 	0x1105400
 4dc:	01180000 	0x1180000
 4e0:	00010000 	sll	zero,at,0x0
 4e4:	00011860 	0x11860
 4e8:	00011c00 	sll	v1,at,0x10
 4ec:	54000100 	bnezl	zero,8f0 <__isr_vec_space+0x8d0>
 4f0:	0000011c 	0x11c
 4f4:	00000124 	0x124
 4f8:	24600001 	addiu	zero,v1,1
 4fc:	28000001 	slti	zero,zero,1
 500:	01000001 	movf	zero,t0,$fcc0
 504:	01285400 	0x1285400
 508:	01300000 	0x1300000
 50c:	00010000 	sll	zero,at,0x0
 510:	00013060 	0x13060
 514:	00013400 	sll	a2,at,0x10
 518:	54000100 	bnezl	zero,91c <__isr_vec_space+0x8fc>
 51c:	00000134 	teq	zero,zero,0x4
 520:	00000150 	0x150
 524:	50600001 	beqzl	v1,52c <__isr_vec_space+0x50c>
 528:	54000001 	bnezl	zero,530 <__isr_vec_space+0x510>
 52c:	01000001 	movf	zero,t0,$fcc0
 530:	01545400 	0x1545400
 534:	015c0000 	0x15c0000
 538:	00010000 	sll	zero,at,0x0
 53c:	00015c60 	0x15c60
 540:	00016400 	sll	t4,at,0x10
 544:	54000100 	bnezl	zero,948 <__isr_vec_space+0x928>
 548:	00000164 	0x164
 54c:	0000017c 	0x17c
 550:	7c600001 	0x7c600001
 554:	84000001 	lh	zero,1(zero)
 558:	01000001 	movf	zero,t0,$fcc0
 55c:	01845400 	0x1845400
 560:	01900000 	0x1900000
 564:	00010000 	sll	zero,at,0x0
 568:	00019060 	0x19060
 56c:	0001a800 	sll	s5,at,0x0
 570:	54000100 	bnezl	zero,974 <__isr_vec_space+0x954>
 574:	000001a8 	0x1a8
 578:	000001ec 	0x1ec
 57c:	ec600001 	swc3	$0,1(v1)
 580:	fc000001 	sdc3	$0,1(zero)
 584:	01000001 	movf	zero,t0,$fcc0
 588:	01fc5400 	0x1fc5400
 58c:	021c0000 	0x21c0000
 590:	00010000 	sll	zero,at,0x0
 594:	00021c60 	0x21c60
 598:	00023700 	sll	a2,v0,0x1c
 59c:	54000100 	bnezl	zero,9a0 <__isr_vec_space+0x980>
 5a0:	00000237 	0x237
 5a4:	00000250 	0x250
 5a8:	50600001 	beqzl	v1,5b0 <__isr_vec_space+0x590>
 5ac:	54000002 	bnezl	zero,5b8 <__isr_vec_space+0x598>
 5b0:	01000002 	0x1000002
 5b4:	02545400 	0x2545400
 5b8:	025c0000 	0x25c0000
 5bc:	00010000 	sll	zero,at,0x0
 5c0:	00025c60 	0x25c60
 5c4:	00026000 	sll	t4,v0,0x0
 5c8:	54000100 	bnezl	zero,9cc <__isr_vec_space+0x9ac>
 5cc:	00000260 	0x260
 5d0:	00000268 	0x268
 5d4:	68600001 	0x68600001
 5d8:	6c000002 	0x6c000002
 5dc:	01000002 	0x1000002
 5e0:	026c5400 	0x26c5400
 5e4:	02740000 	0x2740000
 5e8:	00010000 	sll	zero,at,0x0
 5ec:	00027460 	0x27460
 5f0:	00027c00 	sll	t7,v0,0x10
 5f4:	54000100 	bnezl	zero,9f8 <__isr_vec_space+0x9d8>
 5f8:	0000027c 	0x27c
 5fc:	00000288 	0x288
 600:	88600001 	lwl	zero,1(v1)
 604:	90000002 	lbu	zero,2(zero)
 608:	01000002 	0x1000002
 60c:	02905400 	0x2905400
 610:	029c0000 	0x29c0000
 614:	00010000 	sll	zero,at,0x0
 618:	00029c60 	0x29c60
 61c:	0002d800 	sll	k1,v0,0x0
 620:	54000100 	bnezl	zero,a24 <__isr_vec_space+0xa04>
 624:	000002d8 	0x2d8
 628:	000002f0 	tge	zero,zero,0xb
 62c:	f0600001 	0xf0600001
 630:	f4000002 	sdc1	$f0,2(zero)
 634:	01000002 	0x1000002
 638:	02f45400 	0x2f45400
 63c:	03000000 	0x3000000
 640:	00010000 	sll	zero,at,0x0
 644:	00030060 	0x30060
 648:	00033c00 	sll	a3,v1,0x10
 64c:	54000100 	bnezl	zero,a50 <__isr_vec_space+0xa30>
 650:	0000033c 	0x33c
 654:	00000354 	0x354
 658:	54600001 	bnezl	v1,660 <__isr_vec_space+0x640>
 65c:	58000003 	blezl	zero,66c <__isr_vec_space+0x64c>
 660:	01000003 	0x1000003
 664:	03585400 	0x3585400
 668:	03640000 	0x3640000
 66c:	00010000 	sll	zero,at,0x0
 670:	00036460 	0x36460
 674:	00036c00 	sll	t5,v1,0x10
 678:	54000100 	bnezl	zero,a7c <__isr_vec_space+0xa5c>
 67c:	0000036c 	0x36c
 680:	00000374 	teq	zero,zero,0xd
 684:	74600001 	jalx	1800004 <__memory_size+0x17e0804>
 688:	7c000003 	0x7c000003
 68c:	01000003 	0x1000003
 690:	037c5400 	0x37c5400
 694:	03880000 	0x3880000
 698:	00010000 	sll	zero,at,0x0
 69c:	00038860 	0x38860
 6a0:	00039000 	sll	s2,v1,0x0
 6a4:	54000100 	bnezl	zero,aa8 <__isr_vec_space+0xa88>
 6a8:	00000390 	0x390
 6ac:	0000039c 	0x39c
 6b0:	9c600001 	0x9c600001
 6b4:	a4000003 	sh	zero,3(zero)
 6b8:	01000003 	0x1000003
 6bc:	03a45400 	0x3a45400
 6c0:	03b00000 	0x3b00000
 6c4:	00010000 	sll	zero,at,0x0
 6c8:	0003b060 	0x3b060
 6cc:	0003b800 	sll	s7,v1,0x0
 6d0:	54000100 	bnezl	zero,ad4 <__isr_vec_space+0xab4>
 6d4:	000003b8 	0x3b8
 6d8:	000003c4 	0x3c4
 6dc:	c4600001 	lwc1	$f0,1(v1)
 6e0:	c8000003 	lwc2	$0,3(zero)
 6e4:	01000003 	0x1000003
 6e8:	03c85400 	0x3c85400
 6ec:	03d00000 	0x3d00000
 6f0:	00010000 	sll	zero,at,0x0
 6f4:	0003d060 	0x3d060
 6f8:	0003d400 	sll	k0,v1,0x10
 6fc:	54000100 	bnezl	zero,b00 <__isr_vec_space+0xae0>
 700:	000003d4 	0x3d4
 704:	000003dc 	0x3dc
 708:	dc600001 	ldc3	$0,1(v1)
 70c:	e0000003 	sc	zero,3(zero)
 710:	01000003 	0x1000003
 714:	03e05400 	0x3e05400
 718:	03ec0000 	0x3ec0000
 71c:	00010000 	sll	zero,at,0x0
 720:	0003ec60 	0x3ec60
 724:	0003f400 	sll	s8,v1,0x10
 728:	54000100 	bnezl	zero,b2c <__isr_vec_space+0xb0c>
 72c:	000003f4 	teq	zero,zero,0xf
 730:	00000400 	sll	zero,zero,0x10
 734:	00600001 	movf	zero,v1,$fcc0
 738:	08000004 	j	10 <ABIFlags_flags1>
 73c:	01000004 	sllv	zero,zero,t0
 740:	04085400 	tgei	zero,21504
 744:	04140000 	0x4140000
 748:	00010000 	sll	zero,at,0x0
 74c:	00041460 	0x41460
 750:	00041c00 	sll	v1,a0,0x10
 754:	54000100 	bnezl	zero,b58 <__isr_vec_space+0xb38>
 758:	0000041c 	0x41c
 75c:	00000428 	0x428
 760:	28600001 	slti	zero,v1,1
 764:	30000004 	andi	zero,zero,0x4
 768:	01000004 	sllv	zero,zero,t0
 76c:	04305400 	bltzal	at,15770 <__isr_vec_space+0x15750>
 770:	043c0000 	0x43c0000
 774:	00010000 	sll	zero,at,0x0
 778:	00043c60 	0x43c60
 77c:	00044000 	sll	t0,a0,0x0
 780:	54000100 	bnezl	zero,b84 <__isr_vec_space+0xb64>
 784:	00000440 	sll	zero,zero,0x11
 788:	0000079c 	0x79c
 78c:	9c600001 	0x9c600001
 790:	a4000007 	sh	zero,7(zero)
 794:	04000007 	bltz	zero,7b4 <__isr_vec_space+0x794>
 798:	5401f300 	bnel	zero,at,ffffd39c <__entry+0x403fd39c>
 79c:	0000009f 	0x9f
 7a0:	00000000 	nop
 7a4:	0000c800 	sll	t9,zero,0x0
 7a8:	00010c00 	sll	at,at,0x10
 7ac:	55000100 	bnezl	t0,bb0 <__isr_vec_space+0xb90>
 7b0:	0000010c 	syscall	0x4
 7b4:	00000118 	0x118
 7b8:	01f30004 	sllv	zero,s3,t7
 7bc:	01189f55 	0x1189f55
 7c0:	013c0000 	0x13c0000
 7c4:	00010000 	sll	zero,at,0x0
 7c8:	00013c55 	0x13c55
 7cc:	00015000 	sll	t2,at,0x0
 7d0:	f3000400 	0xf3000400
 7d4:	509f5501 	beql	a0,ra,15bdc <__isr_vec_space+0x15bbc>
 7d8:	60000001 	0x60000001
 7dc:	01000001 	movf	zero,t0,$fcc0
 7e0:	01605500 	0x1605500
 7e4:	017c0000 	0x17c0000
 7e8:	00040000 	sll	zero,a0,0x0
 7ec:	9f5501f3 	0x9f5501f3
 7f0:	0000017c 	0x17c
 7f4:	00000180 	sll	zero,zero,0x6
 7f8:	80550001 	lb	s5,1(v0)
 7fc:	90000001 	lbu	zero,1(zero)
 800:	04000001 	bltz	zero,808 <__isr_vec_space+0x7e8>
 804:	5501f300 	bnel	t0,at,ffffd408 <__entry+0x403fd408>
 808:	0001909f 	0x1909f
 80c:	0001b400 	sll	s6,at,0x10
 810:	55000100 	bnezl	t0,c14 <__isr_vec_space+0xbf4>
 814:	000001b4 	teq	zero,zero,0x6
 818:	000001c0 	sll	zero,zero,0x7
 81c:	01f30004 	sllv	zero,s3,t7
 820:	01c09f55 	0x1c09f55
 824:	01c40000 	0x1c40000
 828:	00010000 	sll	zero,at,0x0
 82c:	0001c455 	0x1c455
 830:	0001ec00 	sll	sp,at,0x10
 834:	f3000400 	0xf3000400
 838:	ec9f5501 	swc3	$31,21761(a0)
 83c:	fc000001 	sdc3	$0,1(zero)
 840:	01000001 	movf	zero,t0,$fcc0
 844:	01fc5500 	0x1fc5500
 848:	021c0000 	0x21c0000
 84c:	00040000 	sll	zero,a0,0x0
 850:	9f5501f3 	0x9f5501f3
 854:	0000021c 	0x21c
 858:	00000237 	0x237
 85c:	37550001 	ori	s5,k0,0x1
 860:	50000002 	beqzl	zero,86c <__isr_vec_space+0x84c>
 864:	04000002 	bltz	zero,870 <__isr_vec_space+0x850>
 868:	5501f300 	bnel	t0,at,ffffd46c <__entry+0x403fd46c>
 86c:	0002509f 	0x2509f
 870:	00027800 	sll	t7,v0,0x0
 874:	55000100 	bnezl	t0,c78 <__isr_vec_space+0xc58>
 878:	00000278 	0x278
 87c:	00000288 	0x288
 880:	01f30004 	sllv	zero,s3,t7
 884:	02889f55 	0x2889f55
 888:	028c0000 	0x28c0000
 88c:	00010000 	sll	zero,at,0x0
 890:	00028c55 	0x28c55
 894:	00029c00 	sll	s3,v0,0x10
 898:	f3000400 	0xf3000400
 89c:	9c9f5501 	0x9c9f5501
 8a0:	c4000002 	lwc1	$f0,2(zero)
 8a4:	01000002 	0x1000002
 8a8:	02c45500 	0x2c45500
 8ac:	03000000 	0x3000000
 8b0:	00040000 	sll	zero,a0,0x0
 8b4:	9f5501f3 	0x9f5501f3
 8b8:	00000300 	sll	zero,zero,0xc
 8bc:	00000328 	0x328
 8c0:	28550001 	slti	s5,v0,1
 8c4:	64000003 	0x64000003
 8c8:	04000003 	bltz	zero,8d8 <__isr_vec_space+0x8b8>
 8cc:	5501f300 	bnel	t0,at,ffffd4d0 <__entry+0x403fd4d0>
 8d0:	0003649f 	0x3649f
 8d4:	00036800 	sll	t5,v1,0x0
 8d8:	55000100 	bnezl	t0,cdc <__isr_vec_space+0xcbc>
 8dc:	00000368 	0x368
 8e0:	00000374 	teq	zero,zero,0xd
 8e4:	01f30004 	sllv	zero,s3,t7
 8e8:	03749f55 	0x3749f55
 8ec:	03780000 	0x3780000
 8f0:	00010000 	sll	zero,at,0x0
 8f4:	00037855 	0x37855
 8f8:	00038800 	sll	s1,v1,0x0
 8fc:	f3000400 	0xf3000400
 900:	889f5501 	lwl	ra,21761(a0)
 904:	8c000003 	lw	zero,3(zero)
 908:	01000003 	0x1000003
 90c:	038c5500 	0x38c5500
 910:	039c0000 	0x39c0000
 914:	00040000 	sll	zero,a0,0x0
 918:	9f5501f3 	0x9f5501f3
 91c:	0000039c 	0x39c
 920:	000003a0 	0x3a0
 924:	a0550001 	sb	s5,1(v0)
 928:	b0000003 	0xb0000003
 92c:	04000003 	bltz	zero,93c <__isr_vec_space+0x91c>
 930:	5501f300 	bnel	t0,at,ffffd534 <__entry+0x403fd534>
 934:	0003b09f 	0x3b09f
 938:	0003b400 	sll	s6,v1,0x10
 93c:	55000100 	bnezl	t0,d40 <__isr_vec_space+0xd20>
 940:	000003b4 	teq	zero,zero,0xe
 944:	000003c4 	0x3c4
 948:	01f30004 	sllv	zero,s3,t7
 94c:	03c49f55 	0x3c49f55
 950:	03e40000 	0x3e40000
 954:	00010000 	sll	zero,at,0x0
 958:	0003e455 	0x3e455
 95c:	0003ec00 	sll	sp,v1,0x10
 960:	f3000400 	0xf3000400
 964:	ec9f5501 	swc3	$31,21761(a0)
 968:	f0000003 	0xf0000003
 96c:	01000003 	0x1000003
 970:	03f05500 	0x3f05500
 974:	04000000 	bltz	zero,978 <__isr_vec_space+0x958>
 978:	00040000 	sll	zero,a0,0x0
 97c:	9f5501f3 	0x9f5501f3
 980:	00000400 	sll	zero,zero,0x10
 984:	00000404 	0x404
 988:	04550001 	0x4550001
 98c:	14000004 	bnez	zero,9a0 <__isr_vec_space+0x980>
 990:	04000004 	bltz	zero,9a4 <__isr_vec_space+0x984>
 994:	5501f300 	bnel	t0,at,ffffd598 <__entry+0x403fd598>
 998:	0004149f 	0x4149f
 99c:	00041800 	sll	v1,a0,0x0
 9a0:	55000100 	bnezl	t0,da4 <__isr_vec_space+0xd84>
 9a4:	00000418 	0x418
 9a8:	00000428 	0x428
 9ac:	01f30004 	sllv	zero,s3,t7
 9b0:	04289f55 	tgei	at,-24747
 9b4:	042c0000 	teqi	at,0
 9b8:	00010000 	sll	zero,at,0x0
 9bc:	00042c55 	0x42c55
 9c0:	00043c00 	sll	a3,a0,0x10
 9c4:	f3000400 	0xf3000400
 9c8:	3c9f5501 	0x3c9f5501
 9cc:	44000004 	0x44000004
 9d0:	01000004 	sllv	zero,zero,t0
 9d4:	04445500 	0x4445500
 9d8:	07a40000 	0x7a40000
 9dc:	00040000 	sll	zero,a0,0x0
 9e0:	9f5501f3 	0x9f5501f3
 9e4:	00000000 	nop
 9e8:	00000000 	nop
 9ec:	000002b0 	tge	zero,zero,0xa
 9f0:	000002b4 	teq	zero,zero,0xa
 9f4:	00520001 	0x520001
 9f8:	00000000 	nop
 9fc:	c0000000 	ll	zero,0(zero)
 a00:	c8000002 	lwc2	$0,2(zero)
 a04:	01000002 	0x1000002
 a08:	00005300 	sll	t2,zero,0xc
 a0c:	00000000 	nop
 a10:	03140000 	0x3140000
 a14:	03180000 	0x3180000
 a18:	00010000 	sll	zero,at,0x0
 a1c:	00000052 	mflhxu	zero
 a20:	00000000 	nop
 a24:	00032400 	sll	a0,v1,0x10
 a28:	00032c00 	sll	a1,v1,0x10
 a2c:	53000100 	beqzl	t8,e30 <__isr_vec_space+0xe10>
 a30:	00000000 	nop
 a34:	00000000 	nop
 a38:	00000000 	nop
 a3c:	00000018 	mult	zero,zero
 a40:	18540001 	0x18540001
 a44:	50000000 	beqzl	zero,a48 <__isr_vec_space+0xa28>
 a48:	04000000 	bltz	zero,a4c <__isr_vec_space+0xa2c>
 a4c:	5401f300 	bnel	zero,at,ffffd650 <__entry+0x403fd650>
 a50:	0000009f 	0x9f
 a54:	00000000 	nop
 a58:	00000000 	nop
 a5c:	00001800 	sll	v1,zero,0x0
 a60:	55000100 	bnezl	t0,e64 <__isr_vec_space+0xe44>
 a64:	00000018 	mult	zero,zero
 a68:	00000050 	0x50
 a6c:	01f30004 	sllv	zero,s3,t7
 a70:	00009f55 	0x9f55
 a74:	00000000 	nop
 a78:	00000000 	nop
 a7c:	00330000 	0x330000
 a80:	00010000 	sll	zero,at,0x0
 a84:	00003356 	0x3356
 a88:	00005000 	sll	t2,zero,0x0
 a8c:	f3000400 	0xf3000400
 a90:	009f5601 	0x9f5601
 a94:	00000000 	nop
 a98:	00000000 	nop
 a9c:	08000000 	j	0 <hardware_exit_hook>
 aa0:	01000000 	0x1000000
 aa4:	00085400 	sll	t2,t0,0x10
 aa8:	00440000 	0x440000
 aac:	00010000 	sll	zero,at,0x0
 ab0:	00000058 	0x58
 ab4:	00000000 	nop
 ab8:	Address 0x0000000000000ab8 is out of bounds.


Disassembly of section .debug_ranges:

00000000 <.debug_ranges>:
   0:	00000018 	mult	zero,zero
   4:	0000001c 	0x1c
   8:	00000078 	0x78
   c:	000000e0 	0xe0
  10:	00000124 	0x124
  14:	0000014c 	syscall	0x5
  18:	00000000 	nop
  1c:	00000000 	nop
  20:	ffffffff 	sdc3	$31,-1(ra)
  24:	00000000 	nop
  28:	80000000 	lb	zero,0(zero)
  2c:	80000194 	lb	zero,404(zero)
  30:	800018b8 	lb	zero,6328(zero)
  34:	80001a80 	lb	zero,6784(zero)
  38:	00000000 	nop
  3c:	00000000 	nop

Disassembly of section .reginfo:

00000000 <.reginfo>:
   0:	b200037c 	0xb200037c
   4:	00000000 	nop
   8:	00000000 	nop
   c:	00000000 	nop
  10:	00000000 	nop
  14:	8000a430 	lb	zero,-23504(zero)

Disassembly of section .pdr:

00000000 <.pdr>:
   0:	80000324 	lb	zero,804(zero)
   4:	00000000 	nop
   8:	00000000 	nop
   c:	00000000 	nop
  10:	00000000 	nop
  14:	00000000 	nop
  18:	00000000 	nop
  1c:	00000000 	nop
  20:	80000440 	lb	zero,1088(zero)
  24:	00000000 	nop
  28:	00000000 	nop
  2c:	00000000 	nop
  30:	00000000 	nop
  34:	00000000 	nop
  38:	00000000 	nop
  3c:	00000000 	nop
  40:	800004a4 	lb	zero,1188(zero)
  44:	00000000 	nop
  48:	00000000 	nop
  4c:	00000000 	nop
  50:	00000000 	nop
  54:	00000000 	nop
  58:	00000000 	nop
  5c:	00000000 	nop
  60:	80000578 	lb	zero,1400(zero)
  64:	00000000 	nop
  68:	00000000 	nop
  6c:	00000000 	nop
  70:	00000000 	nop
  74:	00000000 	nop
  78:	00000000 	nop
  7c:	00000000 	nop
  80:	9fc00000 	0x9fc00000
  84:	00000000 	nop
  88:	00000000 	nop
  8c:	00000000 	nop
  90:	00000000 	nop
  94:	00000000 	nop
  98:	00000000 	nop
  9c:	00000000 	nop
  a0:	9fc00014 	0x9fc00014
  a4:	00000000 	nop
  a8:	00000000 	nop
  ac:	00000000 	nop
  b0:	00000000 	nop
  b4:	00000000 	nop
  b8:	00000000 	nop
  bc:	00000000 	nop
  c0:	9fc000a8 	0x9fc000a8
  c4:	00000000 	nop
  c8:	00000000 	nop
  cc:	00000000 	nop
  d0:	00000000 	nop
  d4:	00000000 	nop
  d8:	00000000 	nop
  dc:	00000000 	nop
  e0:	9fc00100 	0x9fc00100
  e4:	00000000 	nop
  e8:	00000000 	nop
  ec:	00000000 	nop
  f0:	00000000 	nop
  f4:	00000000 	nop
  f8:	00000000 	nop
  fc:	00000000 	nop
 100:	9fc00160 	0x9fc00160
 104:	00000000 	nop
 108:	00000000 	nop
 10c:	00000000 	nop
 110:	00000000 	nop
 114:	00000000 	nop
 118:	00000000 	nop
 11c:	00000000 	nop
 120:	9fc00288 	0x9fc00288
 124:	00000000 	nop
 128:	00000000 	nop
 12c:	00000000 	nop
 130:	00000000 	nop
 134:	00000000 	nop
 138:	00000000 	nop
 13c:	00000000 	nop
 140:	9fc00308 	0x9fc00308
 144:	00000000 	nop
 148:	00000000 	nop
 14c:	00000000 	nop
 150:	00000000 	nop
 154:	00000000 	nop
 158:	00000000 	nop
 15c:	00000000 	nop
 160:	8000075c 	lb	zero,1884(zero)
 164:	00000000 	nop
 168:	00000000 	nop
 16c:	00000000 	nop
 170:	00000000 	nop
 174:	00000010 	mfhi	zero
 178:	0000001d 	0x1d
 17c:	0000001f 	0x1f
 180:	800007bc 	lb	zero,1980(zero)
 184:	00000000 	nop
 188:	00000000 	nop
 18c:	00000000 	nop
 190:	00000000 	nop
 194:	00000008 	jr	zero
 198:	0000001d 	0x1d
 19c:	0000001f 	0x1f
 1a0:	800007f4 	lb	zero,2036(zero)
 1a4:	80030000 	lb	v1,0(zero)
 1a8:	fffffffc 	sdc3	$31,-4(ra)
 1ac:	00000000 	nop
 1b0:	00000000 	nop
 1b4:	00000020 	add	zero,zero,zero
 1b8:	0000001d 	0x1d
 1bc:	0000001f 	0x1f
 1c0:	80000844 	lb	zero,2116(zero)
 1c4:	00000000 	nop
 1c8:	00000000 	nop
 1cc:	00000000 	nop
 1d0:	00000000 	nop
 1d4:	00000000 	nop
 1d8:	0000001d 	0x1d
 1dc:	0000001f 	0x1f
 1e0:	800008a0 	lb	zero,2208(zero)
 1e4:	80000000 	lb	zero,0(zero)
 1e8:	fffffffc 	sdc3	$31,-4(ra)
 1ec:	00000000 	nop
 1f0:	00000000 	nop
 1f4:	00000018 	mult	zero,zero
 1f8:	0000001d 	0x1d
 1fc:	0000001f 	0x1f
 200:	800008c8 	lb	zero,2248(zero)
 204:	80010000 	lb	at,0(zero)
 208:	fffffffc 	sdc3	$31,-4(ra)
 20c:	00000000 	nop
 210:	00000000 	nop
 214:	00000018 	mult	zero,zero
 218:	0000001d 	0x1d
 21c:	0000001f 	0x1f
 220:	80000904 	lb	zero,2308(zero)
 224:	801f0000 	lb	ra,0(zero)
 228:	fffffffc 	sdc3	$31,-4(ra)
 22c:	00000000 	nop
 230:	00000000 	nop
 234:	00000028 	0x28
 238:	0000001d 	0x1d
 23c:	0000001f 	0x1f
 240:	80000a0c 	lb	zero,2572(zero)
 244:	c0ff0000 	ll	ra,0(a3)
 248:	fffffffc 	sdc3	$31,-4(ra)
 24c:	00000000 	nop
 250:	00000000 	nop
 254:	00000040 	ssnop
 258:	0000001d 	0x1d
 25c:	0000001f 	0x1f
 260:	80000b8c 	lb	zero,2956(zero)
 264:	800f0000 	lb	t7,0(zero)
 268:	fffffffc 	sdc3	$31,-4(ra)
 26c:	00000000 	nop
 270:	00000000 	nop
 274:	00000028 	0x28
 278:	0000001d 	0x1d
 27c:	0000001f 	0x1f
 280:	80000c14 	lb	zero,3092(zero)
 284:	00000000 	nop
 288:	00000000 	nop
 28c:	00000000 	nop
 290:	00000000 	nop
 294:	00000000 	nop
 298:	00000000 	nop
 29c:	00000000 	nop
 2a0:	80000ccc 	lb	zero,3276(zero)
 2a4:	00000000 	nop
 2a8:	00000000 	nop
 2ac:	00000000 	nop
 2b0:	00000000 	nop
 2b4:	00000000 	nop
 2b8:	0000001d 	0x1d
 2bc:	0000001f 	0x1f
 2c0:	80000000 	lb	zero,0(zero)
 2c4:	00000000 	nop
 2c8:	00000000 	nop
 2cc:	00000000 	nop
 2d0:	00000000 	nop
 2d4:	00000000 	nop
 2d8:	00000000 	nop
 2dc:	00000000 	nop
 2e0:	800018b8 	lb	zero,6328(zero)
 2e4:	00000000 	nop
 2e8:	00000000 	nop
 2ec:	00000000 	nop
 2f0:	00000000 	nop
 2f4:	000000b0 	tge	zero,zero,0x2
 2f8:	0000001d 	0x1d
 2fc:	00000000 	nop
 300:	80000d14 	lb	zero,3348(zero)
 304:	80070000 	lb	a3,0(zero)
 308:	fffffffc 	sdc3	$31,-4(ra)
 30c:	00000000 	nop
 310:	00000000 	nop
 314:	00000028 	0x28
 318:	0000001d 	0x1d
 31c:	0000001f 	0x1f
 320:	80000dd4 	lb	zero,3540(zero)
 324:	00000000 	nop
 328:	00000000 	nop
 32c:	00000000 	nop
 330:	00000000 	nop
 334:	00000000 	nop
 338:	0000001d 	0x1d
 33c:	0000001f 	0x1f
 340:	80000ddc 	lb	zero,3548(zero)
 344:	80070000 	lb	a3,0(zero)
 348:	fffffffc 	sdc3	$31,-4(ra)
 34c:	00000000 	nop
 350:	00000000 	nop
 354:	00000020 	add	zero,zero,zero
 358:	0000001d 	0x1d
 35c:	0000001f 	0x1f
 360:	800014bc 	lb	zero,5308(zero)
 364:	00000000 	nop
 368:	00000000 	nop
 36c:	00000000 	nop
 370:	00000000 	nop
 374:	00000000 	nop
 378:	00000000 	nop
 37c:	00000000 	nop
 380:	8000156c 	lb	zero,5484(zero)
 384:	00000000 	nop
 388:	00000000 	nop
 38c:	00000000 	nop
 390:	00000000 	nop
 394:	00000000 	nop
 398:	00000000 	nop
 39c:	00000000 	nop
 3a0:	800015e8 	lb	zero,5608(zero)
 3a4:	00000000 	nop
 3a8:	00000000 	nop
 3ac:	00000000 	nop
 3b0:	00000000 	nop
 3b4:	00000000 	nop
 3b8:	00000000 	nop
 3bc:	00000000 	nop
 3c0:	80001688 	lb	zero,5768(zero)
 3c4:	00000000 	nop
 3c8:	00000000 	nop
 3cc:	00000000 	nop
 3d0:	00000000 	nop
 3d4:	00000000 	nop
 3d8:	00000000 	nop
 3dc:	00000000 	nop
 3e0:	80001740 	lb	zero,5952(zero)
 3e4:	00000000 	nop
 3e8:	00000000 	nop
 3ec:	00000000 	nop
 3f0:	00000000 	nop
 3f4:	00000000 	nop
 3f8:	00000000 	nop
 3fc:	00000000 	nop
 400:	80001758 	lb	zero,5976(zero)
 404:	00000000 	nop
 408:	00000000 	nop
 40c:	00000000 	nop
 410:	00000000 	nop
 414:	00000000 	nop
 418:	00000000 	nop
 41c:	00000000 	nop
 420:	80000200 	lb	zero,512(zero)
 424:	00000000 	nop
 428:	00000000 	nop
 42c:	00000000 	nop
 430:	00000000 	nop
 434:	00000000 	nop
 438:	00000000 	nop
 43c:	00000000 	nop
 440:	800017e8 	lb	zero,6120(zero)
 444:	00000000 	nop
 448:	00000000 	nop
 44c:	00000000 	nop
 450:	00000000 	nop
 454:	00000000 	nop
 458:	00000000 	nop
 45c:	00000000 	nop
 460:	80001804 	lb	zero,6148(zero)
 464:	80010000 	lb	at,0(zero)
 468:	fffffffc 	sdc3	$31,-4(ra)
 46c:	00000000 	nop
 470:	00000000 	nop
 474:	00000020 	add	zero,zero,zero
 478:	0000001d 	0x1d
 47c:	0000001f 	0x1f
 480:	80001854 	lb	zero,6228(zero)
 484:	00000000 	nop
 488:	00000000 	nop
 48c:	00000000 	nop
 490:	00000000 	nop
 494:	00000000 	nop
 498:	0000001d 	0x1d
 49c:	0000001f 	0x1f
 4a0:	80001868 	lb	zero,6248(zero)
 4a4:	00000000 	nop
 4a8:	00000000 	nop
 4ac:	00000000 	nop
 4b0:	00000000 	nop
 4b4:	00000000 	nop
 4b8:	0000001d 	0x1d
 4bc:	0000001f 	0x1f
 4c0:	800018ac 	lb	zero,6316(zero)
 4c4:	00000000 	nop
 4c8:	00000000 	nop
 4cc:	00000000 	nop
 4d0:	00000000 	nop
 4d4:	00000000 	nop
 4d8:	0000001d 	0x1d
 4dc:	0000001f 	0x1f

Disassembly of section .gnu.attributes:

00000000 <.gnu.attributes>:
   0:	00000f41 	0xf41
   4:	756e6700 	jalx	5b99c00 <__memory_size+0x5b7a400>
   8:	00070100 	sll	zero,a3,0x4
   c:	03040000 	0x3040000

Disassembly of section .comment:

00000000 <.comment>:
   0:	3a434347 	xori	v1,s2,0x4347
   4:	6f432820 	0x6f432820
   8:	63736564 	0x63736564
   c:	20657061 	addi	a1,v1,28769
  10:	20554e47 	addi	s5,v0,20039
  14:	6c6f6f54 	0x6c6f6f54
  18:	30322073 	andi	s2,at,0x2073
  1c:	302e3531 	andi	t6,at,0x3531
  20:	35302d36 	ori	s0,t1,0x2d36
  24:	726f6620 	0x726f6620
  28:	50494d20 	beql	v0,t1,134ac <__isr_vec_space+0x1348c>
  2c:	544d2053 	bnel	v0,t5,817c <__isr_vec_space+0x815c>
  30:	61422049 	0x61422049
  34:	4d206572 	0x4d206572
  38:	6c617465 	0x6c617465
  3c:	2e342029 	sltiu	s4,s1,8233
  40:	00322e39 	0x322e39
