
FPGA_Ram.elf:     file format elf32-tradlittlemips


Disassembly of section .bootrom:

9fc00000 <__reset_vector>:
9fc00000:	3c069fc0 	lui	a2,0x9fc0
9fc00004:	24c60014 	addiu	a2,a2,20
9fc00008:	00c00008 	jr	a2
9fc0000c:	40804800 	mtc0	zero,c0_count
9fc00010:	00000000 	nop

9fc00014 <__cpu_init>:
9fc00014:	40116000 	mfc0	s1,c0_status
9fc00018:	7e3104c0 	ext	s1,s1,0x13,0x1
9fc0001c:	12200002 	beqz	s1,9fc00028 <init_resources>
9fc00020:	00000000 	nop
9fc00024:	7000003f 	sdbbp

9fc00028 <init_resources>:
9fc00028:	3c069fc0 	lui	a2,0x9fc0
9fc0002c:	24c60288 	addiu	a2,a2,648
9fc00030:	00c0f809 	jalr	a2
9fc00034:	00000000 	nop
9fc00038:	3c069fc0 	lui	a2,0x9fc0
9fc0003c:	24c60308 	addiu	a2,a2,776
9fc00040:	00c0f809 	jalr	a2
9fc00044:	00000000 	nop
9fc00048:	3c069fc0 	lui	a2,0x9fc0
9fc0004c:	24c600a8 	addiu	a2,a2,168
9fc00050:	00c0f809 	jalr	a2
9fc00054:	00000000 	nop
9fc00058:	3c069fc0 	lui	a2,0x9fc0
9fc0005c:	24c60160 	addiu	a2,a2,352
9fc00060:	2405000f 	li	a1,15
9fc00064:	7ca6ef44 	ins	a2,a1,0x1d,0x1
9fc00068:	00c0f809 	jalr	a2
9fc0006c:	00000000 	nop
9fc00070:	3c069fc0 	lui	a2,0x9fc0
9fc00074:	24c60100 	addiu	a2,a2,256
9fc00078:	00c0f809 	jalr	a2
9fc0007c:	00000000 	nop
9fc00080:	3c1f9fc0 	lui	ra,0x9fc0
9fc00084:	27ff00a0 	addiu	ra,ra,160
9fc00088:	00002021 	move	a0,zero
9fc0008c:	3c028000 	lui	v0,0x8000
9fc00090:	24420324 	addiu	v0,v0,804
9fc00094:	4082f000 	mtc0	v0,c0_errorepc
9fc00098:	000000c0 	ehb
9fc0009c:	42000018 	eret

9fc000a0 <all_done>:
9fc000a0:	1000ffff 	b	9fc000a0 <all_done>
9fc000a4:	00000000 	nop

9fc000a8 <init_icache>:
9fc000a8:	40028001 	mfc0	v0,c0_config1
9fc000ac:	7c4314c0 	ext	v1,v0,0x13,0x3
9fc000b0:	10600011 	beqz	v1,9fc000f8 <done_icache>
9fc000b4:	00000000 	nop
9fc000b8:	24060002 	li	a2,2
9fc000bc:	00661804 	sllv	v1,a2,v1
9fc000c0:	7c441580 	ext	a0,v0,0x16,0x3
9fc000c4:	24060040 	li	a2,64
9fc000c8:	00862004 	sllv	a0,a2,a0
9fc000cc:	7c451400 	ext	a1,v0,0x10,0x3
9fc000d0:	20a50001 	addi	a1,a1,1
9fc000d4:	70852002 	mul	a0,a0,a1
9fc000d8:	3c068000 	lui	a2,0x8000
9fc000dc:	4080e000 	mtc0	zero,c0_taglo
9fc000e0:	4080e800 	mtc0	zero,c0_taghi
9fc000e4:	00803821 	move	a3,a0

9fc000e8 <next_icache_tag>:
9fc000e8:	bcc80000 	cache	0x8,0(a2)
9fc000ec:	20e7ffff 	addi	a3,a3,-1
9fc000f0:	14e0fffd 	bnez	a3,9fc000e8 <next_icache_tag>
9fc000f4:	00c33020 	add	a2,a2,v1

9fc000f8 <done_icache>:
9fc000f8:	03e00008 	jr	ra
9fc000fc:	00000000 	nop

9fc00100 <init_dcache>:
9fc00100:	40028001 	mfc0	v0,c0_config1
9fc00104:	7c431280 	ext	v1,v0,0xa,0x3
9fc00108:	10600013 	beqz	v1,9fc00158 <done_dcache>
9fc0010c:	00000000 	nop
9fc00110:	24060002 	li	a2,2
9fc00114:	00661804 	sllv	v1,a2,v1
9fc00118:	7c441340 	ext	a0,v0,0xd,0x3
9fc0011c:	24060040 	li	a2,64
9fc00120:	00862004 	sllv	a0,a2,a0
9fc00124:	7c4511c0 	ext	a1,v0,0x7,0x3
9fc00128:	20a50001 	addi	a1,a1,1
9fc0012c:	70852002 	mul	a0,a0,a1
9fc00130:	3c068000 	lui	a2,0x8000
9fc00134:	4080e000 	mtc0	zero,c0_taglo
9fc00138:	4080e800 	mtc0	zero,c0_taghi
9fc0013c:	4080e002 	mtc0	zero,c0_taglo1
9fc00140:	4080e802 	mtc0	zero,c0_taghi1
9fc00144:	00803821 	move	a3,a0

9fc00148 <next_dcache_tag>:
9fc00148:	bcc90000 	cache	0x9,0(a2)
9fc0014c:	20e7ffff 	addi	a3,a3,-1
9fc00150:	14e0fffd 	bnez	a3,9fc00148 <next_dcache_tag>
9fc00154:	00c33020 	add	a2,a2,v1

9fc00158 <done_dcache>:
9fc00158:	03e00008 	jr	ra
9fc0015c:	00000000 	nop

9fc00160 <change_k0_cca>:
9fc00160:	40028000 	mfc0	v0,c0_config
9fc00164:	24030003 	li	v1,3
9fc00168:	7c621004 	ins	v0,v1,0x0,0x3
9fc0016c:	40828000 	mtc0	v0,c0_config
9fc00170:	03e00408 	jr.hb	ra
9fc00174:	00000000 	nop
9fc00178:	00000000 	nop
9fc0017c:	00000000 	nop
9fc00180:	00000000 	nop
9fc00184:	00000000 	nop
9fc00188:	00000000 	nop
9fc0018c:	00000000 	nop
9fc00190:	00000000 	nop
9fc00194:	00000000 	nop
9fc00198:	00000000 	nop
9fc0019c:	00000000 	nop
9fc001a0:	00000000 	nop
9fc001a4:	00000000 	nop
9fc001a8:	00000000 	nop
9fc001ac:	00000000 	nop
9fc001b0:	00000000 	nop
9fc001b4:	00000000 	nop
9fc001b8:	00000000 	nop
9fc001bc:	00000000 	nop
9fc001c0:	00000000 	nop
9fc001c4:	00000000 	nop
9fc001c8:	00000000 	nop
9fc001cc:	00000000 	nop
9fc001d0:	00000000 	nop
9fc001d4:	00000000 	nop
9fc001d8:	00000000 	nop
9fc001dc:	00000000 	nop
9fc001e0:	00000000 	nop
9fc001e4:	00000000 	nop
9fc001e8:	00000000 	nop
9fc001ec:	00000000 	nop
9fc001f0:	00000000 	nop
9fc001f4:	00000000 	nop
9fc001f8:	00000000 	nop
9fc001fc:	00000000 	nop
9fc00200:	7000003f 	sdbbp
9fc00204:	00000000 	nop
9fc00208:	00000000 	nop
9fc0020c:	00000000 	nop
9fc00210:	00000000 	nop
9fc00214:	00000000 	nop
9fc00218:	00000000 	nop
9fc0021c:	00000000 	nop
9fc00220:	00000000 	nop
9fc00224:	00000000 	nop
9fc00228:	00000000 	nop
9fc0022c:	00000000 	nop
9fc00230:	00000000 	nop
9fc00234:	00000000 	nop
9fc00238:	00000000 	nop
9fc0023c:	00000000 	nop
9fc00240:	00000000 	nop
9fc00244:	00000000 	nop
9fc00248:	00000000 	nop
9fc0024c:	00000000 	nop
9fc00250:	00000000 	nop
9fc00254:	00000000 	nop
9fc00258:	00000000 	nop
9fc0025c:	00000000 	nop
9fc00260:	00000000 	nop
9fc00264:	00000000 	nop
9fc00268:	00000000 	nop
9fc0026c:	00000000 	nop
9fc00270:	00000000 	nop
9fc00274:	00000000 	nop
9fc00278:	00000000 	nop
9fc0027c:	00000000 	nop
9fc00280:	7000003f 	sdbbp
9fc00284:	00000000 	nop

9fc00288 <init_cp0>:
9fc00288:	3c030040 	lui	v1,0x40
9fc0028c:	34630404 	ori	v1,v1,0x404
9fc00290:	40836000 	mtc0	v1,c0_status
9fc00294:	40028001 	mfc0	v0,c0_config1
9fc00298:	7c4300c0 	ext	v1,v0,0x3,0x1
9fc0029c:	10600011 	beqz	v1,9fc002e4 <done_wr>
9fc002a0:	24030007 	li	v1,7
9fc002a4:	40839800 	mtc0	v1,c0_watchhi
9fc002a8:	40809000 	mtc0	zero,c0_watchlo
9fc002ac:	40839801 	mtc0	v1,c0_watchhi,1
9fc002b0:	40809001 	mtc0	zero,c0_watchlo,1
9fc002b4:	40839802 	mtc0	v1,c0_watchhi,2
9fc002b8:	40809002 	mtc0	zero,c0_watchlo,2
9fc002bc:	40839803 	mtc0	v1,c0_watchhi,3
9fc002c0:	40809003 	mtc0	zero,c0_watchlo,3
9fc002c4:	40839804 	mtc0	v1,c0_watchhi,4
9fc002c8:	40809004 	mtc0	zero,c0_watchlo,4
9fc002cc:	40839805 	mtc0	v1,c0_watchhi,5
9fc002d0:	40809005 	mtc0	zero,c0_watchlo,5
9fc002d4:	40839806 	mtc0	v1,c0_watchhi,6
9fc002d8:	40809006 	mtc0	zero,c0_watchlo,6
9fc002dc:	40839807 	mtc0	v1,c0_watchhi,7
9fc002e0:	40809007 	mtc0	zero,c0_watchlo,7

9fc002e4 <done_wr>:
9fc002e4:	40806800 	mtc0	zero,c0_cause
9fc002e8:	40805800 	mtc0	zero,c0_compare
9fc002ec:	03e00008 	jr	ra
9fc002f0:	00000000 	nop
9fc002f4:	00000000 	nop
9fc002f8:	00000000 	nop
9fc002fc:	00000000 	nop
9fc00300:	7000003f 	sdbbp
9fc00304:	00000000 	nop

9fc00308 <init_tlb>:
9fc00308:	40038000 	mfc0	v1,c0_config
9fc0030c:	7c6311c0 	ext	v1,v1,0x7,0x3
9fc00310:	24070001 	li	a3,1
9fc00314:	1467000f 	bne	v1,a3,9fc00354 <done_init_tlb>
9fc00318:	40028001 	mfc0	v0,c0_config1
9fc0031c:	00000000 	nop

9fc00320 <start_init_tlb>:
9fc00320:	7c432e40 	ext	v1,v0,0x19,0x6
9fc00324:	40801000 	mtc0	zero,c0_entrylo0
9fc00328:	40801800 	mtc0	zero,c0_entrylo1
9fc0032c:	40802800 	mtc0	zero,c0_pagemask
9fc00330:	40803000 	mtc0	zero,c0_wired
9fc00334:	3c048000 	lui	a0,0x8000

9fc00338 <next_tlb_entry_pair>:
9fc00338:	40830000 	mtc0	v1,c0_index
9fc0033c:	40845000 	mtc0	a0,c0_entryhi
9fc00340:	000000c0 	ehb
9fc00344:	42000002 	tlbwi
9fc00348:	20844000 	addi	a0,a0,16384
9fc0034c:	1460fffa 	bnez	v1,9fc00338 <next_tlb_entry_pair>
9fc00350:	2063ffff 	addi	v1,v1,-1

9fc00354 <done_init_tlb>:
9fc00354:	03e00008 	jr	ra
9fc00358:	00000000 	nop
9fc0035c:	00000000 	nop
9fc00360:	00000000 	nop
9fc00364:	00000000 	nop
9fc00368:	00000000 	nop
9fc0036c:	00000000 	nop
9fc00370:	00000000 	nop
9fc00374:	00000000 	nop
9fc00378:	00000000 	nop
9fc0037c:	00000000 	nop
9fc00380:	3c1abf80 	lui	k0,0xbf80
9fc00384:	241b5555 	li	k1,21845
9fc00388:	af5b0000 	sw	k1,0(k0)
9fc0038c:	42000018 	eret
9fc00390:	00000000 	nop
9fc00394:	00000000 	nop
9fc00398:	00000000 	nop
9fc0039c:	00000000 	nop
9fc003a0:	00000000 	nop
9fc003a4:	00000000 	nop
9fc003a8:	00000000 	nop
9fc003ac:	00000000 	nop
9fc003b0:	00000000 	nop
9fc003b4:	00000000 	nop
9fc003b8:	00000000 	nop
9fc003bc:	00000000 	nop
9fc003c0:	00000000 	nop
9fc003c4:	00000000 	nop
9fc003c8:	00000000 	nop
9fc003cc:	00000000 	nop
9fc003d0:	00000000 	nop
9fc003d4:	00000000 	nop
9fc003d8:	00000000 	nop
9fc003dc:	00000000 	nop
9fc003e0:	00000000 	nop
9fc003e4:	00000000 	nop
9fc003e8:	00000000 	nop
9fc003ec:	00000000 	nop
9fc003f0:	00000000 	nop
9fc003f4:	00000000 	nop
9fc003f8:	00000000 	nop
9fc003fc:	00000000 	nop
9fc00400:	00000000 	nop
9fc00404:	00000000 	nop
9fc00408:	00000000 	nop
9fc0040c:	00000000 	nop
9fc00410:	00000000 	nop
9fc00414:	00000000 	nop
9fc00418:	00000000 	nop
9fc0041c:	00000000 	nop
9fc00420:	00000000 	nop
9fc00424:	00000000 	nop
9fc00428:	00000000 	nop
9fc0042c:	00000000 	nop
9fc00430:	00000000 	nop
9fc00434:	00000000 	nop
9fc00438:	00000000 	nop
9fc0043c:	00000000 	nop
9fc00440:	00000000 	nop
9fc00444:	00000000 	nop
9fc00448:	00000000 	nop
9fc0044c:	00000000 	nop
9fc00450:	00000000 	nop
9fc00454:	00000000 	nop
9fc00458:	00000000 	nop
9fc0045c:	00000000 	nop
9fc00460:	00000000 	nop
9fc00464:	00000000 	nop
9fc00468:	00000000 	nop
9fc0046c:	00000000 	nop
9fc00470:	00000000 	nop
9fc00474:	00000000 	nop
9fc00478:	00000000 	nop
9fc0047c:	00000000 	nop
9fc00480:	3c18bf80 	lui	t8,0xbf80
9fc00484:	4084f800 	mtc0	a0,c0_desave
9fc00488:	4004c000 	mfc0	a0,c0_depc
9fc0048c:	af040000 	sw	a0,0(t8)
9fc00490:	4004f800 	mfc0	a0,c0_desave
9fc00494:	1000ffff 	b	9fc00494 <done_init_tlb+0x140>
9fc00498:	00000000 	nop
9fc0049c:	00000000 	nop

Disassembly of section .exception_vector:

80000000 <__exception_entry>:
80000000:	3c1b8000 	lui	k1,0x8000
80000004:	277b1428 	addiu	k1,k1,5160
80000008:	8f7b0000 	lw	k1,0(k1)
8000000c:	13600003 	beqz	k1,8000001c <__exception_entry+0x1c>
80000010:	00000000 	nop
80000014:	080000c9 	j	80000324 <_start>
80000018:	00000000 	nop
8000001c:	3c1b8000 	lui	k1,0x8000
80000020:	277b1828 	addiu	k1,k1,6184
80000024:	1360fff6 	beqz	k1,80000000 <__exception_entry>
80000028:	00000000 	nop
8000002c:	03600008 	jr	k1
80000030:	00000000 	nop
80000034:	00000000 	nop
80000038:	00000000 	nop
8000003c:	00000000 	nop
80000040:	00000000 	nop
80000044:	00000000 	nop
80000048:	00000000 	nop
8000004c:	00000000 	nop
80000050:	00000000 	nop
80000054:	00000000 	nop
80000058:	00000000 	nop
8000005c:	00000000 	nop
80000060:	00000000 	nop
80000064:	00000000 	nop
80000068:	00000000 	nop
8000006c:	00000000 	nop
80000070:	00000000 	nop
80000074:	00000000 	nop
80000078:	00000000 	nop
8000007c:	00000000 	nop

80000080 <__xtlb_refill_loop>:
80000080:	3c1b8000 	lui	k1,0x8000
80000084:	277b1828 	addiu	k1,k1,6184
80000088:	1360fffd 	beqz	k1,80000080 <__xtlb_refill_loop>
8000008c:	00000000 	nop
80000090:	03600008 	jr	k1
80000094:	00000000 	nop
80000098:	00000000 	nop
8000009c:	00000000 	nop
800000a0:	00000000 	nop
800000a4:	00000000 	nop
800000a8:	00000000 	nop
800000ac:	00000000 	nop
800000b0:	00000000 	nop
800000b4:	00000000 	nop
800000b8:	00000000 	nop
800000bc:	00000000 	nop
800000c0:	00000000 	nop
800000c4:	00000000 	nop
800000c8:	00000000 	nop
800000cc:	00000000 	nop
800000d0:	00000000 	nop
800000d4:	00000000 	nop
800000d8:	00000000 	nop
800000dc:	00000000 	nop
800000e0:	00000000 	nop
800000e4:	00000000 	nop
800000e8:	00000000 	nop
800000ec:	00000000 	nop
800000f0:	00000000 	nop
800000f4:	00000000 	nop
800000f8:	00000000 	nop
800000fc:	00000000 	nop

80000100 <__cache_error_loop>:
80000100:	3c1b0000 	lui	k1,0x0
80000104:	277b0000 	addiu	k1,k1,0
80000108:	1360fffd 	beqz	k1,80000100 <__cache_error_loop>
8000010c:	00000000 	nop
80000110:	03600008 	jr	k1
80000114:	00000000 	nop
80000118:	00000000 	nop
8000011c:	00000000 	nop
80000120:	00000000 	nop
80000124:	00000000 	nop
80000128:	00000000 	nop
8000012c:	00000000 	nop
80000130:	00000000 	nop
80000134:	00000000 	nop
80000138:	00000000 	nop
8000013c:	00000000 	nop
80000140:	00000000 	nop
80000144:	00000000 	nop
80000148:	00000000 	nop
8000014c:	00000000 	nop
80000150:	00000000 	nop
80000154:	00000000 	nop
80000158:	00000000 	nop
8000015c:	00000000 	nop
80000160:	00000000 	nop
80000164:	00000000 	nop
80000168:	00000000 	nop
8000016c:	00000000 	nop
80000170:	00000000 	nop
80000174:	00000000 	nop
80000178:	00000000 	nop
8000017c:	00000000 	nop
80000180:	afbbffc8 	sw	k1,-56(sp)
80000184:	3c1b8000 	lui	k1,0x8000
80000188:	277b1828 	addiu	k1,k1,6184
8000018c:	03600008 	jr	k1
80000190:	00000000 	nop
80000194:	00000000 	nop
80000198:	00000000 	nop
8000019c:	00000000 	nop
800001a0:	00000000 	nop
800001a4:	00000000 	nop
800001a8:	00000000 	nop
800001ac:	00000000 	nop
800001b0:	00000000 	nop
800001b4:	00000000 	nop
800001b8:	00000000 	nop
800001bc:	00000000 	nop
800001c0:	00000000 	nop
800001c4:	00000000 	nop
800001c8:	00000000 	nop
800001cc:	00000000 	nop
800001d0:	00000000 	nop
800001d4:	00000000 	nop
800001d8:	00000000 	nop
800001dc:	00000000 	nop
800001e0:	00000000 	nop
800001e4:	00000000 	nop
800001e8:	00000000 	nop
800001ec:	00000000 	nop
800001f0:	00000000 	nop
800001f4:	00000000 	nop
800001f8:	00000000 	nop
800001fc:	00000000 	nop

80000200 <__isr_vec>:
80000200:	3c1b0000 	lui	k1,0x0
80000204:	277b0000 	addiu	k1,k1,0
80000208:	1360003d 	beqz	k1,80000300 <__isr_vec_fallback>
8000020c:	00000000 	nop
80000210:	03600008 	jr	k1
80000214:	00000000 	nop
80000218:	00000000 	nop
8000021c:	00000000 	nop

80000220 <__isr_vec_sw1>:
80000220:	3c1b0000 	lui	k1,0x0
80000224:	277b0000 	addiu	k1,k1,0
80000228:	13600035 	beqz	k1,80000300 <__isr_vec_fallback>
8000022c:	00000000 	nop
80000230:	03600008 	jr	k1
80000234:	00000000 	nop
80000238:	00000000 	nop
8000023c:	00000000 	nop

80000240 <__isr_vec_hw0>:
80000240:	3c1b0000 	lui	k1,0x0
80000244:	277b0000 	addiu	k1,k1,0
80000248:	1360002d 	beqz	k1,80000300 <__isr_vec_fallback>
8000024c:	00000000 	nop
80000250:	03600008 	jr	k1
80000254:	00000000 	nop
80000258:	00000000 	nop
8000025c:	00000000 	nop

80000260 <__isr_vec_hw1>:
80000260:	3c1b0000 	lui	k1,0x0
80000264:	277b0000 	addiu	k1,k1,0
80000268:	13600025 	beqz	k1,80000300 <__isr_vec_fallback>
8000026c:	00000000 	nop
80000270:	03600008 	jr	k1
80000274:	00000000 	nop
80000278:	00000000 	nop
8000027c:	00000000 	nop

80000280 <__isr_vec_hw2>:
80000280:	3c1b0000 	lui	k1,0x0
80000284:	277b0000 	addiu	k1,k1,0
80000288:	1360001d 	beqz	k1,80000300 <__isr_vec_fallback>
8000028c:	00000000 	nop
80000290:	03600008 	jr	k1
80000294:	00000000 	nop
80000298:	00000000 	nop
8000029c:	00000000 	nop

800002a0 <__isr_vec_hw3>:
800002a0:	3c1b0000 	lui	k1,0x0
800002a4:	277b0000 	addiu	k1,k1,0
800002a8:	13600015 	beqz	k1,80000300 <__isr_vec_fallback>
800002ac:	00000000 	nop
800002b0:	03600008 	jr	k1
800002b4:	00000000 	nop
800002b8:	00000000 	nop
800002bc:	00000000 	nop

800002c0 <__isr_vec_hw4>:
800002c0:	3c1b0000 	lui	k1,0x0
800002c4:	277b0000 	addiu	k1,k1,0
800002c8:	1360000d 	beqz	k1,80000300 <__isr_vec_fallback>
800002cc:	00000000 	nop
800002d0:	03600008 	jr	k1
800002d4:	00000000 	nop
800002d8:	00000000 	nop
800002dc:	00000000 	nop

800002e0 <__isr_vec_hw5>:
800002e0:	3c1b0000 	lui	k1,0x0
800002e4:	277b0000 	addiu	k1,k1,0
800002e8:	13600005 	beqz	k1,80000300 <__isr_vec_fallback>
800002ec:	00000000 	nop
800002f0:	03600008 	jr	k1
800002f4:	00000000 	nop
800002f8:	00000000 	nop
800002fc:	00000000 	nop

80000300 <__isr_vec_fallback>:
80000300:	3c1b0000 	lui	k1,0x0
80000304:	277b0000 	addiu	k1,k1,0
80000308:	1360fffd 	beqz	k1,80000300 <__isr_vec_fallback>
8000030c:	00000000 	nop
80000310:	03600008 	jr	k1
80000314:	00000000 	nop
80000318:	00000000 	nop
8000031c:	00000000 	nop

Disassembly of section .text:

80000320 <_ftext>:
80000320:	00000000 	nop

80000324 <_start>:
80000324:	3c088000 	lui	t0,0x8000
80000328:	25081f08 	addiu	t0,t0,7944
8000032c:	ad040000 	sw	a0,0(t0)
80000330:	ad050004 	sw	a1,4(t0)
80000334:	ad060008 	sw	a2,8(t0)
80000338:	3c198000 	lui	t9,0x8000
8000033c:	2739142c 	addiu	t9,t9,5164
80000340:	13200006 	beqz	t9,8000035c <_start+0x38>
80000344:	00000000 	nop
80000348:	03e02021 	move	a0,ra
8000034c:	0320f809 	jalr	t9
80000350:	00000000 	nop
80000354:	10000004 	b	80000368 <_start+0x44>
80000358:	00000000 	nop
8000035c:	40806800 	mtc0	zero,c0_cause
80000360:	00000000 	nop
80000364:	00001021 	move	v0,zero
80000368:	3c088000 	lui	t0,0x8000
8000036c:	25081a48 	addiu	t0,t0,6728
80000370:	3c098000 	lui	t1,0x8000
80000374:	25291a60 	addiu	t1,t1,6752
80000378:	2529ffe8 	addiu	t1,t1,-24
8000037c:	15090021 	bne	t0,t1,80000404 <_start+0xe0>
80000380:	00000000 	nop
80000384:	91090002 	lbu	t1,2(t0)
80000388:	2d230003 	sltiu	v1,t1,3
8000038c:	10600003 	beqz	v1,8000039c <_start+0x78>
80000390:	39290040 	xori	t1,t1,0x40
80000394:	3c030010 	lui	v1,0x10
80000398:	00431025 	or	v0,v0,v1
8000039c:	15200002 	bnez	t1,800003a8 <_start+0x84>
800003a0:	240300e0 	li	v1,224
800003a4:	00431025 	or	v0,v0,v1
800003a8:	8d09000c 	lw	t1,12(t0)
800003ac:	31290013 	andi	t1,t1,0x13
800003b0:	11200002 	beqz	t1,800003bc <_start+0x98>
800003b4:	3c030100 	lui	v1,0x100
800003b8:	00431025 	or	v0,v0,v1
800003bc:	91090007 	lbu	t1,7(t0)
800003c0:	39290003 	xori	t1,t1,0x3
800003c4:	11200010 	beqz	t1,80000408 <_start+0xe4>
800003c8:	3c032000 	lui	v1,0x2000
800003cc:	00431025 	or	v0,v0,v1
800003d0:	91090005 	lbu	t1,5(t0)
800003d4:	39290002 	xori	t1,t1,0x2
800003d8:	15200002 	bnez	t1,800003e4 <_start+0xc0>
800003dc:	3c030400 	lui	v1,0x400
800003e0:	00431025 	or	v0,v0,v1
800003e4:	8d09000c 	lw	t1,12(t0)
800003e8:	31290200 	andi	t1,t1,0x200
800003ec:	11200006 	beqz	t1,80000408 <_start+0xe4>
800003f0:	3c030400 	lui	v1,0x400
800003f4:	00431025 	or	v0,v0,v1
800003f8:	3c030800 	lui	v1,0x800
800003fc:	10000002 	b	80000408 <_start+0xe4>
80000400:	40838005 	mtc0	v1,$16,5
80000404:	24020000 	li	v0,0
80000408:	40826000 	mtc0	v0,c0_status
8000040c:	00000000 	nop
80000410:	3c080000 	lui	t0,0x0
80000414:	25080000 	addiu	t0,t0,0
80000418:	11000003 	beqz	t0,80000428 <_start+0x104>
8000041c:	00000000 	nop
80000420:	0100f809 	jalr	t0
80000424:	00000000 	nop
80000428:	3c028000 	lui	v0,0x8000
8000042c:	24420438 	addiu	v0,v0,1080
80000430:	00400008 	jr	v0
80000434:	00000000 	nop
80000438:	3c1c8001 	lui	gp,0x8001
8000043c:	279ca3a0 	addiu	gp,gp,-23648

80000440 <zerobss>:
80000440:	3c028000 	lui	v0,0x8000
80000444:	244223ac 	addiu	v0,v0,9132
80000448:	3c038000 	lui	v1,0x8000
8000044c:	246323cc 	addiu	v1,v1,9164
80000450:	10430004 	beq	v0,v1,80000464 <zerobss+0x24>
80000454:	00000000 	nop
80000458:	24420004 	addiu	v0,v0,4
8000045c:	1443fffe 	bne	v0,v1,80000458 <zerobss+0x18>
80000460:	ac40fffc 	sw	zero,-4(v0)
80000464:	3c088004 	lui	t0,0x8004
80000468:	25080000 	addiu	t0,t0,0
8000046c:	1500000b 	bnez	t0,8000049c <zerobss+0x5c>
80000470:	00000000 	nop
80000474:	3c1d8000 	lui	sp,0x8000
80000478:	27bd27d0 	addiu	sp,sp,10192
8000047c:	24040000 	li	a0,0
80000480:	3c058000 	lui	a1,0x8000
80000484:	0c00030f 	jal	80000c3c <_get_ram_range>
80000488:	24a527d0 	addiu	a1,a1,10192
8000048c:	3c048000 	lui	a0,0x8000
80000490:	248427d0 	addiu	a0,a0,10192
80000494:	8c880000 	lw	t0,0(a0)
80000498:	8d00fffc 	lw	zero,-4(t0)
8000049c:	2508ffc0 	addiu	t0,t0,-64
800004a0:	0100e821 	move	sp,t0

800004a4 <init>:
800004a4:	3c190000 	lui	t9,0x0
800004a8:	27390000 	addiu	t9,t9,0
800004ac:	13200003 	beqz	t9,800004bc <init+0x18>
800004b0:	00000000 	nop
800004b4:	0320f809 	jalr	t9
800004b8:	00000000 	nop
800004bc:	3c190000 	lui	t9,0x0
800004c0:	27390000 	addiu	t9,t9,0
800004c4:	13200003 	beqz	t9,800004d4 <init+0x30>
800004c8:	00000000 	nop
800004cc:	0320f809 	jalr	t9
800004d0:	00000000 	nop
800004d4:	3c048000 	lui	a0,0x8000
800004d8:	24841a14 	addiu	a0,a0,6676
800004dc:	0c000204 	jal	80000810 <atexit>
800004e0:	00000000 	nop
800004e4:	0c00067c 	jal	800019f0 <_init>
800004e8:	00000000 	nop
800004ec:	3c088000 	lui	t0,0x8000
800004f0:	25081f08 	addiu	t0,t0,7944
800004f4:	8d040000 	lw	a0,0(t0)
800004f8:	8d050004 	lw	a1,4(t0)
800004fc:	8d060008 	lw	a2,8(t0)
80000500:	3c088000 	lui	t0,0x8000
80000504:	250816c8 	addiu	t0,t0,5832
80000508:	11000003 	beqz	t0,80000518 <init+0x74>
8000050c:	00000000 	nop
80000510:	0100f809 	jalr	t0
80000514:	00000000 	nop
80000518:	1c800013 	bgtz	a0,80000568 <init+0xc4>
8000051c:	00000000 	nop
80000520:	1080000c 	beqz	a0,80000554 <init+0xb0>
80000524:	00000000 	nop
80000528:	2884ffff 	slti	a0,a0,-1
8000052c:	14800009 	bnez	a0,80000554 <init+0xb0>
80000530:	00000000 	nop
80000534:	3c088000 	lui	t0,0x8000
80000538:	25080b84 	addiu	t0,t0,2948
8000053c:	11000005 	beqz	t0,80000554 <init+0xb0>
80000540:	00000000 	nop
80000544:	0100f809 	jalr	t0
80000548:	00000000 	nop
8000054c:	10000006 	b	80000568 <init+0xc4>
80000550:	00000000 	nop
80000554:	00002021 	move	a0,zero
80000558:	27a50020 	addiu	a1,sp,32
8000055c:	27a60028 	addiu	a2,sp,40
80000560:	aca00000 	sw	zero,0(a1)
80000564:	acc00000 	sw	zero,0(a2)
80000568:	0c0001d7 	jal	8000075c <main>
8000056c:	00000000 	nop
80000570:	0c00020e 	jal	80000838 <exit>
80000574:	00402021 	move	a0,v0

80000578 <_exit>:
80000578:	3c088000 	lui	t0,0x8000
8000057c:	25081f08 	addiu	t0,t0,7944
80000580:	ad040000 	sw	a0,0(t0)
80000584:	3c080000 	lui	t0,0x0
80000588:	25080000 	addiu	t0,t0,0
8000058c:	11000003 	beqz	t0,8000059c <_exit+0x24>
80000590:	00000000 	nop
80000594:	0100f809 	jalr	t0
80000598:	00000000 	nop
8000059c:	3c088000 	lui	t0,0x8000
800005a0:	25081f08 	addiu	t0,t0,7944
800005a4:	0c0002bf 	jal	80000afc <__exit>
800005a8:	8d040000 	lw	a0,0(t0)
800005ac:	03ff000d 	break	0x3ff
800005b0:	1000fff1 	b	80000578 <_exit>
800005b4:	00000000 	nop

800005b8 <deregister_tm_clones>:
800005b8:	3c048000 	lui	a0,0x8000
800005bc:	3c028000 	lui	v0,0x8000
800005c0:	2484239c 	addiu	a0,a0,9116
800005c4:	2442239f 	addiu	v0,v0,9119
800005c8:	00441023 	subu	v0,v0,a0
800005cc:	2c420007 	sltiu	v0,v0,7
800005d0:	14400006 	bnez	v0,800005ec <deregister_tm_clones+0x34>
800005d4:	3c190000 	lui	t9,0x0
800005d8:	27390000 	addiu	t9,t9,0
800005dc:	13200003 	beqz	t9,800005ec <deregister_tm_clones+0x34>
800005e0:	00000000 	nop
800005e4:	03200008 	jr	t9
800005e8:	00000000 	nop
800005ec:	03e00008 	jr	ra
800005f0:	00000000 	nop

800005f4 <register_tm_clones>:
800005f4:	3c048000 	lui	a0,0x8000
800005f8:	3c028000 	lui	v0,0x8000
800005fc:	2484239c 	addiu	a0,a0,9116
80000600:	2442239c 	addiu	v0,v0,9116
80000604:	00441023 	subu	v0,v0,a0
80000608:	00021083 	sra	v0,v0,0x2
8000060c:	00022fc2 	srl	a1,v0,0x1f
80000610:	00a22821 	addu	a1,a1,v0
80000614:	00052843 	sra	a1,a1,0x1
80000618:	10a00006 	beqz	a1,80000634 <register_tm_clones+0x40>
8000061c:	3c190000 	lui	t9,0x0
80000620:	27390000 	addiu	t9,t9,0
80000624:	13200003 	beqz	t9,80000634 <register_tm_clones+0x40>
80000628:	00000000 	nop
8000062c:	03200008 	jr	t9
80000630:	00000000 	nop
80000634:	03e00008 	jr	ra
80000638:	00000000 	nop

8000063c <__do_global_dtors_aux>:
8000063c:	27bdffd8 	addiu	sp,sp,-40
80000640:	afb10018 	sw	s1,24(sp)
80000644:	3c118000 	lui	s1,0x8000
80000648:	afbf0024 	sw	ra,36(sp)
8000064c:	afb30020 	sw	s3,32(sp)
80000650:	afb2001c 	sw	s2,28(sp)
80000654:	afb00014 	sw	s0,20(sp)
80000658:	922223ac 	lbu	v0,9132(s1)
8000065c:	14400020 	bnez	v0,800006e0 <__do_global_dtors_aux+0xa4>
80000660:	3c028000 	lui	v0,0x8000
80000664:	3c108000 	lui	s0,0x8000
80000668:	24421a40 	addiu	v0,v0,6720
8000066c:	26101a44 	addiu	s0,s0,6724
80000670:	3c138000 	lui	s3,0x8000
80000674:	02028023 	subu	s0,s0,v0
80000678:	00409021 	move	s2,v0
8000067c:	00108083 	sra	s0,s0,0x2
80000680:	2610ffff 	addiu	s0,s0,-1
80000684:	8e6223b0 	lw	v0,9136(s3)
80000688:	0050182b 	sltu	v1,v0,s0
8000068c:	10600009 	beqz	v1,800006b4 <__do_global_dtors_aux+0x78>
80000690:	24420001 	addiu	v0,v0,1
80000694:	ae6223b0 	sw	v0,9136(s3)
80000698:	00021080 	sll	v0,v0,0x2
8000069c:	02421021 	addu	v0,s2,v0
800006a0:	8c420000 	lw	v0,0(v0)
800006a4:	0040f809 	jalr	v0
800006a8:	00000000 	nop
800006ac:	1000fff6 	b	80000688 <__do_global_dtors_aux+0x4c>
800006b0:	8e6223b0 	lw	v0,9136(s3)
800006b4:	0c00016e 	jal	800005b8 <deregister_tm_clones>
800006b8:	00000000 	nop
800006bc:	3c020000 	lui	v0,0x0
800006c0:	24420000 	addiu	v0,v0,0
800006c4:	10400005 	beqz	v0,800006dc <__do_global_dtors_aux+0xa0>
800006c8:	24020001 	li	v0,1
800006cc:	3c048000 	lui	a0,0x8000
800006d0:	0c000000 	jal	80000000 <__app_start>
800006d4:	24841a30 	addiu	a0,a0,6704
800006d8:	24020001 	li	v0,1
800006dc:	a22223ac 	sb	v0,9132(s1)
800006e0:	8fbf0024 	lw	ra,36(sp)
800006e4:	8fb30020 	lw	s3,32(sp)
800006e8:	8fb2001c 	lw	s2,28(sp)
800006ec:	8fb10018 	lw	s1,24(sp)
800006f0:	8fb00014 	lw	s0,20(sp)
800006f4:	03e00008 	jr	ra
800006f8:	27bd0028 	addiu	sp,sp,40

800006fc <frame_dummy>:
800006fc:	3c020000 	lui	v0,0x0
80000700:	27bdffe8 	addiu	sp,sp,-24
80000704:	24420000 	addiu	v0,v0,0
80000708:	10400006 	beqz	v0,80000724 <frame_dummy+0x28>
8000070c:	afbf0014 	sw	ra,20(sp)
80000710:	3c048000 	lui	a0,0x8000
80000714:	3c058000 	lui	a1,0x8000
80000718:	24841a30 	addiu	a0,a0,6704
8000071c:	0c000000 	jal	80000000 <__app_start>
80000720:	24a523b4 	addiu	a1,a1,9140
80000724:	3c048000 	lui	a0,0x8000
80000728:	24841a34 	addiu	a0,a0,6708
8000072c:	8c820000 	lw	v0,0(a0)
80000730:	10400008 	beqz	v0,80000754 <frame_dummy+0x58>
80000734:	8fbf0014 	lw	ra,20(sp)
80000738:	3c020000 	lui	v0,0x0
8000073c:	24420000 	addiu	v0,v0,0
80000740:	10400004 	beqz	v0,80000754 <frame_dummy+0x58>
80000744:	00000000 	nop
80000748:	0040f809 	jalr	v0
8000074c:	00000000 	nop
80000750:	8fbf0014 	lw	ra,20(sp)
80000754:	0800017d 	j	800005f4 <register_tm_clones>
80000758:	27bd0018 	addiu	sp,sp,24

8000075c <main>:
8000075c:	3c03bf30 	lui	v1,0xbf30
80000760:	3c05bf80 	lui	a1,0xbf80
80000764:	24a90008 	addiu	t1,a1,8
80000768:	24080005 	li	t0,5
8000076c:	24040001 	li	a0,1
80000770:	24a7000c 	addiu	a3,a1,12
80000774:	24060003 	li	a2,3
80000778:	ac690000 	sw	t1,0(v1)
8000077c:	ac650004 	sw	a1,4(v1)
80000780:	ac680008 	sw	t0,8(v1)
80000784:	24620012 	addiu	v0,v1,18
80000788:	a8640015 	swl	a0,21(v1)
8000078c:	b8440000 	swr	a0,0(v0)
80000790:	a8400003 	swl	zero,3(v0)
80000794:	b8400000 	swr	zero,0(v0)
80000798:	ac670000 	sw	a3,0(v1)
8000079c:	ac650004 	sw	a1,4(v1)
800007a0:	ac660008 	sw	a2,8(v1)
800007a4:	a8440003 	swl	a0,3(v0)
800007a8:	b8440000 	swr	a0,0(v0)
800007ac:	1000fff2 	b	80000778 <main+0x1c>
800007b0:	00000000 	nop

800007b4 <_mips_handle_exception>:
800007b4:	34038001 	li	v1,0x8001
800007b8:	3c02bf80 	lui	v0,0xbf80
800007bc:	ac430000 	sw	v1,0(v0)
800007c0:	1000ffff 	b	800007c0 <_mips_handle_exception+0xc>
800007c4:	00000000 	nop

800007c8 <__do_global_ctors_aux>:
800007c8:	27bdffe0 	addiu	sp,sp,-32
800007cc:	afb00014 	sw	s0,20(sp)
800007d0:	3c108000 	lui	s0,0x8000
800007d4:	afb10018 	sw	s1,24(sp)
800007d8:	2411ffff 	li	s1,-1
800007dc:	26101a38 	addiu	s0,s0,6712
800007e0:	afbf001c 	sw	ra,28(sp)
800007e4:	8e020000 	lw	v0,0(s0)
800007e8:	10510005 	beq	v0,s1,80000800 <__do_global_ctors_aux+0x38>
800007ec:	8fbf001c 	lw	ra,28(sp)
800007f0:	0040f809 	jalr	v0
800007f4:	2610fffc 	addiu	s0,s0,-4
800007f8:	1000fffb 	b	800007e8 <__do_global_ctors_aux+0x20>
800007fc:	8e020000 	lw	v0,0(s0)
80000800:	8fb10018 	lw	s1,24(sp)
80000804:	8fb00014 	lw	s0,20(sp)
80000808:	03e00008 	jr	ra
8000080c:	27bd0020 	addiu	sp,sp,32

80000810 <atexit>:
80000810:	27bdffe8 	addiu	sp,sp,-24
80000814:	00802821 	move	a1,a0
80000818:	00003021 	move	a2,zero
8000081c:	afbf0014 	sw	ra,20(sp)
80000820:	00002021 	move	a0,zero
80000824:	0c00021d 	jal	80000874 <__register_exitproc>
80000828:	00003821 	move	a3,zero
8000082c:	8fbf0014 	lw	ra,20(sp)
80000830:	03e00008 	jr	ra
80000834:	27bd0018 	addiu	sp,sp,24

80000838 <exit>:
80000838:	27bdffe8 	addiu	sp,sp,-24
8000083c:	00002821 	move	a1,zero
80000840:	afb00010 	sw	s0,16(sp)
80000844:	afbf0014 	sw	ra,20(sp)
80000848:	0c00025f 	jal	8000097c <__call_exitprocs>
8000084c:	00808021 	move	s0,a0
80000850:	3c028000 	lui	v0,0x8000
80000854:	8c4423a4 	lw	a0,9124(v0)
80000858:	8c82003c 	lw	v0,60(a0)
8000085c:	10400003 	beqz	v0,8000086c <exit+0x34>
80000860:	00000000 	nop
80000864:	0040f809 	jalr	v0
80000868:	00000000 	nop
8000086c:	0c00015e 	jal	80000578 <_exit>
80000870:	02002021 	move	a0,s0

80000874 <__register_exitproc>:
80000874:	3c028000 	lui	v0,0x8000
80000878:	27bdffd8 	addiu	sp,sp,-40
8000087c:	afb00010 	sw	s0,16(sp)
80000880:	8c5023a4 	lw	s0,9124(v0)
80000884:	afb40020 	sw	s4,32(sp)
80000888:	00c0a021 	move	s4,a2
8000088c:	afb3001c 	sw	s3,28(sp)
80000890:	00e09821 	move	s3,a3
80000894:	afb20018 	sw	s2,24(sp)
80000898:	00a09021 	move	s2,a1
8000089c:	afb10014 	sw	s1,20(sp)
800008a0:	afbf0024 	sw	ra,36(sp)
800008a4:	8e020148 	lw	v0,328(s0)
800008a8:	14400003 	bnez	v0,800008b8 <__register_exitproc+0x44>
800008ac:	00808821 	move	s1,a0
800008b0:	2602014c 	addiu	v0,s0,332
800008b4:	ae020148 	sw	v0,328(s0)
800008b8:	8c430004 	lw	v1,4(v0)
800008bc:	28630020 	slti	v1,v1,32
800008c0:	1460000f 	bnez	v1,80000900 <__register_exitproc+0x8c>
800008c4:	00000000 	nop
800008c8:	3c020000 	lui	v0,0x0
800008cc:	24420000 	addiu	v0,v0,0
800008d0:	10400022 	beqz	v0,8000095c <__register_exitproc+0xe8>
800008d4:	2402ffff 	li	v0,-1
800008d8:	0c000000 	jal	80000000 <__app_start>
800008dc:	24040190 	li	a0,400
800008e0:	5040001e 	beqzl	v0,8000095c <__register_exitproc+0xe8>
800008e4:	2402ffff 	li	v0,-1
800008e8:	8e030148 	lw	v1,328(s0)
800008ec:	ac400004 	sw	zero,4(v0)
800008f0:	ac430000 	sw	v1,0(v0)
800008f4:	ae020148 	sw	v0,328(s0)
800008f8:	ac400188 	sw	zero,392(v0)
800008fc:	ac40018c 	sw	zero,396(v0)
80000900:	1220000f 	beqz	s1,80000940 <__register_exitproc+0xcc>
80000904:	8c430004 	lw	v1,4(v0)
80000908:	00034080 	sll	t0,v1,0x2
8000090c:	24060001 	li	a2,1
80000910:	00484021 	addu	t0,v0,t0
80000914:	00663004 	sllv	a2,a2,v1
80000918:	ad140088 	sw	s4,136(t0)
8000091c:	24040002 	li	a0,2
80000920:	8c490188 	lw	t1,392(v0)
80000924:	01264825 	or	t1,t1,a2
80000928:	ac490188 	sw	t1,392(v0)
8000092c:	16240004 	bne	s1,a0,80000940 <__register_exitproc+0xcc>
80000930:	ad130108 	sw	s3,264(t0)
80000934:	8c44018c 	lw	a0,396(v0)
80000938:	00863025 	or	a2,a0,a2
8000093c:	ac46018c 	sw	a2,396(v0)
80000940:	24640001 	addiu	a0,v1,1
80000944:	24630002 	addiu	v1,v1,2
80000948:	00031880 	sll	v1,v1,0x2
8000094c:	ac440004 	sw	a0,4(v0)
80000950:	00431021 	addu	v0,v0,v1
80000954:	ac520000 	sw	s2,0(v0)
80000958:	00001021 	move	v0,zero
8000095c:	8fbf0024 	lw	ra,36(sp)
80000960:	8fb40020 	lw	s4,32(sp)
80000964:	8fb3001c 	lw	s3,28(sp)
80000968:	8fb20018 	lw	s2,24(sp)
8000096c:	8fb10014 	lw	s1,20(sp)
80000970:	8fb00010 	lw	s0,16(sp)
80000974:	03e00008 	jr	ra
80000978:	27bd0028 	addiu	sp,sp,40

8000097c <__call_exitprocs>:
8000097c:	3c028000 	lui	v0,0x8000
80000980:	27bdffc0 	addiu	sp,sp,-64
80000984:	8c4223a4 	lw	v0,9124(v0)
80000988:	afb30024 	sw	s3,36(sp)
8000098c:	3c130000 	lui	s3,0x0
80000990:	afb70034 	sw	s7,52(sp)
80000994:	24170001 	li	s7,1
80000998:	26730000 	addiu	s3,s3,0
8000099c:	afb60030 	sw	s6,48(sp)
800009a0:	afb40028 	sw	s4,40(sp)
800009a4:	0080b021 	move	s6,a0
800009a8:	afbf003c 	sw	ra,60(sp)
800009ac:	00a0a021 	move	s4,a1
800009b0:	afbe0038 	sw	s8,56(sp)
800009b4:	afb5002c 	sw	s5,44(sp)
800009b8:	afb20020 	sw	s2,32(sp)
800009bc:	afb1001c 	sw	s1,28(sp)
800009c0:	afb00018 	sw	s0,24(sp)
800009c4:	afa20010 	sw	v0,16(sp)
800009c8:	8fa20010 	lw	v0,16(sp)
800009cc:	24520148 	addiu	s2,v0,328
800009d0:	8c500148 	lw	s0,328(v0)
800009d4:	1200003e 	beqz	s0,80000ad0 <__call_exitprocs+0x154>
800009d8:	8fbf003c 	lw	ra,60(sp)
800009dc:	8e110004 	lw	s1,4(s0)
800009e0:	2635ffff 	addiu	s5,s1,-1
800009e4:	00118880 	sll	s1,s1,0x2
800009e8:	02118821 	addu	s1,s0,s1
800009ec:	06a0001e 	bltz	s5,80000a68 <__call_exitprocs+0xec>
800009f0:	00000000 	nop
800009f4:	52800005 	beqzl	s4,80000a0c <__call_exitprocs+0x90>
800009f8:	8e040004 	lw	a0,4(s0)
800009fc:	8e230104 	lw	v1,260(s1)
80000a00:	54740017 	bnel	v1,s4,80000a60 <__call_exitprocs+0xe4>
80000a04:	26b5ffff 	addiu	s5,s5,-1
80000a08:	8e040004 	lw	a0,4(s0)
80000a0c:	2484ffff 	addiu	a0,a0,-1
80000a10:	16a40003 	bne	s5,a0,80000a20 <__call_exitprocs+0xa4>
80000a14:	8e230004 	lw	v1,4(s1)
80000a18:	10000002 	b	80000a24 <__call_exitprocs+0xa8>
80000a1c:	ae150004 	sw	s5,4(s0)
80000a20:	ae200004 	sw	zero,4(s1)
80000a24:	1060000d 	beqz	v1,80000a5c <__call_exitprocs+0xe0>
80000a28:	02b72004 	sllv	a0,s7,s5
80000a2c:	8e050188 	lw	a1,392(s0)
80000a30:	00852824 	and	a1,a0,a1
80000a34:	14a0001a 	bnez	a1,80000aa0 <__call_exitprocs+0x124>
80000a38:	8e1e0004 	lw	s8,4(s0)
80000a3c:	0060f809 	jalr	v1
80000a40:	00000000 	nop
80000a44:	8e030004 	lw	v1,4(s0)
80000a48:	17c3ffe0 	bne	s8,v1,800009cc <__call_exitprocs+0x50>
80000a4c:	8fa20010 	lw	v0,16(sp)
80000a50:	8e430000 	lw	v1,0(s2)
80000a54:	5470ffde 	bnel	v1,s0,800009d0 <__call_exitprocs+0x54>
80000a58:	24520148 	addiu	s2,v0,328
80000a5c:	26b5ffff 	addiu	s5,s5,-1
80000a60:	1000ffe2 	b	800009ec <__call_exitprocs+0x70>
80000a64:	2631fffc 	addiu	s1,s1,-4
80000a68:	12600019 	beqz	s3,80000ad0 <__call_exitprocs+0x154>
80000a6c:	8fbf003c 	lw	ra,60(sp)
80000a70:	8e030004 	lw	v1,4(s0)
80000a74:	14600007 	bnez	v1,80000a94 <__call_exitprocs+0x118>
80000a78:	8e020000 	lw	v0,0(s0)
80000a7c:	10400005 	beqz	v0,80000a94 <__call_exitprocs+0x118>
80000a80:	02002021 	move	a0,s0
80000a84:	0c000000 	jal	80000000 <__app_start>
80000a88:	ae420000 	sw	v0,0(s2)
80000a8c:	1000ffd1 	b	800009d4 <__call_exitprocs+0x58>
80000a90:	8e500000 	lw	s0,0(s2)
80000a94:	02009021 	move	s2,s0
80000a98:	1000ffce 	b	800009d4 <__call_exitprocs+0x58>
80000a9c:	00408021 	move	s0,v0
80000aa0:	8e06018c 	lw	a2,396(s0)
80000aa4:	00863024 	and	a2,a0,a2
80000aa8:	14c00005 	bnez	a2,80000ac0 <__call_exitprocs+0x144>
80000aac:	8e250084 	lw	a1,132(s1)
80000ab0:	0060f809 	jalr	v1
80000ab4:	02c02021 	move	a0,s6
80000ab8:	1000ffe3 	b	80000a48 <__call_exitprocs+0xcc>
80000abc:	8e030004 	lw	v1,4(s0)
80000ac0:	0060f809 	jalr	v1
80000ac4:	00a02021 	move	a0,a1
80000ac8:	1000ffdf 	b	80000a48 <__call_exitprocs+0xcc>
80000acc:	8e030004 	lw	v1,4(s0)
80000ad0:	8fbe0038 	lw	s8,56(sp)
80000ad4:	8fb70034 	lw	s7,52(sp)
80000ad8:	8fb60030 	lw	s6,48(sp)
80000adc:	8fb5002c 	lw	s5,44(sp)
80000ae0:	8fb40028 	lw	s4,40(sp)
80000ae4:	8fb30024 	lw	s3,36(sp)
80000ae8:	8fb20020 	lw	s2,32(sp)
80000aec:	8fb1001c 	lw	s1,28(sp)
80000af0:	8fb00018 	lw	s0,24(sp)
80000af4:	03e00008 	jr	ra
80000af8:	27bd0040 	addiu	sp,sp,64

80000afc <__exit>:
80000afc:	27bdffd8 	addiu	sp,sp,-40
80000b00:	afb2001c 	sw	s2,28(sp)
80000b04:	3c128000 	lui	s2,0x8000
80000b08:	afb10018 	sw	s1,24(sp)
80000b0c:	3c118000 	lui	s1,0x8000
80000b10:	afb00014 	sw	s0,20(sp)
80000b14:	3c100000 	lui	s0,0x0
80000b18:	263116b0 	addiu	s1,s1,5808
80000b1c:	afb30020 	sw	s3,32(sp)
80000b20:	26100001 	addiu	s0,s0,1
80000b24:	afbf0024 	sw	ra,36(sp)
80000b28:	26521558 	addiu	s2,s2,5464
80000b2c:	00809821 	move	s3,a0
80000b30:	02602021 	move	a0,s3
80000b34:	24190001 	li	t9,1
80000b38:	24020001 	li	v0,1
80000b3c:	0000004c 	syscall	0x1
80000b40:	24020002 	li	v0,2
80000b44:	16020005 	bne	s0,v0,80000b5c <__exit+0x60>
80000b48:	24020001 	li	v0,1
80000b4c:	1240fff9 	beqz	s2,80000b34 <__exit+0x38>
80000b50:	02602021 	move	a0,s3
80000b54:	0c000556 	jal	80001558 <__return_to_boot>
80000b58:	02602021 	move	a0,s3
80000b5c:	1602fff5 	bne	s0,v0,80000b34 <__exit+0x38>
80000b60:	02602021 	move	a0,s3
80000b64:	1220fff4 	beqz	s1,80000b38 <__exit+0x3c>
80000b68:	24190001 	li	t9,1
80000b6c:	0c0005ac 	jal	800016b0 <__get_startup_BEV>
80000b70:	00000000 	nop
80000b74:	1040fff5 	beqz	v0,80000b4c <__exit+0x50>
80000b78:	02602021 	move	a0,s3
80000b7c:	1000ffee 	b	80000b38 <__exit+0x3c>
80000b80:	24190001 	li	t9,1

80000b84 <__getargs>:
80000b84:	00004021 	move	t0,zero
80000b88:	00004821 	move	t1,zero
80000b8c:	24190009 	li	t9,9
80000b90:	24020001 	li	v0,1
80000b94:	0000004c 	syscall	0x1
80000b98:	18400022 	blez	v0,80000c24 <__getargs+0xa0>
80000b9c:	00000000 	nop
80000ba0:	00404021 	move	t0,v0
80000ba4:	00085880 	sll	t3,t0,0x2
80000ba8:	256b0007 	addiu	t3,t3,7
80000bac:	2401fff8 	li	at,-8
80000bb0:	01615824 	and	t3,t3,at
80000bb4:	03abe823 	subu	sp,sp,t3
80000bb8:	03a04821 	move	t1,sp
80000bbc:	00005021 	move	t2,zero
80000bc0:	2419000a 	li	t9,10
80000bc4:	24020001 	li	v0,1
80000bc8:	01402021 	move	a0,t2
80000bcc:	0000004c 	syscall	0x1
80000bd0:	18400014 	blez	v0,80000c24 <__getargs+0xa0>
80000bd4:	00000000 	nop
80000bd8:	24420001 	addiu	v0,v0,1
80000bdc:	24420007 	addiu	v0,v0,7
80000be0:	2401fff8 	li	at,-8
80000be4:	00411024 	and	v0,v0,at
80000be8:	03a2e823 	subu	sp,sp,v0
80000bec:	000a5880 	sll	t3,t2,0x2
80000bf0:	01695821 	addu	t3,t3,t1
80000bf4:	ad7d0000 	sw	sp,0(t3)
80000bf8:	2419000b 	li	t9,11
80000bfc:	24020001 	li	v0,1
80000c00:	01402021 	move	a0,t2
80000c04:	03a02821 	move	a1,sp
80000c08:	0000004c 	syscall	0x1
80000c0c:	04400005 	bltz	v0,80000c24 <__getargs+0xa0>
80000c10:	00000000 	nop
80000c14:	254a0001 	addiu	t2,t2,1
80000c18:	0148102a 	slt	v0,t2,t0
80000c1c:	1440ffe8 	bnez	v0,80000bc0 <__getargs+0x3c>
80000c20:	00000000 	nop
80000c24:	01002021 	move	a0,t0
80000c28:	01202821 	move	a1,t1
80000c2c:	27bdffe0 	addiu	sp,sp,-32
80000c30:	27a60010 	addiu	a2,sp,16
80000c34:	03e00008 	jr	ra
80000c38:	acc00000 	sw	zero,0(a2)

80000c3c <_get_ram_range>:
80000c3c:	3c030002 	lui	v1,0x2
80000c40:	00803021 	move	a2,a0
80000c44:	2463f800 	addiu	v1,v1,-2048
80000c48:	00a03821 	move	a3,a1
80000c4c:	2419000c 	li	t9,12
80000c50:	10600007 	beqz	v1,80000c70 <_get_ram_range+0x34>
80000c54:	24020001 	li	v0,1
80000c58:	3c028000 	lui	v0,0x8000
80000c5c:	10800002 	beqz	a0,80000c68 <_get_ram_range+0x2c>
80000c60:	24420000 	addiu	v0,v0,0
80000c64:	ac820000 	sw	v0,0(a0)
80000c68:	10000004 	b	80000c7c <_get_ram_range+0x40>
80000c6c:	00621821 	addu	v1,v1,v0
80000c70:	0000004c 	syscall	0x1
80000c74:	54c00001 	bnezl	a2,80000c7c <_get_ram_range+0x40>
80000c78:	acc20000 	sw	v0,0(a2)
80000c7c:	03e00008 	jr	ra
80000c80:	ace30000 	sw	v1,0(a3)

80000c84 <putsnds.constprop.0>:
80000c84:	27bdffd8 	addiu	sp,sp,-40
80000c88:	afb20020 	sw	s2,32(sp)
80000c8c:	00a09021 	move	s2,a1
80000c90:	afb1001c 	sw	s1,28(sp)
80000c94:	00808821 	move	s1,a0
80000c98:	afb00018 	sw	s0,24(sp)
80000c9c:	00c08021 	move	s0,a2
80000ca0:	10800007 	beqz	a0,80000cc0 <putsnds.constprop.0+0x3c>
80000ca4:	afbf0024 	sw	ra,36(sp)
80000ca8:	0c0005d6 	jal	80001758 <strlen>
80000cac:	00000000 	nop
80000cb0:	24040001 	li	a0,1
80000cb4:	02202821 	move	a1,s1
80000cb8:	0c0005dd 	jal	80001774 <write>
80000cbc:	00403021 	move	a2,v0
80000cc0:	3c048000 	lui	a0,0x8000
80000cc4:	00001821 	move	v1,zero
80000cc8:	24841adc 	addiu	a0,a0,6876
80000ccc:	24060008 	li	a2,8
80000cd0:	00031023 	negu	v0,v1
80000cd4:	27a50010 	addiu	a1,sp,16
80000cd8:	00021080 	sll	v0,v0,0x2
80000cdc:	24630001 	addiu	v1,v1,1
80000ce0:	2442001c 	addiu	v0,v0,28
80000ce4:	00a33821 	addu	a3,a1,v1
80000ce8:	00521006 	srlv	v0,s2,v0
80000cec:	3042000f 	andi	v0,v0,0xf
80000cf0:	00441021 	addu	v0,v0,a0
80000cf4:	90420000 	lbu	v0,0(v0)
80000cf8:	1466fff5 	bne	v1,a2,80000cd0 <putsnds.constprop.0+0x4c>
80000cfc:	a0e2ffff 	sb	v0,-1(a3)
80000d00:	24040001 	li	a0,1
80000d04:	0c0005dd 	jal	80001774 <write>
80000d08:	24060008 	li	a2,8
80000d0c:	12000008 	beqz	s0,80000d30 <putsnds.constprop.0+0xac>
80000d10:	8fbf0024 	lw	ra,36(sp)
80000d14:	0c0005d6 	jal	80001758 <strlen>
80000d18:	02002021 	move	a0,s0
80000d1c:	24040001 	li	a0,1
80000d20:	02002821 	move	a1,s0
80000d24:	0c0005dd 	jal	80001774 <write>
80000d28:	00403021 	move	a2,v0
80000d2c:	8fbf0024 	lw	ra,36(sp)
80000d30:	8fb20020 	lw	s2,32(sp)
80000d34:	8fb1001c 	lw	s1,28(sp)
80000d38:	8fb00018 	lw	s0,24(sp)
80000d3c:	03e00008 	jr	ra
80000d40:	27bd0028 	addiu	sp,sp,40

80000d44 <putsns>:
80000d44:	08000321 	j	80000c84 <putsnds.constprop.0>
80000d48:	00000000 	nop

80000d4c <__exception_handle_verbose>:
80000d4c:	24a2ffff 	addiu	v0,a1,-1
80000d50:	27bdffe0 	addiu	sp,sp,-32
80000d54:	2c43001e 	sltiu	v1,v0,30
80000d58:	afb00010 	sw	s0,16(sp)
80000d5c:	00808021 	move	s0,a0
80000d60:	afbf001c 	sw	ra,28(sp)
80000d64:	afb20018 	sw	s2,24(sp)
80000d68:	106000d5 	beqz	v1,800010c0 <__exception_handle_verbose+0x374>
80000d6c:	afb10014 	sw	s1,20(sp)
80000d70:	00021880 	sll	v1,v0,0x2
80000d74:	3c028000 	lui	v0,0x8000
80000d78:	24421a60 	addiu	v0,v0,6752
80000d7c:	00431021 	addu	v0,v0,v1
80000d80:	8c420000 	lw	v0,0(v0)
80000d84:	00400008 	jr	v0
80000d88:	00000000 	nop
80000d8c:	3c058000 	lui	a1,0x8000
80000d90:	24040001 	li	a0,1
80000d94:	100000a5 	b	8000102c <__exception_handle_verbose+0x2e0>
80000d98:	24a51af0 	addiu	a1,a1,6896
80000d9c:	3c048000 	lui	a0,0x8000
80000da0:	10000006 	b	80000dbc <__exception_handle_verbose+0x70>
80000da4:	24841b0c 	addiu	a0,a0,6924
80000da8:	3c048000 	lui	a0,0x8000
80000dac:	10000003 	b	80000dbc <__exception_handle_verbose+0x70>
80000db0:	24841b28 	addiu	a0,a0,6952
80000db4:	3c048000 	lui	a0,0x8000
80000db8:	24841b44 	addiu	a0,a0,6980
80000dbc:	8e050080 	lw	a1,128(s0)
80000dc0:	0c000351 	jal	80000d44 <putsns>
80000dc4:	00003021 	move	a2,zero
80000dc8:	3c048000 	lui	a0,0x8000
80000dcc:	100000a6 	b	80001068 <__exception_handle_verbose+0x31c>
80000dd0:	24841d18 	addiu	a0,a0,7448
80000dd4:	3c048000 	lui	a0,0x8000
80000dd8:	1000fff8 	b	80000dbc <__exception_handle_verbose+0x70>
80000ddc:	24841b64 	addiu	a0,a0,7012
80000de0:	3c058000 	lui	a1,0x8000
80000de4:	24040001 	li	a0,1
80000de8:	24a51b84 	addiu	a1,a1,7044
80000dec:	24060016 	li	a2,22
80000df0:	0c0005dd 	jal	80001774 <write>
80000df4:	3c118000 	lui	s1,0x8000
80000df8:	100000b8 	b	800010dc <__exception_handle_verbose+0x390>
80000dfc:	3c048000 	lui	a0,0x8000
80000e00:	3c058000 	lui	a1,0x8000
80000e04:	24040001 	li	a0,1
80000e08:	24a51b9c 	addiu	a1,a1,7068
80000e0c:	1000fff8 	b	80000df0 <__exception_handle_verbose+0xa4>
80000e10:	2406000f 	li	a2,15
80000e14:	8c830060 	lw	v1,96(a0)
80000e18:	24020017 	li	v0,23
80000e1c:	14620014 	bne	v1,v0,80000e70 <__exception_handle_verbose+0x124>
80000e20:	3c020000 	lui	v0,0x0
80000e24:	8c83000c 	lw	v1,12(a0)
80000e28:	24020001 	li	v0,1
80000e2c:	14620005 	bne	v1,v0,80000e44 <__exception_handle_verbose+0xf8>
80000e30:	24040001 	li	a0,1
80000e34:	3c058000 	lui	a1,0x8000
80000e38:	2406001d 	li	a2,29
80000e3c:	10000004 	b	80000e50 <__exception_handle_verbose+0x104>
80000e40:	24a51bac 	addiu	a1,a1,7084
80000e44:	3c058000 	lui	a1,0x8000
80000e48:	2406001b 	li	a2,27
80000e4c:	24a51bcc 	addiu	a1,a1,7116
80000e50:	0c0005dd 	jal	80001774 <write>
80000e54:	00000000 	nop
80000e58:	3c028000 	lui	v0,0x8000
80000e5c:	24420afc 	addiu	v0,v0,2812
80000e60:	ae02007c 	sw	v0,124(s0)
80000e64:	240200ff 	li	v0,255
80000e68:	10000169 	b	80001410 <__exception_handle_verbose+0x6c4>
80000e6c:	ae02000c 	sw	v0,12(s0)
80000e70:	24030002 	li	v1,2
80000e74:	24420001 	addiu	v0,v0,1
80000e78:	14430009 	bne	v0,v1,80000ea0 <__exception_handle_verbose+0x154>
80000e7c:	24030001 	li	v1,1
80000e80:	3c028000 	lui	v0,0x8000
80000e84:	244215f8 	addiu	v0,v0,5624
80000e88:	1040000e 	beqz	v0,80000ec4 <__exception_handle_verbose+0x178>
80000e8c:	00000000 	nop
80000e90:	0c00057e 	jal	800015f8 <__chain_uhi_excpt>
80000e94:	02002021 	move	a0,s0
80000e98:	1000015e 	b	80001414 <__exception_handle_verbose+0x6c8>
80000e9c:	8fbf001c 	lw	ra,28(sp)
80000ea0:	14430008 	bne	v0,v1,80000ec4 <__exception_handle_verbose+0x178>
80000ea4:	3c028000 	lui	v0,0x8000
80000ea8:	244216b0 	addiu	v0,v0,5808
80000eac:	10400005 	beqz	v0,80000ec4 <__exception_handle_verbose+0x178>
80000eb0:	00000000 	nop
80000eb4:	0c0005ac 	jal	800016b0 <__get_startup_BEV>
80000eb8:	00000000 	nop
80000ebc:	1040fff1 	beqz	v0,80000e84 <__exception_handle_verbose+0x138>
80000ec0:	3c028000 	lui	v0,0x8000
80000ec4:	0c0005f6 	jal	800017d8 <__uhi_indirect>
80000ec8:	02002021 	move	a0,s0
80000ecc:	10000151 	b	80001414 <__exception_handle_verbose+0x6c8>
80000ed0:	8fbf001c 	lw	ra,28(sp)
80000ed4:	3c048000 	lui	a0,0x8000
80000ed8:	10000063 	b	80001068 <__exception_handle_verbose+0x31c>
80000edc:	24841be8 	addiu	a0,a0,7144
80000ee0:	3c048000 	lui	a0,0x8000
80000ee4:	10000060 	b	80001068 <__exception_handle_verbose+0x31c>
80000ee8:	24841bf8 	addiu	a0,a0,7160
80000eec:	3c048000 	lui	a0,0x8000
80000ef0:	1000005d 	b	80001068 <__exception_handle_verbose+0x31c>
80000ef4:	24841c10 	addiu	a0,a0,7184
80000ef8:	3c058000 	lui	a1,0x8000
80000efc:	24040001 	li	a0,1
80000f00:	24a51c2c 	addiu	a1,a1,7212
80000f04:	1000ffba 	b	80000df0 <__exception_handle_verbose+0xa4>
80000f08:	24060009 	li	a2,9
80000f0c:	3c058000 	lui	a1,0x8000
80000f10:	24040001 	li	a0,1
80000f14:	24a51c38 	addiu	a1,a1,7224
80000f18:	1000ffb5 	b	80000df0 <__exception_handle_verbose+0xa4>
80000f1c:	24060005 	li	a2,5
80000f20:	3c020000 	lui	v0,0x0
80000f24:	24420001 	addiu	v0,v0,1
80000f28:	10400012 	beqz	v0,80000f74 <__exception_handle_verbose+0x228>
80000f2c:	3c058000 	lui	a1,0x8000
80000f30:	787e0899 	cfcmsa	v0,msa_csr
80000f34:	7c420440 	ext	v0,v0,0x11,0x1
80000f38:	1040000e 	beqz	v0,80000f74 <__exception_handle_verbose+0x228>
80000f3c:	3c058000 	lui	a1,0x8000
80000f40:	787e08d9 	cfcmsa	v1,msa_csr
80000f44:	3c050100 	lui	a1,0x100
80000f48:	00651824 	and	v1,v1,a1
80000f4c:	54600009 	bnezl	v1,80000f74 <__exception_handle_verbose+0x228>
80000f50:	3c058000 	lui	a1,0x8000
80000f54:	787e0899 	cfcmsa	v0,msa_csr
80000f58:	3c04fffd 	lui	a0,0xfffd
80000f5c:	3484ffff 	ori	a0,a0,0xffff
80000f60:	00441024 	and	v0,v0,a0
80000f64:	00451025 	or	v0,v0,a1
80000f68:	783e1059 	ctcmsa	msa_csr,v0
80000f6c:	10000129 	b	80001414 <__exception_handle_verbose+0x6c8>
80000f70:	8fbf001c 	lw	ra,28(sp)
80000f74:	24040001 	li	a0,1
80000f78:	24a51c40 	addiu	a1,a1,7232
80000f7c:	1000ff9c 	b	80000df0 <__exception_handle_verbose+0xa4>
80000f80:	24060019 	li	a2,25
80000f84:	3c020000 	lui	v0,0x0
80000f88:	24420001 	addiu	v0,v0,1
80000f8c:	10400012 	beqz	v0,80000fd8 <__exception_handle_verbose+0x28c>
80000f90:	3c058000 	lui	a1,0x8000
80000f94:	4442f800 	cfc1	v0,c1_fcsr
80000f98:	7c420440 	ext	v0,v0,0x11,0x1
80000f9c:	1040000e 	beqz	v0,80000fd8 <__exception_handle_verbose+0x28c>
80000fa0:	3c058000 	lui	a1,0x8000
80000fa4:	4443f800 	cfc1	v1,c1_fcsr
80000fa8:	3c050100 	lui	a1,0x100
80000fac:	00651824 	and	v1,v1,a1
80000fb0:	54600009 	bnezl	v1,80000fd8 <__exception_handle_verbose+0x28c>
80000fb4:	3c058000 	lui	a1,0x8000
80000fb8:	4442f800 	cfc1	v0,c1_fcsr
80000fbc:	3c04fffd 	lui	a0,0xfffd
80000fc0:	3484ffff 	ori	a0,a0,0xffff
80000fc4:	00441024 	and	v0,v0,a0
80000fc8:	00451025 	or	v0,v0,a1
80000fcc:	44c2f800 	ctc1	v0,c1_fcsr
80000fd0:	10000110 	b	80001414 <__exception_handle_verbose+0x6c8>
80000fd4:	8fbf001c 	lw	ra,28(sp)
80000fd8:	24040001 	li	a0,1
80000fdc:	24a51c44 	addiu	a1,a1,7236
80000fe0:	1000ff83 	b	80000df0 <__exception_handle_verbose+0xa4>
80000fe4:	24060015 	li	a2,21
80000fe8:	3c058000 	lui	a1,0x8000
80000fec:	24040001 	li	a0,1
80000ff0:	10000004 	b	80001004 <__exception_handle_verbose+0x2b8>
80000ff4:	24a51c5c 	addiu	a1,a1,7260
80000ff8:	3c058000 	lui	a1,0x8000
80000ffc:	24040001 	li	a0,1
80001000:	24a51c84 	addiu	a1,a1,7300
80001004:	1000ff7a 	b	80000df0 <__exception_handle_verbose+0xa4>
80001008:	24060027 	li	a2,39
8000100c:	3c058000 	lui	a1,0x8000
80001010:	24040001 	li	a0,1
80001014:	24a51cac 	addiu	a1,a1,7340
80001018:	1000ff75 	b	80000df0 <__exception_handle_verbose+0xa4>
8000101c:	24060020 	li	a2,32
80001020:	3c058000 	lui	a1,0x8000
80001024:	24040001 	li	a0,1
80001028:	24a51cd0 	addiu	a1,a1,7376
8000102c:	1000ff70 	b	80000df0 <__exception_handle_verbose+0xa4>
80001030:	2406001b 	li	a2,27
80001034:	3c058000 	lui	a1,0x8000
80001038:	24040001 	li	a0,1
8000103c:	24a51cec 	addiu	a1,a1,7404
80001040:	1000ff6b 	b	80000df0 <__exception_handle_verbose+0xa4>
80001044:	2406001e 	li	a2,30
80001048:	3c048000 	lui	a0,0x8000
8000104c:	10000006 	b	80001068 <__exception_handle_verbose+0x31c>
80001050:	24841d0c 	addiu	a0,a0,7436
80001054:	3c048000 	lui	a0,0x8000
80001058:	10000003 	b	80001068 <__exception_handle_verbose+0x31c>
8000105c:	24841d20 	addiu	a0,a0,7456
80001060:	3c048000 	lui	a0,0x8000
80001064:	24841d34 	addiu	a0,a0,7476
80001068:	10000017 	b	800010c8 <__exception_handle_verbose+0x37c>
8000106c:	8e05007c 	lw	a1,124(s0)
80001070:	3c058000 	lui	a1,0x8000
80001074:	24040001 	li	a0,1
80001078:	24a51d44 	addiu	a1,a1,7492
8000107c:	1000ff5c 	b	80000df0 <__exception_handle_verbose+0xa4>
80001080:	24060014 	li	a2,20
80001084:	3c058000 	lui	a1,0x8000
80001088:	24040001 	li	a0,1
8000108c:	24a51d5c 	addiu	a1,a1,7516
80001090:	1000ff57 	b	80000df0 <__exception_handle_verbose+0xa4>
80001094:	24060011 	li	a2,17
80001098:	3c058000 	lui	a1,0x8000
8000109c:	24040001 	li	a0,1
800010a0:	24a51d70 	addiu	a1,a1,7536
800010a4:	1000ff52 	b	80000df0 <__exception_handle_verbose+0xa4>
800010a8:	2406000d 	li	a2,13
800010ac:	3c058000 	lui	a1,0x8000
800010b0:	24040001 	li	a0,1
800010b4:	24a51d80 	addiu	a1,a1,7552
800010b8:	1000ff4d 	b	80000df0 <__exception_handle_verbose+0xa4>
800010bc:	2406000c 	li	a2,12
800010c0:	3c048000 	lui	a0,0x8000
800010c4:	24841d90 	addiu	a0,a0,7568
800010c8:	3c068000 	lui	a2,0x8000
800010cc:	0c000351 	jal	80000d44 <putsns>
800010d0:	24c61d7c 	addiu	a2,a2,7548
800010d4:	3c118000 	lui	s1,0x8000
800010d8:	3c048000 	lui	a0,0x8000
800010dc:	00002821 	move	a1,zero
800010e0:	24841da8 	addiu	a0,a0,7592
800010e4:	26261db0 	addiu	a2,s1,7600
800010e8:	0c000351 	jal	80000d44 <putsns>
800010ec:	3c128000 	lui	s2,0x8000
800010f0:	3c048000 	lui	a0,0x8000
800010f4:	8e050000 	lw	a1,0(s0)
800010f8:	26261db0 	addiu	a2,s1,7600
800010fc:	0c000351 	jal	80000d44 <putsns>
80001100:	24841db4 	addiu	a0,a0,7604
80001104:	3c048000 	lui	a0,0x8000
80001108:	8e050004 	lw	a1,4(s0)
8000110c:	26261db0 	addiu	a2,s1,7600
80001110:	0c000351 	jal	80000d44 <putsns>
80001114:	24841dbc 	addiu	a0,a0,7612
80001118:	3c048000 	lui	a0,0x8000
8000111c:	8e050008 	lw	a1,8(s0)
80001120:	26461d7c 	addiu	a2,s2,7548
80001124:	0c000351 	jal	80000d44 <putsns>
80001128:	24841dc4 	addiu	a0,a0,7620
8000112c:	3c048000 	lui	a0,0x8000
80001130:	8e05000c 	lw	a1,12(s0)
80001134:	26261db0 	addiu	a2,s1,7600
80001138:	0c000351 	jal	80000d44 <putsns>
8000113c:	24841dcc 	addiu	a0,a0,7628
80001140:	3c048000 	lui	a0,0x8000
80001144:	8e050010 	lw	a1,16(s0)
80001148:	26261db0 	addiu	a2,s1,7600
8000114c:	0c000351 	jal	80000d44 <putsns>
80001150:	24841dd4 	addiu	a0,a0,7636
80001154:	3c048000 	lui	a0,0x8000
80001158:	8e050014 	lw	a1,20(s0)
8000115c:	26261db0 	addiu	a2,s1,7600
80001160:	0c000351 	jal	80000d44 <putsns>
80001164:	24841ddc 	addiu	a0,a0,7644
80001168:	3c048000 	lui	a0,0x8000
8000116c:	8e050018 	lw	a1,24(s0)
80001170:	26461d7c 	addiu	a2,s2,7548
80001174:	0c000351 	jal	80000d44 <putsns>
80001178:	24841de4 	addiu	a0,a0,7652
8000117c:	3c048000 	lui	a0,0x8000
80001180:	8e05001c 	lw	a1,28(s0)
80001184:	26261db0 	addiu	a2,s1,7600
80001188:	0c000351 	jal	80000d44 <putsns>
8000118c:	24841dec 	addiu	a0,a0,7660
80001190:	3c048000 	lui	a0,0x8000
80001194:	8e050020 	lw	a1,32(s0)
80001198:	26261db0 	addiu	a2,s1,7600
8000119c:	0c000351 	jal	80000d44 <putsns>
800011a0:	24841df4 	addiu	a0,a0,7668
800011a4:	3c048000 	lui	a0,0x8000
800011a8:	8e050024 	lw	a1,36(s0)
800011ac:	26261db0 	addiu	a2,s1,7600
800011b0:	0c000351 	jal	80000d44 <putsns>
800011b4:	24841dfc 	addiu	a0,a0,7676
800011b8:	3c048000 	lui	a0,0x8000
800011bc:	8e050028 	lw	a1,40(s0)
800011c0:	26461d7c 	addiu	a2,s2,7548
800011c4:	0c000351 	jal	80000d44 <putsns>
800011c8:	24841e04 	addiu	a0,a0,7684
800011cc:	3c048000 	lui	a0,0x8000
800011d0:	8e05002c 	lw	a1,44(s0)
800011d4:	26261db0 	addiu	a2,s1,7600
800011d8:	0c000351 	jal	80000d44 <putsns>
800011dc:	24841e0c 	addiu	a0,a0,7692
800011e0:	3c048000 	lui	a0,0x8000
800011e4:	8e050030 	lw	a1,48(s0)
800011e8:	26261db0 	addiu	a2,s1,7600
800011ec:	0c000351 	jal	80000d44 <putsns>
800011f0:	24841e14 	addiu	a0,a0,7700
800011f4:	3c048000 	lui	a0,0x8000
800011f8:	8e050034 	lw	a1,52(s0)
800011fc:	26261db0 	addiu	a2,s1,7600
80001200:	0c000351 	jal	80000d44 <putsns>
80001204:	24841e1c 	addiu	a0,a0,7708
80001208:	3c048000 	lui	a0,0x8000
8000120c:	8e050038 	lw	a1,56(s0)
80001210:	26461d7c 	addiu	a2,s2,7548
80001214:	0c000351 	jal	80000d44 <putsns>
80001218:	24841e24 	addiu	a0,a0,7716
8000121c:	3c048000 	lui	a0,0x8000
80001220:	8e05003c 	lw	a1,60(s0)
80001224:	26261db0 	addiu	a2,s1,7600
80001228:	0c000351 	jal	80000d44 <putsns>
8000122c:	24841e2c 	addiu	a0,a0,7724
80001230:	3c048000 	lui	a0,0x8000
80001234:	8e050040 	lw	a1,64(s0)
80001238:	26261db0 	addiu	a2,s1,7600
8000123c:	0c000351 	jal	80000d44 <putsns>
80001240:	24841e34 	addiu	a0,a0,7732
80001244:	3c048000 	lui	a0,0x8000
80001248:	8e050044 	lw	a1,68(s0)
8000124c:	26261db0 	addiu	a2,s1,7600
80001250:	0c000351 	jal	80000d44 <putsns>
80001254:	24841e3c 	addiu	a0,a0,7740
80001258:	3c048000 	lui	a0,0x8000
8000125c:	8e050048 	lw	a1,72(s0)
80001260:	26461d7c 	addiu	a2,s2,7548
80001264:	0c000351 	jal	80000d44 <putsns>
80001268:	24841e44 	addiu	a0,a0,7748
8000126c:	3c048000 	lui	a0,0x8000
80001270:	8e05004c 	lw	a1,76(s0)
80001274:	26261db0 	addiu	a2,s1,7600
80001278:	0c000351 	jal	80000d44 <putsns>
8000127c:	24841e4c 	addiu	a0,a0,7756
80001280:	3c048000 	lui	a0,0x8000
80001284:	8e050050 	lw	a1,80(s0)
80001288:	26261db0 	addiu	a2,s1,7600
8000128c:	0c000351 	jal	80000d44 <putsns>
80001290:	24841e54 	addiu	a0,a0,7764
80001294:	3c048000 	lui	a0,0x8000
80001298:	8e050054 	lw	a1,84(s0)
8000129c:	26261db0 	addiu	a2,s1,7600
800012a0:	0c000351 	jal	80000d44 <putsns>
800012a4:	24841e5c 	addiu	a0,a0,7772
800012a8:	3c048000 	lui	a0,0x8000
800012ac:	8e050058 	lw	a1,88(s0)
800012b0:	26461d7c 	addiu	a2,s2,7548
800012b4:	0c000351 	jal	80000d44 <putsns>
800012b8:	24841e64 	addiu	a0,a0,7780
800012bc:	3c048000 	lui	a0,0x8000
800012c0:	8e05005c 	lw	a1,92(s0)
800012c4:	26261db0 	addiu	a2,s1,7600
800012c8:	0c000351 	jal	80000d44 <putsns>
800012cc:	24841e6c 	addiu	a0,a0,7788
800012d0:	3c048000 	lui	a0,0x8000
800012d4:	8e050060 	lw	a1,96(s0)
800012d8:	26261db0 	addiu	a2,s1,7600
800012dc:	0c000351 	jal	80000d44 <putsns>
800012e0:	24841e74 	addiu	a0,a0,7796
800012e4:	3c048000 	lui	a0,0x8000
800012e8:	8e050064 	lw	a1,100(s0)
800012ec:	26261db0 	addiu	a2,s1,7600
800012f0:	0c000351 	jal	80000d44 <putsns>
800012f4:	24841e7c 	addiu	a0,a0,7804
800012f8:	3c048000 	lui	a0,0x8000
800012fc:	8e050068 	lw	a1,104(s0)
80001300:	26461d7c 	addiu	a2,s2,7548
80001304:	0c000351 	jal	80000d44 <putsns>
80001308:	24841e84 	addiu	a0,a0,7812
8000130c:	3c048000 	lui	a0,0x8000
80001310:	8e05006c 	lw	a1,108(s0)
80001314:	26261db0 	addiu	a2,s1,7600
80001318:	0c000351 	jal	80000d44 <putsns>
8000131c:	24841e8c 	addiu	a0,a0,7820
80001320:	3c048000 	lui	a0,0x8000
80001324:	8e050070 	lw	a1,112(s0)
80001328:	26261db0 	addiu	a2,s1,7600
8000132c:	0c000351 	jal	80000d44 <putsns>
80001330:	24841e94 	addiu	a0,a0,7828
80001334:	3c048000 	lui	a0,0x8000
80001338:	8e050074 	lw	a1,116(s0)
8000133c:	26261db0 	addiu	a2,s1,7600
80001340:	0c000351 	jal	80000d44 <putsns>
80001344:	24841e9c 	addiu	a0,a0,7836
80001348:	3c048000 	lui	a0,0x8000
8000134c:	8e050078 	lw	a1,120(s0)
80001350:	26461d7c 	addiu	a2,s2,7548
80001354:	0c000351 	jal	80000d44 <putsns>
80001358:	24841ea4 	addiu	a0,a0,7844
8000135c:	3c048000 	lui	a0,0x8000
80001360:	8e050084 	lw	a1,132(s0)
80001364:	26261db0 	addiu	a2,s1,7600
80001368:	0c000351 	jal	80000d44 <putsns>
8000136c:	24841eac 	addiu	a0,a0,7852
80001370:	3c048000 	lui	a0,0x8000
80001374:	8e050088 	lw	a1,136(s0)
80001378:	26461d7c 	addiu	a2,s2,7548
8000137c:	0c000351 	jal	80000d44 <putsns>
80001380:	24841eb4 	addiu	a0,a0,7860
80001384:	3c048000 	lui	a0,0x8000
80001388:	8e05007c 	lw	a1,124(s0)
8000138c:	26461d7c 	addiu	a2,s2,7548
80001390:	0c000351 	jal	80000d44 <putsns>
80001394:	24841ebc 	addiu	a0,a0,7868
80001398:	3c048000 	lui	a0,0x8000
8000139c:	8e050080 	lw	a1,128(s0)
800013a0:	26461d7c 	addiu	a2,s2,7548
800013a4:	0c000351 	jal	80000d44 <putsns>
800013a8:	24841ec8 	addiu	a0,a0,7880
800013ac:	3c048000 	lui	a0,0x8000
800013b0:	8e050090 	lw	a1,144(s0)
800013b4:	26461d7c 	addiu	a2,s2,7548
800013b8:	0c000321 	jal	80000c84 <putsnds.constprop.0>
800013bc:	24841ed4 	addiu	a0,a0,7892
800013c0:	3c048000 	lui	a0,0x8000
800013c4:	8e050094 	lw	a1,148(s0)
800013c8:	26461d7c 	addiu	a2,s2,7548
800013cc:	0c000321 	jal	80000c84 <putsnds.constprop.0>
800013d0:	24841ee0 	addiu	a0,a0,7904
800013d4:	3c048000 	lui	a0,0x8000
800013d8:	8e050098 	lw	a1,152(s0)
800013dc:	26461d7c 	addiu	a2,s2,7548
800013e0:	0c000321 	jal	80000c84 <putsnds.constprop.0>
800013e4:	24841eec 	addiu	a0,a0,7916
800013e8:	3c048000 	lui	a0,0x8000
800013ec:	8e05009c 	lw	a1,156(s0)
800013f0:	26461d7c 	addiu	a2,s2,7548
800013f4:	0c000321 	jal	80000c84 <putsnds.constprop.0>
800013f8:	24841ef8 	addiu	a0,a0,7928
800013fc:	00002821 	move	a1,zero
80001400:	0c0005f1 	jal	800017c4 <__uhi_exception>
80001404:	02002021 	move	a0,s0
80001408:	1440fe94 	bnez	v0,80000e5c <__exception_handle_verbose+0x110>
8000140c:	3c028000 	lui	v0,0x8000
80001410:	8fbf001c 	lw	ra,28(sp)
80001414:	8fb20018 	lw	s2,24(sp)
80001418:	8fb10014 	lw	s1,20(sp)
8000141c:	8fb00010 	lw	s0,16(sp)
80001420:	03e00008 	jr	ra
80001424:	27bd0020 	addiu	sp,sp,32

80001428 <__first_boot>:
80001428:	00000001 	movf	zero,zero,$fcc0

8000142c <__register_excpt_handler>:
8000142c:	40056000 	mfc0	a1,c0_status
80001430:	3c0a0040 	lui	t2,0x40
80001434:	408a6000 	mtc0	t2,c0_status
80001438:	000000c0 	ehb
8000143c:	3c098000 	lui	t1,0x8000
80001440:	252914dc 	addiu	t1,t1,5340
80001444:	11200005 	beqz	t1,8000145c <__register_excpt_handler+0x30>
80001448:	00000000 	nop
8000144c:	03e03021 	move	a2,ra
80001450:	0120f809 	jalr	t1
80001454:	00000000 	nop
80001458:	0040f821 	move	ra,v0
8000145c:	3c098000 	lui	t1,0x8000
80001460:	25291428 	addiu	t1,t1,5160
80001464:	ad200000 	sw	zero,0(t1)
80001468:	400c8003 	mfc0	t4,c0_config3
8000146c:	3c0a8000 	lui	t2,0x8000
80001470:	254a0000 	addiu	t2,t2,0
80001474:	354a0800 	ori	t2,t2,0x800
80001478:	408a7801 	mtc0	t2,c0_ebase
8000147c:	000000c0 	ehb
80001480:	00001021 	move	v0,zero
80001484:	3c090000 	lui	t1,0x0
80001488:	25290020 	addiu	t1,t1,32
8000148c:	7d8a0140 	ext	t2,t4,0x5,0x1
80001490:	7d8b0180 	ext	t3,t4,0x6,0x1
80001494:	014b5025 	or	t2,t2,t3
80001498:	11400005 	beqz	t2,800014b0 <__register_excpt_handler+0x84>
8000149c:	00000000 	nop
800014a0:	400a6001 	mfc0	t2,c0_intctl
800014a4:	7d2a4804 	ins	t2,t1,0x0,0xa
800014a8:	10000003 	b	800014b8 <__register_excpt_handler+0x8c>
800014ac:	408a6001 	mtc0	t2,c0_intctl
800014b0:	15200008 	bnez	t1,800014d4 <__register_excpt_handler+0xa8>
800014b4:	00000000 	nop
800014b8:	3c090080 	lui	t1,0x80
800014bc:	40896800 	mtc0	t1,c0_cause
800014c0:	000000c0 	ehb
800014c4:	7d8a0180 	ext	t2,t4,0x6,0x1
800014c8:	15400002 	bnez	t2,800014d4 <__register_excpt_handler+0xa8>
800014cc:	00000000 	nop
800014d0:	34420001 	ori	v0,v0,0x1
800014d4:	03e00008 	jr	ra
800014d8:	00000000 	nop

800014dc <__register_excpt_boot>:
800014dc:	3c098000 	lui	t1,0x8000
800014e0:	25292340 	addiu	t1,t1,9024
800014e4:	ad240038 	sw	a0,56(t1)
800014e8:	ad250000 	sw	a1,0(t1)
800014ec:	ad300004 	sw	s0,4(t1)
800014f0:	ad310008 	sw	s1,8(t1)
800014f4:	ad32000c 	sw	s2,12(t1)
800014f8:	ad330010 	sw	s3,16(t1)
800014fc:	ad340014 	sw	s4,20(t1)
80001500:	ad350018 	sw	s5,24(t1)
80001504:	ad36001c 	sw	s6,28(t1)
80001508:	ad370020 	sw	s7,32(t1)
8000150c:	ad3a0024 	sw	k0,36(t1)
80001510:	ad3b0028 	sw	k1,40(t1)
80001514:	ad3c002c 	sw	gp,44(t1)
80001518:	ad3d0030 	sw	sp,48(t1)
8000151c:	ad3e0034 	sw	s8,52(t1)
80001520:	400c8003 	mfc0	t4,c0_config3
80001524:	400c6001 	mfc0	t4,c0_intctl
80001528:	ad2c003c 	sw	t4,60(t1)
8000152c:	400a7801 	mfc0	t2,c0_ebase
80001530:	ad2a0040 	sw	t2,64(t1)
80001534:	3c0b0040 	lui	t3,0x40
80001538:	010b5824 	and	t3,t0,t3
8000153c:	11600003 	beqz	t3,8000154c <__register_excpt_boot+0x70>
80001540:	00000000 	nop
80001544:	3c0abfc0 	lui	t2,0xbfc0
80001548:	354a0200 	ori	t2,t2,0x200
8000154c:	ad2a0044 	sw	t2,68(t1)
80001550:	03e00008 	jr	ra
80001554:	00c01021 	move	v0,a2

80001558 <__return_to_boot>:
80001558:	41606000 	di
8000155c:	000000c0 	ehb
80001560:	40096000 	mfc0	t1,c0_status
80001564:	3c0a0040 	lui	t2,0x40
80001568:	012a4825 	or	t1,t1,t2
8000156c:	40896000 	mtc0	t1,c0_status
80001570:	000000c0 	ehb
80001574:	3c098000 	lui	t1,0x8000
80001578:	25292340 	addiu	t1,t1,9024
8000157c:	8d290040 	lw	t1,64(t1)
80001580:	352a0800 	ori	t2,t1,0x800
80001584:	408a7801 	mtc0	t2,c0_ebase
80001588:	312b0800 	andi	t3,t1,0x800
8000158c:	15600002 	bnez	t3,80001598 <__return_to_boot+0x40>
80001590:	00000000 	nop
80001594:	40897801 	mtc0	t1,c0_ebase
80001598:	000000c0 	ehb
8000159c:	3c098000 	lui	t1,0x8000
800015a0:	25292340 	addiu	t1,t1,9024
800015a4:	8d300004 	lw	s0,4(t1)
800015a8:	8d310008 	lw	s1,8(t1)
800015ac:	8d32000c 	lw	s2,12(t1)
800015b0:	8d330010 	lw	s3,16(t1)
800015b4:	8d340014 	lw	s4,20(t1)
800015b8:	8d350018 	lw	s5,24(t1)
800015bc:	8d36001c 	lw	s6,28(t1)
800015c0:	8d370020 	lw	s7,32(t1)
800015c4:	8d3a0024 	lw	k0,36(t1)
800015c8:	8d3b0028 	lw	k1,40(t1)
800015cc:	8d3c002c 	lw	gp,44(t1)
800015d0:	8d3d0030 	lw	sp,48(t1)
800015d4:	8d3e0034 	lw	s8,52(t1)
800015d8:	8d3f0038 	lw	ra,56(t1)
800015dc:	8d22003c 	lw	v0,60(t1)
800015e0:	40826001 	mtc0	v0,c0_intctl
800015e4:	8d290000 	lw	t1,0(t1)
800015e8:	40896000 	mtc0	t1,c0_status
800015ec:	40806800 	mtc0	zero,c0_cause
800015f0:	03e00408 	jr.hb	ra
800015f4:	00801021 	move	v0,a0

800015f8 <__chain_uhi_excpt>:
800015f8:	00801821 	move	v1,a0
800015fc:	8c690084 	lw	t1,132(v1)
80001600:	8c6a0088 	lw	t2,136(v1)
80001604:	01200011 	mthi	t1
80001608:	01400013 	mtlo	t2
8000160c:	8c690090 	lw	t1,144(v1)
80001610:	40896000 	mtc0	t1,c0_status
80001614:	8c69007c 	lw	t1,124(v1)
80001618:	40897000 	mtc0	t1,c0_epc
8000161c:	000000c0 	ehb
80001620:	8c610000 	lw	at,0(v1)
80001624:	8c620004 	lw	v0,4(v1)
80001628:	8c64000c 	lw	a0,12(v1)
8000162c:	8c650010 	lw	a1,16(v1)
80001630:	8c660014 	lw	a2,20(v1)
80001634:	8c670018 	lw	a3,24(v1)
80001638:	8c68001c 	lw	t0,28(v1)
8000163c:	8c690020 	lw	t1,32(v1)
80001640:	8c6a0024 	lw	t2,36(v1)
80001644:	8c6b0028 	lw	t3,40(v1)
80001648:	8c6c002c 	lw	t4,44(v1)
8000164c:	8c6d0030 	lw	t5,48(v1)
80001650:	8c6e0034 	lw	t6,52(v1)
80001654:	8c6f0038 	lw	t7,56(v1)
80001658:	8c70003c 	lw	s0,60(v1)
8000165c:	8c710040 	lw	s1,64(v1)
80001660:	8c720044 	lw	s2,68(v1)
80001664:	8c730048 	lw	s3,72(v1)
80001668:	8c74004c 	lw	s4,76(v1)
8000166c:	8c750050 	lw	s5,80(v1)
80001670:	8c760054 	lw	s6,84(v1)
80001674:	8c770058 	lw	s7,88(v1)
80001678:	8c78005c 	lw	t8,92(v1)
8000167c:	8c790060 	lw	t9,96(v1)
80001680:	8c7c006c 	lw	gp,108(v1)
80001684:	8c7d0070 	lw	sp,112(v1)
80001688:	8c7e0074 	lw	s8,116(v1)
8000168c:	8c7f0078 	lw	ra,120(v1)
80001690:	3c038000 	lui	v1,0x8000
80001694:	24632340 	addiu	v1,v1,9024
80001698:	8c7a0024 	lw	k0,36(v1)
8000169c:	8c7b0028 	lw	k1,40(v1)
800016a0:	8c630044 	lw	v1,68(v1)
800016a4:	24630180 	addiu	v1,v1,384
800016a8:	00600008 	jr	v1
800016ac:	00000000 	nop

800016b0 <__get_startup_BEV>:
800016b0:	3c028000 	lui	v0,0x8000
800016b4:	24422340 	addiu	v0,v0,9024
800016b8:	8c420000 	lw	v0,0(v0)
800016bc:	3c030040 	lui	v1,0x40
800016c0:	03e00008 	jr	ra
800016c4:	00431024 	and	v0,v0,v1

800016c8 <__convert_argv_pointers>:
800016c8:	18800021 	blez	a0,80001750 <__convert_argv_pointers+0x88>
800016cc:	00000000 	nop
800016d0:	3c088000 	lui	t0,0x8000
800016d4:	25082340 	addiu	t0,t0,9024
800016d8:	8d080000 	lw	t0,0(t0)
800016dc:	7d0901c0 	ext	t1,t0,0x7,0x1
800016e0:	1120001b 	beqz	t1,80001750 <__convert_argv_pointers+0x88>
800016e4:	00000000 	nop
800016e8:	00804021 	move	t0,a0
800016ec:	00084880 	sll	t1,t0,0x2
800016f0:	25290007 	addiu	t1,t1,7
800016f4:	2401fff8 	li	at,-8
800016f8:	01214824 	and	t1,t1,at
800016fc:	03a9e823 	subu	sp,sp,t1
80001700:	03a05021 	move	t2,sp
80001704:	00a05821 	move	t3,a1
80001708:	2409ffff 	li	t1,-1
8000170c:	8d780000 	lw	t8,0(t3)
80001710:	8d790004 	lw	t9,4(t3)
80001714:	13200005 	beqz	t9,8000172c <__convert_argv_pointers+0x64>
80001718:	00000000 	nop
8000171c:	13290003 	beq	t9,t1,8000172c <__convert_argv_pointers+0x64>
80001720:	00000000 	nop
80001724:	3c188000 	lui	t8,0x8000
80001728:	27182388 	addiu	t8,t8,9096
8000172c:	ad580000 	sw	t8,0(t2)
80001730:	254a0004 	addiu	t2,t2,4
80001734:	256b0008 	addiu	t3,t3,8
80001738:	2508ffff 	addiu	t0,t0,-1
8000173c:	1500fff3 	bnez	t0,8000170c <__convert_argv_pointers+0x44>
80001740:	00000000 	nop
80001744:	03a02821 	move	a1,sp
80001748:	27bdfff0 	addiu	sp,sp,-16
8000174c:	00003021 	move	a2,zero
80001750:	03e00008 	jr	ra
80001754:	00000000 	nop

80001758 <strlen>:
80001758:	24820001 	addiu	v0,a0,1
8000175c:	90830000 	lbu	v1,0(a0)
80001760:	00000000 	nop
80001764:	1460fffd 	bnez	v1,8000175c <strlen+0x4>
80001768:	24840001 	addiu	a0,a0,1
8000176c:	03e00008 	jr	ra
80001770:	00821023 	subu	v0,a0,v0

80001774 <write>:
80001774:	27bdffe0 	addiu	sp,sp,-32
80001778:	24190005 	li	t9,5
8000177c:	afbf001c 	sw	ra,28(sp)
80001780:	24020001 	li	v0,1
80001784:	afb00018 	sw	s0,24(sp)
80001788:	0000004c 	syscall	0x1
8000178c:	00408021 	move	s0,v0
80001790:	2402ffff 	li	v0,-1
80001794:	16020007 	bne	s0,v0,800017b4 <write+0x40>
80001798:	8fbf001c 	lw	ra,28(sp)
8000179c:	afa30010 	sw	v1,16(sp)
800017a0:	0c000607 	jal	8000181c <__errno>
800017a4:	00000000 	nop
800017a8:	8fa30010 	lw	v1,16(sp)
800017ac:	ac430000 	sw	v1,0(v0)
800017b0:	8fbf001c 	lw	ra,28(sp)
800017b4:	02001021 	move	v0,s0
800017b8:	8fb00018 	lw	s0,24(sp)
800017bc:	03e00008 	jr	ra
800017c0:	27bd0020 	addiu	sp,sp,32

800017c4 <__uhi_exception>:
800017c4:	2419000f 	li	t9,15
800017c8:	24020001 	li	v0,1
800017cc:	0000004c 	syscall	0x1
800017d0:	03e00008 	jr	ra
800017d4:	00000000 	nop

800017d8 <__uhi_indirect>:
800017d8:	00804021 	move	t0,a0
800017dc:	8c84000c 	lw	a0,12(a0)
800017e0:	24020001 	li	v0,1
800017e4:	8d050010 	lw	a1,16(t0)
800017e8:	8d060014 	lw	a2,20(t0)
800017ec:	8d070018 	lw	a3,24(t0)
800017f0:	8d190060 	lw	t9,96(t0)
800017f4:	7000007f 	sdbbp	0x1
800017f8:	ad020004 	sw	v0,4(t0)
800017fc:	8d02007c 	lw	v0,124(t0)
80001800:	ad030008 	sw	v1,8(t0)
80001804:	ad04000c 	sw	a0,12(t0)
80001808:	24420004 	addiu	v0,v0,4
8000180c:	ad050010 	sw	a1,16(t0)
80001810:	ad02007c 	sw	v0,124(t0)
80001814:	03e00008 	jr	ra
80001818:	24020001 	li	v0,1

8000181c <__errno>:
8000181c:	3c028000 	lui	v0,0x8000
80001820:	03e00008 	jr	ra
80001824:	8c4223a8 	lw	v0,9128(v0)

80001828 <__exception_save>:
80001828:	03a0d821 	move	k1,sp
8000182c:	27bdff50 	addiu	sp,sp,-176
80001830:	afa10010 	sw	at,16(sp)
80001834:	afa20014 	sw	v0,20(sp)
80001838:	afa30018 	sw	v1,24(sp)
8000183c:	afa4001c 	sw	a0,28(sp)
80001840:	afa50020 	sw	a1,32(sp)
80001844:	afa60024 	sw	a2,36(sp)
80001848:	afa70028 	sw	a3,40(sp)
8000184c:	afa8002c 	sw	t0,44(sp)
80001850:	afa90030 	sw	t1,48(sp)
80001854:	afaa0034 	sw	t2,52(sp)
80001858:	afab0038 	sw	t3,56(sp)
8000185c:	afac003c 	sw	t4,60(sp)
80001860:	afad0040 	sw	t5,64(sp)
80001864:	afae0044 	sw	t6,68(sp)
80001868:	afaf0048 	sw	t7,72(sp)
8000186c:	afb0004c 	sw	s0,76(sp)
80001870:	afb10050 	sw	s1,80(sp)
80001874:	afb20054 	sw	s2,84(sp)
80001878:	afb30058 	sw	s3,88(sp)
8000187c:	afb4005c 	sw	s4,92(sp)
80001880:	afb50060 	sw	s5,96(sp)
80001884:	afb60064 	sw	s6,100(sp)
80001888:	afb70068 	sw	s7,104(sp)
8000188c:	afb8006c 	sw	t8,108(sp)
80001890:	afb90070 	sw	t9,112(sp)
80001894:	afba0074 	sw	k0,116(sp)
80001898:	afbc007c 	sw	gp,124(sp)
8000189c:	afbb0080 	sw	k1,128(sp)
800018a0:	afbe0084 	sw	s8,132(sp)
800018a4:	afbf0088 	sw	ra,136(sp)
800018a8:	afa0009c 	sw	zero,156(sp)
800018ac:	00004810 	mfhi	t1
800018b0:	00005012 	mflo	t2
800018b4:	afa90094 	sw	t1,148(sp)
800018b8:	afaa0098 	sw	t2,152(sp)
800018bc:	401f7000 	mfc0	ra,c0_epc
800018c0:	40136800 	mfc0	s3,c0_cause
800018c4:	afbf008c 	sw	ra,140(sp)
800018c8:	40094000 	mfc0	t1,c0_badvaddr
800018cc:	afa90090 	sw	t1,144(sp)
800018d0:	afb300a4 	sw	s3,164(sp)
800018d4:	00005821 	move	t3,zero
800018d8:	00006021 	move	t4,zero
800018dc:	40098003 	mfc0	t1,c0_config3
800018e0:	7d2a06c0 	ext	t2,t1,0x1b,0x1
800018e4:	11400002 	beqz	t2,800018f0 <__exception_save+0xc8>
800018e8:	00000000 	nop
800018ec:	400b4002 	mfc0	t3,$8,2
800018f0:	7d290680 	ext	t1,t1,0x1a,0x1
800018f4:	11200002 	beqz	t1,80001900 <__exception_save+0xd8>
800018f8:	00000000 	nop
800018fc:	400c4001 	mfc0	t4,$8,1
80001900:	afab00ac 	sw	t3,172(sp)
80001904:	afac00a8 	sw	t4,168(sp)
80001908:	03a02021 	move	a0,sp
8000190c:	40156000 	mfc0	s5,c0_status
80001910:	afb500a0 	sw	s5,160(sp)
80001914:	3c090000 	lui	t1,0x0
80001918:	2529fffd 	addiu	t1,t1,-3
8000191c:	02a9a824 	and	s5,s5,t1
80001920:	40956000 	mtc0	s5,c0_status
80001924:	3c1f8000 	lui	ra,0x8000
80001928:	27ff1948 	addiu	ra,ra,6472
8000192c:	3265007c 	andi	a1,s3,0x7c
80001930:	24840010 	addiu	a0,a0,16
80001934:	00052882 	srl	a1,a1,0x2
80001938:	3c198000 	lui	t9,0x8000
8000193c:	273907b4 	addiu	t9,t9,1972
80001940:	03200008 	jr	t9
80001944:	00000000 	nop
80001948:	8fa90094 	lw	t1,148(sp)
8000194c:	8faa0098 	lw	t2,152(sp)
80001950:	01200011 	mthi	t1
80001954:	01400013 	mtlo	t2
80001958:	8fa10010 	lw	at,16(sp)
8000195c:	8fa20014 	lw	v0,20(sp)
80001960:	8fa30018 	lw	v1,24(sp)
80001964:	8fa4001c 	lw	a0,28(sp)
80001968:	8fa50020 	lw	a1,32(sp)
8000196c:	8fa60024 	lw	a2,36(sp)
80001970:	8fa70028 	lw	a3,40(sp)
80001974:	8fa8002c 	lw	t0,44(sp)
80001978:	8fa90030 	lw	t1,48(sp)
8000197c:	8faa0034 	lw	t2,52(sp)
80001980:	8fab0038 	lw	t3,56(sp)
80001984:	8fac003c 	lw	t4,60(sp)
80001988:	8fad0040 	lw	t5,64(sp)
8000198c:	8fae0044 	lw	t6,68(sp)
80001990:	8faf0048 	lw	t7,72(sp)
80001994:	8fb0004c 	lw	s0,76(sp)
80001998:	8fb10050 	lw	s1,80(sp)
8000199c:	8fb20054 	lw	s2,84(sp)
800019a0:	8fb30058 	lw	s3,88(sp)
800019a4:	8fb4005c 	lw	s4,92(sp)
800019a8:	8fb50060 	lw	s5,96(sp)
800019ac:	8fb60064 	lw	s6,100(sp)
800019b0:	8fb70068 	lw	s7,104(sp)
800019b4:	8fb8006c 	lw	t8,108(sp)
800019b8:	8fb90070 	lw	t9,112(sp)
800019bc:	8fbc007c 	lw	gp,124(sp)
800019c0:	8fbe0084 	lw	s8,132(sp)
800019c4:	8fbf0088 	lw	ra,136(sp)
800019c8:	41606000 	di
800019cc:	8fba00a0 	lw	k0,160(sp)
800019d0:	8fbb008c 	lw	k1,140(sp)
800019d4:	409a6000 	mtc0	k0,c0_status
800019d8:	409b7000 	mtc0	k1,c0_epc
800019dc:	000000c0 	ehb
800019e0:	8fba0074 	lw	k0,116(sp)
800019e4:	8fbb0078 	lw	k1,120(sp)
800019e8:	8fbd0080 	lw	sp,128(sp)
800019ec:	42000018 	eret

Disassembly of section .init:

800019f0 <_init>:
800019f0:	27bdffe0 	addiu	sp,sp,-32
800019f4:	afbf0014 	sw	ra,20(sp)
800019f8:	0c0001bf 	jal	800006fc <frame_dummy>
800019fc:	00000000 	nop
80001a00:	0c0001f2 	jal	800007c8 <__do_global_ctors_aux>
80001a04:	00000000 	nop

80001a08 <init>:
80001a08:	8fbf0014 	lw	ra,20(sp)
80001a0c:	03e00008 	jr	ra
80001a10:	27bd0020 	addiu	sp,sp,32

Disassembly of section .fini:

80001a14 <_fini>:
80001a14:	27bdffe0 	addiu	sp,sp,-32
80001a18:	afbf0014 	sw	ra,20(sp)
80001a1c:	0c00018f 	jal	8000063c <__do_global_dtors_aux>
80001a20:	00000000 	nop

80001a24 <fini>:
80001a24:	8fbf0014 	lw	ra,20(sp)
80001a28:	03e00008 	jr	ra
80001a2c:	27bd0020 	addiu	sp,sp,32

Disassembly of section .eh_frame:

80001a30 <__EH_FRAME_BEGIN__>:
80001a30:	00000000 	nop

Disassembly of section .jcr:

80001a34 <__JCR_END__>:
80001a34:	00000000 	nop

Disassembly of section .ctors:

80001a38 <__CTOR_LIST__>:
80001a38:	ffffffff 	sdc3	$31,-1(ra)

80001a3c <__CTOR_END__>:
80001a3c:	00000000 	nop

Disassembly of section .dtors:

80001a40 <__DTOR_LIST__>:
80001a40:	ffffffff 	sdc3	$31,-1(ra)

80001a44 <__DTOR_END__>:
80001a44:	00000000 	nop

Disassembly of section .MIPS.abiflags:

80001a48 <__MIPS_abiflags_start>:
80001a48:	02200000 	0x2200000
80001a4c:	03000001 	movf	zero,t8,$fcc0
80001a50:	00000000 	nop
80001a54:	00000000 	nop
80001a58:	00000001 	movf	zero,zero,$fcc0
80001a5c:	00000000 	nop

Disassembly of section .rodata:

80001a60 <_fdata-0x4b0>:
80001a60:	80000d8c 	lb	zero,3468(zero)
80001a64:	80000d9c 	lb	zero,3484(zero)
80001a68:	80000da8 	lb	zero,3496(zero)
80001a6c:	80000db4 	lb	zero,3508(zero)
80001a70:	80000dd4 	lb	zero,3540(zero)
80001a74:	80000de0 	lb	zero,3552(zero)
80001a78:	80000e00 	lb	zero,3584(zero)
80001a7c:	80000e14 	lb	zero,3604(zero)
80001a80:	80000ed4 	lb	zero,3796(zero)
80001a84:	80000ee0 	lb	zero,3808(zero)
80001a88:	80000eec 	lb	zero,3820(zero)
80001a8c:	80000ef8 	lb	zero,3832(zero)
80001a90:	80000f0c 	lb	zero,3852(zero)
80001a94:	80000f20 	lb	zero,3872(zero)
80001a98:	80000f84 	lb	zero,3972(zero)
80001a9c:	80000fe8 	lb	zero,4072(zero)
80001aa0:	80000ff8 	lb	zero,4088(zero)
80001aa4:	8000100c 	lb	zero,4108(zero)
80001aa8:	80001020 	lb	zero,4128(zero)
80001aac:	80001034 	lb	zero,4148(zero)
80001ab0:	80001048 	lb	zero,4168(zero)
80001ab4:	80001054 	lb	zero,4180(zero)
80001ab8:	80001060 	lb	zero,4192(zero)
80001abc:	80001070 	lb	zero,4208(zero)
80001ac0:	80001084 	lb	zero,4228(zero)
80001ac4:	80001098 	lb	zero,4248(zero)
80001ac8:	800010c0 	lb	zero,4288(zero)
80001acc:	800010c0 	lb	zero,4288(zero)
80001ad0:	800010c0 	lb	zero,4288(zero)
80001ad4:	800010ac 	lb	zero,4268(zero)
80001ad8:	00000043 	sra	zero,zero,0x1
80001adc:	33323130 	andi	s2,t9,0x3130
80001ae0:	37363534 	ori	s6,t9,0x3534
80001ae4:	42413938 	c0	0x413938
80001ae8:	46454443 	c1	0x454443
80001aec:	00000000 	nop
80001af0:	20424c54 	addi	v0,v0,19540
80001af4:	69646f6d 	0x69646f6d
80001af8:	61636966 	0x61636966
80001afc:	6e6f6974 	0x6e6f6974
80001b00:	63786520 	0x63786520
80001b04:	69747065 	0x69747065
80001b08:	000a6e6f 	0xa6e6f
80001b0c:	20424c54 	addi	v0,v0,19540
80001b10:	6f727265 	0x6f727265
80001b14:	6e6f2072 	0x6e6f2072
80001b18:	616f6c20 	0x616f6c20
80001b1c:	72662064 	s8ldi	xr1,s3,-120,ptn1
80001b20:	30206d6f 	andi	zero,at,0x6d6f
80001b24:	00000078 	0x78
80001b28:	20424c54 	addi	v0,v0,19540
80001b2c:	6f727265 	0x6f727265
80001b30:	6e6f2072 	0x6e6f2072
80001b34:	6f747320 	0x6f747320
80001b38:	74206572 	jalx	808195c8 <__stack+0x7d95c8>
80001b3c:	7830206f 	0x7830206f
80001b40:	00000000 	nop
80001b44:	72646441 	0x72646441
80001b48:	20737365 	addi	s3,v1,29541
80001b4c:	6f727265 	0x6f727265
80001b50:	6e6f2072 	0x6e6f2072
80001b54:	616f6c20 	0x616f6c20
80001b58:	72662064 	s8ldi	xr1,s3,-120,ptn1
80001b5c:	30206d6f 	andi	zero,at,0x6d6f
80001b60:	00000078 	0x78
80001b64:	72646441 	0x72646441
80001b68:	20737365 	addi	s3,v1,29541
80001b6c:	6f727265 	0x6f727265
80001b70:	6e6f2072 	0x6e6f2072
80001b74:	6f747320 	0x6f747320
80001b78:	74206572 	jalx	808195c8 <__stack+0x7d95c8>
80001b7c:	7830206f 	0x7830206f
80001b80:	00000000 	nop
80001b84:	74736e49 	jalx	81cdb924 <__stack+0x1c9b924>
80001b88:	74637572 	jalx	818dd5c8 <__stack+0x189d5c8>
80001b8c:	206e6f69 	addi	t6,v1,28521
80001b90:	20737562 	addi	s3,v1,30050
80001b94:	6f727265 	0x6f727265
80001b98:	00000a72 	tlt	zero,zero,0x29
80001b9c:	61746144 	0x61746144
80001ba0:	73756220 	0x73756220
80001ba4:	72726520 	0x72726520
80001ba8:	000a726f 	0xa726f
80001bac:	6320324c 	0x6320324c
80001bb0:	65686361 	0x65686361
80001bb4:	6e6f6320 	0x6e6f6320
80001bb8:	75676966 	jalx	859da598 <__stack+0x599a598>
80001bbc:	69746172 	0x69746172
80001bc0:	65206e6f 	0x65206e6f
80001bc4:	726f7272 	0x726f7272
80001bc8:	0000000a 	movz	zero,zero,zero
80001bcc:	6e6b6e55 	0x6e6b6e55
80001bd0:	206e776f 	addi	t6,v1,30575
80001bd4:	746f6f62 	jalx	81bdbd88 <__stack+0x1b9bd88>
80001bd8:	69616620 	0x69616620
80001bdc:	6572756c 	0x6572756c
80001be0:	72726520 	0x72726520
80001be4:	000a726f 	0xa726f
80001be8:	61657242 	0x61657242
80001bec:	696f706b 	0x696f706b
80001bf0:	4020746e 	0x4020746e
80001bf4:	00007830 	tge	zero,zero,0x1e0
80001bf8:	656c6c49 	0x656c6c49
80001bfc:	206c6167 	addi	t4,v1,24935
80001c00:	74736e69 	jalx	81cdb9a4 <__stack+0x1c9b9a4>
80001c04:	74637572 	jalx	818dd5c8 <__stack+0x189d5c8>
80001c08:	206e6f69 	addi	t6,v1,28521
80001c0c:	00783040 	0x783040
80001c10:	72706f43 	0x72706f43
80001c14:	7365636f 	0x7365636f
80001c18:	20726f73 	addi	s2,v1,28531
80001c1c:	73756e75 	q16slr	xr9,xr11,xr5,xr13,13
80001c20:	656c6261 	0x656c6261
80001c24:	78304020 	ld.b	$w0,48(t0)
80001c28:	00000000 	nop
80001c2c:	7265764f 	d16mace	xr9,xr13,xr5,xr9,SA,LW
80001c30:	776f6c66 	jalx	8dbdb198 <__stack+0xdb9b198>
80001c34:	0000000a 	movz	zero,zero,zero
80001c38:	70617254 	s32ldi	xr9,v1,368
80001c3c:	0000000a 	movz	zero,zero,zero
80001c40:	2041534d 	addi	at,v0,21325
80001c44:	616f6c46 	0x616f6c46
80001c48:	676e6974 	0x676e6974
80001c4c:	696f7020 	0x696f7020
80001c50:	6520746e 	0x6520746e
80001c54:	726f7272 	0x726f7272
80001c58:	0000000a 	movz	zero,zero,zero
80001c5c:	6c706d49 	0x6c706d49
80001c60:	6e656d65 	0x6e656d65
80001c64:	69746174 	0x69746174
80001c68:	73206e6f 	0x73206e6f
80001c6c:	69636570 	0x69636570
80001c70:	20636966 	addi	v1,v1,26982
80001c74:	65637865 	0x65637865
80001c78:	6f697470 	0x6f697470
80001c7c:	3128206e 	andi	t0,t1,0x206e
80001c80:	000a2936 	tne	zero,t2,0xa4
80001c84:	6c706d49 	0x6c706d49
80001c88:	6e656d65 	0x6e656d65
80001c8c:	69746174 	0x69746174
80001c90:	73206e6f 	0x73206e6f
80001c94:	69636570 	0x69636570
80001c98:	20636966 	addi	v1,v1,26982
80001c9c:	65637865 	0x65637865
80001ca0:	6f697470 	0x6f697470
80001ca4:	3128206e 	andi	t0,t1,0x206e
80001ca8:	000a2937 	0xa2937
80001cac:	63657250 	0x63657250
80001cb0:	20657369 	addi	a1,v1,29545
80001cb4:	72706f43 	0x72706f43
80001cb8:	7365636f 	0x7365636f
80001cbc:	20726f73 	addi	s2,v1,28531
80001cc0:	78652032 	0x78652032
80001cc4:	74706563 	jalx	81c1958c <__stack+0x1bd958c>
80001cc8:	0a6e6f69 	j	89b9bda4 <__stack+0x9b5bda4>
80001ccc:	00000000 	nop
80001cd0:	20424c54 	addi	v0,v0,19540
80001cd4:	64616572 	0x64616572
80001cd8:	686e6920 	0x686e6920
80001cdc:	74696269 	jalx	81a589a4 <__stack+0x1a189a4>
80001ce0:	63786520 	0x63786520
80001ce4:	69747065 	0x69747065
80001ce8:	000a6e6f 	0xa6e6f
80001cec:	20424c54 	addi	v0,v0,19540
80001cf0:	63657865 	0x63657865
80001cf4:	20657475 	addi	a1,v1,29813
80001cf8:	69686e69 	0x69686e69
80001cfc:	20746962 	addi	s4,v1,26978
80001d00:	65637865 	0x65637865
80001d04:	6f697470 	0x6f697470
80001d08:	00000a6e 	0xa6e
80001d0c:	2041534d 	addi	at,v0,21325
80001d10:	73756e75 	q16slr	xr9,xr11,xr5,xr13,13
80001d14:	656c6261 	0x656c6261
80001d18:	78304020 	ld.b	$w0,48(t0)
80001d1c:	00000000 	nop
80001d20:	584d444d 	0x584d444d
80001d24:	63786520 	0x63786520
80001d28:	69747065 	0x69747065
80001d2c:	40206e6f 	0x40206e6f
80001d30:	00007830 	tge	zero,zero,0x1e0
80001d34:	63746157 	0x63746157
80001d38:	696f7068 	0x696f7068
80001d3c:	4020746e 	0x4020746e
80001d40:	00007830 	tge	zero,zero,0x1e0
80001d44:	6863614d 	0x6863614d
80001d48:	20656e69 	addi	a1,v1,28265
80001d4c:	63656863 	0x63656863
80001d50:	7265206b 	s16std	xr1,s3,-368,ptn0
80001d54:	0a726f72 	j	89c9bdc8 <__stack+0x9c5bdc8>
80001d58:	00000000 	nop
80001d5c:	65726854 	0x65726854
80001d60:	65206461 	0x65206461
80001d64:	70656378 	0x70656378
80001d68:	6e6f6974 	0x6e6f6974
80001d6c:	0000000a 	movz	zero,zero,zero
80001d70:	20505344 	addi	s0,v0,21316
80001d74:	73756e75 	q16slr	xr9,xr11,xr5,xr13,13
80001d78:	656c6261 	0x656c6261
80001d7c:	0000000a 	movz	zero,zero,zero
80001d80:	68636143 	0x68636143
80001d84:	72652065 	s8sdi	xr1,s3,72,ptn1
80001d88:	0a726f72 	j	89c9bdc8 <__stack+0x9c5bdc8>
80001d8c:	00000000 	nop
80001d90:	61686e55 	0x61686e55
80001d94:	656c646e 	0x656c646e
80001d98:	78652064 	st.b	$w1,101(a0)
80001d9c:	74706563 	jalx	81c1958c <__stack+0x1bd958c>
80001da0:	206e6f69 	addi	t6,v1,28521
80001da4:	00000000 	nop
80001da8:	093a3020 	j	84e8c080 <__stack+0x4e4c080>
80001dac:	00000000 	nop
80001db0:	00000009 	jalr	zero,zero
80001db4:	093a7461 	j	84e9d184 <__stack+0x4e5d184>
80001db8:	00000000 	nop
80001dbc:	093a3076 	j	84e8c1d8 <__stack+0x4e4c1d8>
80001dc0:	00000000 	nop
80001dc4:	093a3176 	j	84e8c5d8 <__stack+0x4e4c5d8>
80001dc8:	00000000 	nop
80001dcc:	093a3061 	j	84e8c184 <__stack+0x4e4c184>
80001dd0:	00000000 	nop
80001dd4:	093a3161 	j	84e8c584 <__stack+0x4e4c584>
80001dd8:	00000000 	nop
80001ddc:	093a3261 	j	84e8c984 <__stack+0x4e4c984>
80001de0:	00000000 	nop
80001de4:	093a3361 	j	84e8cd84 <__stack+0x4e4cd84>
80001de8:	00000000 	nop
80001dec:	093a3074 	j	84e8c1d0 <__stack+0x4e4c1d0>
80001df0:	00000000 	nop
80001df4:	093a3174 	j	84e8c5d0 <__stack+0x4e4c5d0>
80001df8:	00000000 	nop
80001dfc:	093a3274 	j	84e8c9d0 <__stack+0x4e4c9d0>
80001e00:	00000000 	nop
80001e04:	093a3374 	j	84e8cdd0 <__stack+0x4e4cdd0>
80001e08:	00000000 	nop
80001e0c:	093a3474 	j	84e8d1d0 <__stack+0x4e4d1d0>
80001e10:	00000000 	nop
80001e14:	093a3574 	j	84e8d5d0 <__stack+0x4e4d5d0>
80001e18:	00000000 	nop
80001e1c:	093a3674 	j	84e8d9d0 <__stack+0x4e4d9d0>
80001e20:	00000000 	nop
80001e24:	093a3774 	j	84e8ddd0 <__stack+0x4e4ddd0>
80001e28:	00000000 	nop
80001e2c:	093a3073 	j	84e8c1cc <__stack+0x4e4c1cc>
80001e30:	00000000 	nop
80001e34:	093a3173 	j	84e8c5cc <__stack+0x4e4c5cc>
80001e38:	00000000 	nop
80001e3c:	093a3273 	j	84e8c9cc <__stack+0x4e4c9cc>
80001e40:	00000000 	nop
80001e44:	093a3373 	j	84e8cdcc <__stack+0x4e4cdcc>
80001e48:	00000000 	nop
80001e4c:	093a3473 	j	84e8d1cc <__stack+0x4e4d1cc>
80001e50:	00000000 	nop
80001e54:	093a3573 	j	84e8d5cc <__stack+0x4e4d5cc>
80001e58:	00000000 	nop
80001e5c:	093a3673 	j	84e8d9cc <__stack+0x4e4d9cc>
80001e60:	00000000 	nop
80001e64:	093a3773 	j	84e8ddcc <__stack+0x4e4ddcc>
80001e68:	00000000 	nop
80001e6c:	093a3874 	j	84e8e1d0 <__stack+0x4e4e1d0>
80001e70:	00000000 	nop
80001e74:	093a3974 	j	84e8e5d0 <__stack+0x4e4e5d0>
80001e78:	00000000 	nop
80001e7c:	093a306b 	j	84e8c1ac <__stack+0x4e4c1ac>
80001e80:	00000000 	nop
80001e84:	093a316b 	j	84e8c5ac <__stack+0x4e4c5ac>
80001e88:	00000000 	nop
80001e8c:	093a7067 	j	84e9c19c <__stack+0x4e5c19c>
80001e90:	00000000 	nop
80001e94:	093a7073 	j	84e9c1cc <__stack+0x4e5c1cc>
80001e98:	00000000 	nop
80001e9c:	093a7066 	j	84e9c198 <__stack+0x4e5c198>
80001ea0:	00000000 	nop
80001ea4:	093a6172 	j	84e985c8 <__stack+0x4e585c8>
80001ea8:	00000000 	nop
80001eac:	093a6968 	j	84e9a5a0 <__stack+0x4e5a5a0>
80001eb0:	00000000 	nop
80001eb4:	093a6f6c 	j	84e9bdb0 <__stack+0x4e5bdb0>
80001eb8:	00000000 	nop
80001ebc:	3a637065 	xori	v1,s3,0x7065
80001ec0:	20202020 	addi	zero,at,8224
80001ec4:	00000920 	0x920
80001ec8:	56646142 	bnel	s3,a0,8001a3d4 <__global+0x10034>
80001ecc:	72646441 	0x72646441
80001ed0:	0000093a 	0x93a
80001ed4:	74617453 	jalx	8185d14c <__stack+0x181d14c>
80001ed8:	203a7375 	addi	k0,at,29557
80001edc:	00092020 	add	a0,zero,t1
80001ee0:	73756143 	0x73756143
80001ee4:	20203a65 	addi	zero,at,14949
80001ee8:	00092020 	add	a0,zero,t1
80001eec:	49646142 	0x49646142
80001ef0:	7274736e 	0x7274736e
80001ef4:	0009203a 	0x9203a
80001ef8:	50646142 	beql	v1,a0,8001a404 <__global+0x10064>
80001efc:	74736e49 	jalx	81cdb924 <__stack+0x1c9b924>
80001f00:	00093a72 	tlt	zero,t1,0xe9

Disassembly of section .data:

80001f08 <__temp_space>:
80001f08:	00000000 	nop
80001f0c:	00000000 	nop
80001f10:	00000000 	nop
80001f14:	00000000 	nop

80001f18 <impure_data>:
80001f18:	00000000 	nop
80001f1c:	80002204 	lb	zero,8708(zero)
80001f20:	8000226c 	lb	zero,8812(zero)
80001f24:	800022d4 	lb	zero,8916(zero)
80001f28:	00000000 	nop
80001f2c:	00000000 	nop
80001f30:	00000000 	nop
80001f34:	00000000 	nop
80001f38:	00000000 	nop
80001f3c:	00000000 	nop
80001f40:	00000000 	nop
80001f44:	00000000 	nop
80001f48:	00000000 	nop
80001f4c:	80001ad8 	lb	zero,6872(zero)
80001f50:	00000000 	nop
80001f54:	00000000 	nop
80001f58:	00000000 	nop
80001f5c:	00000000 	nop
80001f60:	00000000 	nop
80001f64:	00000000 	nop
80001f68:	00000000 	nop
80001f6c:	00000000 	nop
80001f70:	00000000 	nop
80001f74:	00000000 	nop
80001f78:	00000000 	nop
80001f7c:	00000000 	nop
80001f80:	00000000 	nop
80001f84:	00000000 	nop
80001f88:	00000000 	nop
80001f8c:	00000000 	nop
80001f90:	00000000 	nop
80001f94:	00000000 	nop
80001f98:	00000000 	nop
80001f9c:	00000000 	nop
80001fa0:	00000000 	nop
80001fa4:	00000000 	nop
80001fa8:	00000000 	nop
80001fac:	00000000 	nop
80001fb0:	00000000 	nop
80001fb4:	00000000 	nop
80001fb8:	00000000 	nop
80001fbc:	00000000 	nop
80001fc0:	00000001 	movf	zero,zero,$fcc0
80001fc4:	00000000 	nop
80001fc8:	abcd330e 	swl	t5,13070(s8)
80001fcc:	e66d1234 	swc1	$f13,4660(s3)
80001fd0:	0005deec 	0x5deec
80001fd4:	0000000b 	movn	zero,zero,zero
80001fd8:	00000000 	nop
80001fdc:	00000000 	nop
80001fe0:	00000000 	nop
80001fe4:	00000000 	nop
80001fe8:	00000000 	nop
80001fec:	00000000 	nop
80001ff0:	00000000 	nop
80001ff4:	00000000 	nop
80001ff8:	00000000 	nop
80001ffc:	00000000 	nop
80002000:	00000000 	nop
80002004:	00000000 	nop
80002008:	00000000 	nop
8000200c:	00000000 	nop
80002010:	00000000 	nop
80002014:	00000000 	nop
80002018:	00000000 	nop
8000201c:	00000000 	nop
80002020:	00000000 	nop
80002024:	00000000 	nop
80002028:	00000000 	nop
8000202c:	00000000 	nop
80002030:	00000000 	nop
80002034:	00000000 	nop
80002038:	00000000 	nop
8000203c:	00000000 	nop
80002040:	00000000 	nop
80002044:	00000000 	nop
80002048:	00000000 	nop
8000204c:	00000000 	nop
80002050:	00000000 	nop
80002054:	00000000 	nop
80002058:	00000000 	nop
8000205c:	00000000 	nop
80002060:	00000000 	nop
80002064:	00000000 	nop
80002068:	00000000 	nop
8000206c:	00000000 	nop
80002070:	00000000 	nop
80002074:	00000000 	nop
80002078:	00000000 	nop
8000207c:	00000000 	nop
80002080:	00000000 	nop
80002084:	00000000 	nop
80002088:	00000000 	nop
8000208c:	00000000 	nop
80002090:	00000000 	nop
80002094:	00000000 	nop
80002098:	00000000 	nop
8000209c:	00000000 	nop
800020a0:	00000000 	nop
800020a4:	00000000 	nop
800020a8:	00000000 	nop
800020ac:	00000000 	nop
800020b0:	00000000 	nop
800020b4:	00000000 	nop
800020b8:	00000000 	nop
800020bc:	00000000 	nop
800020c0:	00000000 	nop
800020c4:	00000000 	nop
800020c8:	00000000 	nop
800020cc:	00000000 	nop
800020d0:	00000000 	nop
800020d4:	00000000 	nop
800020d8:	00000000 	nop
800020dc:	00000000 	nop
800020e0:	00000000 	nop
800020e4:	00000000 	nop
800020e8:	00000000 	nop
800020ec:	00000000 	nop
800020f0:	00000000 	nop
800020f4:	00000000 	nop
800020f8:	00000000 	nop
800020fc:	00000000 	nop
80002100:	00000000 	nop
80002104:	00000000 	nop
80002108:	00000000 	nop
8000210c:	00000000 	nop
80002110:	00000000 	nop
80002114:	00000000 	nop
80002118:	00000000 	nop
8000211c:	00000000 	nop
80002120:	00000000 	nop
80002124:	00000000 	nop
80002128:	00000000 	nop
8000212c:	00000000 	nop
80002130:	00000000 	nop
80002134:	00000000 	nop
80002138:	00000000 	nop
8000213c:	00000000 	nop
80002140:	00000000 	nop
80002144:	00000000 	nop
80002148:	00000000 	nop
8000214c:	00000000 	nop
80002150:	00000000 	nop
80002154:	00000000 	nop
80002158:	00000000 	nop
8000215c:	00000000 	nop
80002160:	00000000 	nop
80002164:	00000000 	nop
80002168:	00000000 	nop
8000216c:	00000000 	nop
80002170:	00000000 	nop
80002174:	00000000 	nop
80002178:	00000000 	nop
8000217c:	00000000 	nop
80002180:	00000000 	nop
80002184:	00000000 	nop
80002188:	00000000 	nop
8000218c:	00000000 	nop
80002190:	00000000 	nop
80002194:	00000000 	nop
80002198:	00000000 	nop
8000219c:	00000000 	nop
800021a0:	00000000 	nop
800021a4:	00000000 	nop
800021a8:	00000000 	nop
800021ac:	00000000 	nop
800021b0:	00000000 	nop
800021b4:	00000000 	nop
800021b8:	00000000 	nop
800021bc:	00000000 	nop
800021c0:	00000000 	nop
800021c4:	00000000 	nop
800021c8:	00000000 	nop
800021cc:	00000000 	nop
800021d0:	00000000 	nop
800021d4:	00000000 	nop
800021d8:	00000000 	nop
800021dc:	00000000 	nop
800021e0:	00000000 	nop
800021e4:	00000000 	nop
800021e8:	00000000 	nop
800021ec:	00000000 	nop
800021f0:	00000000 	nop
800021f4:	00000000 	nop
800021f8:	00000000 	nop
800021fc:	00000000 	nop
80002200:	00000000 	nop
80002204:	00000000 	nop
80002208:	00000000 	nop
8000220c:	00000000 	nop
80002210:	00000000 	nop
80002214:	00000000 	nop
80002218:	00000000 	nop
8000221c:	00000000 	nop
80002220:	00000000 	nop
80002224:	00000000 	nop
80002228:	00000000 	nop
8000222c:	00000000 	nop
80002230:	00000000 	nop
80002234:	00000000 	nop
80002238:	00000000 	nop
8000223c:	00000000 	nop
80002240:	00000000 	nop
80002244:	00000000 	nop
80002248:	00000000 	nop
8000224c:	00000000 	nop
80002250:	00000000 	nop
80002254:	00000000 	nop
80002258:	00000000 	nop
8000225c:	00000000 	nop
80002260:	00000000 	nop
80002264:	00000000 	nop
80002268:	00000000 	nop
8000226c:	00000000 	nop
80002270:	00000000 	nop
80002274:	00000000 	nop
80002278:	00000000 	nop
8000227c:	00000000 	nop
80002280:	00000000 	nop
80002284:	00000000 	nop
80002288:	00000000 	nop
8000228c:	00000000 	nop
80002290:	00000000 	nop
80002294:	00000000 	nop
80002298:	00000000 	nop
8000229c:	00000000 	nop
800022a0:	00000000 	nop
800022a4:	00000000 	nop
800022a8:	00000000 	nop
800022ac:	00000000 	nop
800022b0:	00000000 	nop
800022b4:	00000000 	nop
800022b8:	00000000 	nop
800022bc:	00000000 	nop
800022c0:	00000000 	nop
800022c4:	00000000 	nop
800022c8:	00000000 	nop
800022cc:	00000000 	nop
800022d0:	00000000 	nop
800022d4:	00000000 	nop
800022d8:	00000000 	nop
800022dc:	00000000 	nop
800022e0:	00000000 	nop
800022e4:	00000000 	nop
800022e8:	00000000 	nop
800022ec:	00000000 	nop
800022f0:	00000000 	nop
800022f4:	00000000 	nop
800022f8:	00000000 	nop
800022fc:	00000000 	nop
80002300:	00000000 	nop
80002304:	00000000 	nop
80002308:	00000000 	nop
8000230c:	00000000 	nop
80002310:	00000000 	nop
80002314:	00000000 	nop
80002318:	00000000 	nop
8000231c:	00000000 	nop
80002320:	00000000 	nop
80002324:	00000000 	nop
80002328:	00000000 	nop
8000232c:	00000000 	nop
80002330:	00000000 	nop
80002334:	00000000 	nop
80002338:	00000000 	nop
8000233c:	00000000 	nop

80002340 <__start_ctx>:
80002340:	00000000 	nop
80002344:	00000000 	nop
80002348:	00000000 	nop
8000234c:	00000000 	nop
80002350:	00000000 	nop
80002354:	00000000 	nop
80002358:	00000000 	nop
8000235c:	00000000 	nop
80002360:	00000000 	nop
80002364:	00000000 	nop
80002368:	00000000 	nop
8000236c:	00000000 	nop
80002370:	00000000 	nop
80002374:	00000000 	nop
80002378:	00000000 	nop
8000237c:	00000000 	nop
80002380:	00000000 	nop
80002384:	00000000 	nop

80002388 <__MIPS_UHI_BAD_POINTER>:
80002388:	3a494855 	xori	t1,s2,0x4855
8000238c:	44414220 	0x44414220
80002390:	494f5020 	0x494f5020
80002394:	5245544e 	beql	s2,a1,800174d0 <__global+0xd130>
80002398:	00000000 	nop

Disassembly of section .sdata:

800023a0 <__dso_handle>:
800023a0:	00000000 	nop

800023a4 <_global_impure_ptr>:
800023a4:	80001f18 	lb	zero,7960(zero)

800023a8 <_impure_ptr>:
800023a8:	80001f18 	lb	zero,7960(zero)

Disassembly of section .bss:

800023ac <_bss_start>:
800023ac:	00000000 	nop

800023b0 <dtor_idx.3436>:
800023b0:	00000000 	nop

800023b4 <object.3446>:
800023b4:	00000000 	nop
800023b8:	00000000 	nop
800023bc:	00000000 	nop
800023c0:	00000000 	nop
800023c4:	00000000 	nop
800023c8:	00000000 	nop

Disassembly of section .startdata:

800023d0 <__lstack-0x400>:
800023d0:	00000000 	nop
800023d4:	00000000 	nop
800023d8:	00000000 	nop
800023dc:	00000000 	nop
800023e0:	00000000 	nop
800023e4:	00000000 	nop
800023e8:	00000000 	nop
800023ec:	00000000 	nop
800023f0:	00000000 	nop
800023f4:	00000000 	nop
800023f8:	00000000 	nop
800023fc:	00000000 	nop
80002400:	00000000 	nop
80002404:	00000000 	nop
80002408:	00000000 	nop
8000240c:	00000000 	nop
80002410:	00000000 	nop
80002414:	00000000 	nop
80002418:	00000000 	nop
8000241c:	00000000 	nop
80002420:	00000000 	nop
80002424:	00000000 	nop
80002428:	00000000 	nop
8000242c:	00000000 	nop
80002430:	00000000 	nop
80002434:	00000000 	nop
80002438:	00000000 	nop
8000243c:	00000000 	nop
80002440:	00000000 	nop
80002444:	00000000 	nop
80002448:	00000000 	nop
8000244c:	00000000 	nop
80002450:	00000000 	nop
80002454:	00000000 	nop
80002458:	00000000 	nop
8000245c:	00000000 	nop
80002460:	00000000 	nop
80002464:	00000000 	nop
80002468:	00000000 	nop
8000246c:	00000000 	nop
80002470:	00000000 	nop
80002474:	00000000 	nop
80002478:	00000000 	nop
8000247c:	00000000 	nop
80002480:	00000000 	nop
80002484:	00000000 	nop
80002488:	00000000 	nop
8000248c:	00000000 	nop
80002490:	00000000 	nop
80002494:	00000000 	nop
80002498:	00000000 	nop
8000249c:	00000000 	nop
800024a0:	00000000 	nop
800024a4:	00000000 	nop
800024a8:	00000000 	nop
800024ac:	00000000 	nop
800024b0:	00000000 	nop
800024b4:	00000000 	nop
800024b8:	00000000 	nop
800024bc:	00000000 	nop
800024c0:	00000000 	nop
800024c4:	00000000 	nop
800024c8:	00000000 	nop
800024cc:	00000000 	nop
800024d0:	00000000 	nop
800024d4:	00000000 	nop
800024d8:	00000000 	nop
800024dc:	00000000 	nop
800024e0:	00000000 	nop
800024e4:	00000000 	nop
800024e8:	00000000 	nop
800024ec:	00000000 	nop
800024f0:	00000000 	nop
800024f4:	00000000 	nop
800024f8:	00000000 	nop
800024fc:	00000000 	nop
80002500:	00000000 	nop
80002504:	00000000 	nop
80002508:	00000000 	nop
8000250c:	00000000 	nop
80002510:	00000000 	nop
80002514:	00000000 	nop
80002518:	00000000 	nop
8000251c:	00000000 	nop
80002520:	00000000 	nop
80002524:	00000000 	nop
80002528:	00000000 	nop
8000252c:	00000000 	nop
80002530:	00000000 	nop
80002534:	00000000 	nop
80002538:	00000000 	nop
8000253c:	00000000 	nop
80002540:	00000000 	nop
80002544:	00000000 	nop
80002548:	00000000 	nop
8000254c:	00000000 	nop
80002550:	00000000 	nop
80002554:	00000000 	nop
80002558:	00000000 	nop
8000255c:	00000000 	nop
80002560:	00000000 	nop
80002564:	00000000 	nop
80002568:	00000000 	nop
8000256c:	00000000 	nop
80002570:	00000000 	nop
80002574:	00000000 	nop
80002578:	00000000 	nop
8000257c:	00000000 	nop
80002580:	00000000 	nop
80002584:	00000000 	nop
80002588:	00000000 	nop
8000258c:	00000000 	nop
80002590:	00000000 	nop
80002594:	00000000 	nop
80002598:	00000000 	nop
8000259c:	00000000 	nop
800025a0:	00000000 	nop
800025a4:	00000000 	nop
800025a8:	00000000 	nop
800025ac:	00000000 	nop
800025b0:	00000000 	nop
800025b4:	00000000 	nop
800025b8:	00000000 	nop
800025bc:	00000000 	nop
800025c0:	00000000 	nop
800025c4:	00000000 	nop
800025c8:	00000000 	nop
800025cc:	00000000 	nop
800025d0:	00000000 	nop
800025d4:	00000000 	nop
800025d8:	00000000 	nop
800025dc:	00000000 	nop
800025e0:	00000000 	nop
800025e4:	00000000 	nop
800025e8:	00000000 	nop
800025ec:	00000000 	nop
800025f0:	00000000 	nop
800025f4:	00000000 	nop
800025f8:	00000000 	nop
800025fc:	00000000 	nop
80002600:	00000000 	nop
80002604:	00000000 	nop
80002608:	00000000 	nop
8000260c:	00000000 	nop
80002610:	00000000 	nop
80002614:	00000000 	nop
80002618:	00000000 	nop
8000261c:	00000000 	nop
80002620:	00000000 	nop
80002624:	00000000 	nop
80002628:	00000000 	nop
8000262c:	00000000 	nop
80002630:	00000000 	nop
80002634:	00000000 	nop
80002638:	00000000 	nop
8000263c:	00000000 	nop
80002640:	00000000 	nop
80002644:	00000000 	nop
80002648:	00000000 	nop
8000264c:	00000000 	nop
80002650:	00000000 	nop
80002654:	00000000 	nop
80002658:	00000000 	nop
8000265c:	00000000 	nop
80002660:	00000000 	nop
80002664:	00000000 	nop
80002668:	00000000 	nop
8000266c:	00000000 	nop
80002670:	00000000 	nop
80002674:	00000000 	nop
80002678:	00000000 	nop
8000267c:	00000000 	nop
80002680:	00000000 	nop
80002684:	00000000 	nop
80002688:	00000000 	nop
8000268c:	00000000 	nop
80002690:	00000000 	nop
80002694:	00000000 	nop
80002698:	00000000 	nop
8000269c:	00000000 	nop
800026a0:	00000000 	nop
800026a4:	00000000 	nop
800026a8:	00000000 	nop
800026ac:	00000000 	nop
800026b0:	00000000 	nop
800026b4:	00000000 	nop
800026b8:	00000000 	nop
800026bc:	00000000 	nop
800026c0:	00000000 	nop
800026c4:	00000000 	nop
800026c8:	00000000 	nop
800026cc:	00000000 	nop
800026d0:	00000000 	nop
800026d4:	00000000 	nop
800026d8:	00000000 	nop
800026dc:	00000000 	nop
800026e0:	00000000 	nop
800026e4:	00000000 	nop
800026e8:	00000000 	nop
800026ec:	00000000 	nop
800026f0:	00000000 	nop
800026f4:	00000000 	nop
800026f8:	00000000 	nop
800026fc:	00000000 	nop
80002700:	00000000 	nop
80002704:	00000000 	nop
80002708:	00000000 	nop
8000270c:	00000000 	nop
80002710:	00000000 	nop
80002714:	00000000 	nop
80002718:	00000000 	nop
8000271c:	00000000 	nop
80002720:	00000000 	nop
80002724:	00000000 	nop
80002728:	00000000 	nop
8000272c:	00000000 	nop
80002730:	00000000 	nop
80002734:	00000000 	nop
80002738:	00000000 	nop
8000273c:	00000000 	nop
80002740:	00000000 	nop
80002744:	00000000 	nop
80002748:	00000000 	nop
8000274c:	00000000 	nop
80002750:	00000000 	nop
80002754:	00000000 	nop
80002758:	00000000 	nop
8000275c:	00000000 	nop
80002760:	00000000 	nop
80002764:	00000000 	nop
80002768:	00000000 	nop
8000276c:	00000000 	nop
80002770:	00000000 	nop
80002774:	00000000 	nop
80002778:	00000000 	nop
8000277c:	00000000 	nop
80002780:	00000000 	nop
80002784:	00000000 	nop
80002788:	00000000 	nop
8000278c:	00000000 	nop
80002790:	00000000 	nop
80002794:	00000000 	nop
80002798:	00000000 	nop
8000279c:	00000000 	nop
800027a0:	00000000 	nop
800027a4:	00000000 	nop
800027a8:	00000000 	nop
800027ac:	00000000 	nop
800027b0:	00000000 	nop
800027b4:	00000000 	nop
800027b8:	00000000 	nop
800027bc:	00000000 	nop
800027c0:	00000000 	nop
800027c4:	00000000 	nop
800027c8:	00000000 	nop
800027cc:	00000000 	nop

800027d0 <__lstack>:
800027d0:	00000000 	nop
800027d4:	00000000 	nop
800027d8:	00000000 	nop
800027dc:	00000000 	nop

Disassembly of section .debug_aranges:

00000000 <.debug_aranges>:
   0:	0000001c 	0x1c
   4:	00000002 	srl	zero,zero,0x0
   8:	00040000 	sll	zero,a0,0x0
   c:	00000000 	nop
  10:	80000320 	lb	zero,800(zero)
  14:	00000298 	0x298
  18:	00000000 	nop
  1c:	00000000 	nop
  20:	0000001c 	0x1c
  24:	00b60002 	0xb60002
  28:	00040000 	sll	zero,a0,0x0
  2c:	00000000 	nop
  30:	9fc00000 	0x9fc00000
  34:	0000049c 	0x49c
  38:	00000000 	nop
  3c:	00000000 	nop
  40:	0000001c 	0x1c
  44:	012d0002 	0x12d0002
  48:	00040000 	sll	zero,a0,0x0
  4c:	00000000 	nop
  50:	8000075c 	lb	zero,1884(zero)
  54:	0000006c 	0x6c
  58:	00000000 	nop
  5c:	00000000 	nop
  60:	0000001c 	0x1c
  64:	024a0002 	0x24a0002
  68:	00040000 	sll	zero,a0,0x0
  6c:	00000000 	nop
  70:	80000810 	lb	zero,2064(zero)
  74:	00000028 	0x28
  78:	00000000 	nop
  7c:	00000000 	nop
  80:	0000001c 	0x1c
  84:	03500002 	0x3500002
  88:	00040000 	sll	zero,a0,0x0
  8c:	00000000 	nop
  90:	80000838 	lb	zero,2104(zero)
  94:	0000003c 	0x3c
  98:	00000000 	nop
  9c:	00000000 	nop
  a0:	00000014 	0x14
  a4:	0c300002 	jal	c00008 <__memory_size+0xbe0808>
  a8:	00040000 	sll	zero,a0,0x0
  ac:	00000000 	nop
  b0:	00000000 	nop
  b4:	00000000 	nop
  b8:	0000001c 	0x1c
  bc:	14c00002 	bnez	a2,c8 <__isr_vec_space+0xa8>
  c0:	00040000 	sll	zero,a0,0x0
  c4:	00000000 	nop
  c8:	80000874 	lb	zero,2164(zero)
  cc:	00000108 	0x108
  d0:	00000000 	nop
  d4:	00000000 	nop
  d8:	0000001c 	0x1c
  dc:	1df00002 	0x1df00002
  e0:	00040000 	sll	zero,a0,0x0
  e4:	00000000 	nop
  e8:	8000097c 	lb	zero,2428(zero)
  ec:	00000180 	sll	zero,zero,0x6
  f0:	00000000 	nop
  f4:	00000000 	nop
  f8:	0000001c 	0x1c
  fc:	27450002 	addiu	a1,k0,2
 100:	00040000 	sll	zero,a0,0x0
 104:	00000000 	nop
 108:	80000afc 	lb	zero,2812(zero)
 10c:	00000088 	0x88
 110:	00000000 	nop
 114:	00000000 	nop
 118:	0000001c 	0x1c
 11c:	286b0002 	slti	t3,v1,2
 120:	00040000 	sll	zero,a0,0x0
 124:	00000000 	nop
 128:	80000b84 	lb	zero,2948(zero)
 12c:	000000b8 	0xb8
 130:	00000000 	nop
 134:	00000000 	nop
 138:	0000001c 	0x1c
 13c:	29280002 	slti	t0,t1,2
 140:	00040000 	sll	zero,a0,0x0
 144:	00000000 	nop
 148:	80000c3c 	lb	zero,3132(zero)
 14c:	00000048 	0x48
 150:	00000000 	nop
 154:	00000000 	nop
 158:	00000024 	and	zero,zero,zero
 15c:	2a370002 	slti	s7,s1,2
 160:	00040000 	sll	zero,a0,0x0
 164:	00000000 	nop
 168:	80000000 	lb	zero,0(zero)
 16c:	00000194 	0x194
 170:	80001828 	lb	zero,6184(zero)
 174:	000001c8 	0x1c8
 178:	00000000 	nop
 17c:	00000000 	nop
 180:	0000001c 	0x1c
 184:	2b020002 	slti	v0,t8,2
 188:	00040000 	sll	zero,a0,0x0
 18c:	00000000 	nop
 190:	80000c84 	lb	zero,3204(zero)
 194:	000007a4 	0x7a4
 198:	00000000 	nop
 19c:	00000000 	nop
 1a0:	0000001c 	0x1c
 1a4:	36770002 	ori	s7,s3,0x2
 1a8:	00040000 	sll	zero,a0,0x0
 1ac:	00000000 	nop
 1b0:	80001428 	lb	zero,5160(zero)
 1b4:	000000b4 	teq	zero,zero,0x2
 1b8:	00000000 	nop
 1bc:	00000000 	nop
 1c0:	0000001c 	0x1c
 1c4:	37490002 	ori	t1,k0,0x2
 1c8:	00040000 	sll	zero,a0,0x0
 1cc:	00000000 	nop
 1d0:	800014dc 	lb	zero,5340(zero)
 1d4:	0000027c 	0x27c
 1d8:	00000000 	nop
 1dc:	00000000 	nop
 1e0:	0000001c 	0x1c
 1e4:	38170002 	xori	s7,zero,0x2
 1e8:	00040000 	sll	zero,a0,0x0
 1ec:	00000000 	nop
 1f0:	80000200 	lb	zero,512(zero)
 1f4:	00000118 	0x118
 1f8:	00000000 	nop
 1fc:	00000000 	nop
 200:	00000014 	0x14
 204:	38e40002 	xori	a0,a3,0x2
 208:	00040000 	sll	zero,a0,0x0
 20c:	00000000 	nop
 210:	00000000 	nop
 214:	00000000 	nop
 218:	0000001c 	0x1c
 21c:	39520002 	xori	s2,t2,0x2
 220:	00040000 	sll	zero,a0,0x0
 224:	00000000 	nop
 228:	80001774 	lb	zero,6004(zero)
 22c:	00000050 	0x50
 230:	00000000 	nop
 234:	00000000 	nop
 238:	0000001c 	0x1c
 23c:	3ad00002 	xori	s0,s6,0x2
 240:	00040000 	sll	zero,a0,0x0
 244:	00000000 	nop
 248:	800017c4 	lb	zero,6084(zero)
 24c:	00000014 	0x14
 250:	00000000 	nop
 254:	00000000 	nop
 258:	0000001c 	0x1c
 25c:	3d800002 	0x3d800002
 260:	00040000 	sll	zero,a0,0x0
 264:	00000000 	nop
 268:	800017d8 	lb	zero,6104(zero)
 26c:	00000044 	0x44
 270:	00000000 	nop
 274:	00000000 	nop
 278:	0000001c 	0x1c
 27c:	40360002 	0x40360002
 280:	00040000 	sll	zero,a0,0x0
 284:	00000000 	nop
 288:	8000181c 	lb	zero,6172(zero)
 28c:	0000000c 	syscall
 290:	00000000 	nop
 294:	00000000 	nop

Disassembly of section .debug_info:

00000000 <.debug_info>:
       0:	000000b2 	tlt	zero,zero,0x2
       4:	00000002 	srl	zero,zero,0x0
       8:	01040000 	0x1040000
       c:	00000000 	nop
      10:	80000320 	lb	zero,800(zero)
      14:	800005b8 	lb	zero,1464(zero)
      18:	6573752f 	0x6573752f
      1c:	696d2f72 	0x696d2f72
      20:	77737370 	jalx	dcdcdc0 <__memory_size+0xdcbd5c0>
      24:	69672f74 	0x69672f74
      28:	656e2f74 	0x656e2f74
      2c:	62696c77 	0x62696c77
      30:	62696c2f 	0x62696c2f
      34:	736f6c67 	0x736f6c67
      38:	696d2f73 	0x696d2f73
      3c:	632f7370 	0x632f7370
      40:	2e307472 	sltiu	s0,s1,29810
      44:	752f0053 	jalx	4bc014c <__memory_size+0x4ba094c>
      48:	2f726573 	sltiu	s2,k1,25971
      4c:	7370696d 	s16sdi	xr5,k1,52,
      50:	2f747773 	sltiu	s4,k1,30579
      54:	6c697562 	0x6c697562
      58:	30322d64 	andi	s2,at,0x2d64
      5c:	302e3531 	andi	t6,at,0x3531
      60:	35302d36 	ori	s0,t1,0x2d36
      64:	6a626f2f 	0x6a626f2f
      68:	6f72632d 	0x6f72632d
      6c:	6d2d7373 	0x6d2d7373
      70:	2d737069 	sltiu	s3,t3,28777
      74:	2d69746d 	sltiu	t1,t3,29805
      78:	2f666c65 	sltiu	a2,k1,27749
      7c:	6c77656e 	0x6c77656e
      80:	6d2f6269 	0x6d2f6269
      84:	2d737069 	sltiu	s3,t3,28777
      88:	2d69746d 	sltiu	t1,t3,29805
      8c:	2f666c65 	sltiu	a2,k1,27749
      90:	732f6c65 	s8sdi	xr1,t9,-37,ptn3
      94:	6c2f666f 	0x6c2f666f
      98:	6c676269 	0x6c676269
      9c:	2f73736f 	sltiu	s3,k1,29551
      a0:	7370696d 	s16sdi	xr5,k1,52,
      a4:	554e4700 	bnel	t2,t6,11ca8 <__isr_vec_space+0x11c88>
      a8:	20534120 	addi	s3,v0,16672
      ac:	34322e32 	ori	s2,at,0x2e32
      b0:	0030392e 	0x30392e
      b4:	00738001 	0x738001
      b8:	00020000 	sll	zero,v0,0x0
      bc:	00000014 	0x14
      c0:	00de0104 	0xde0104
      c4:	00000000 	nop
      c8:	049c9fc0 	0x49c9fc0
      cc:	6f629fc0 	0x6f629fc0
      d0:	532e746f 	beql	t9,t6,1d290 <__isr_vec_space+0x1d270>
      d4:	5c3a4300 	0x5c3a4300
      d8:	72657355 	s32sdi	xr13,s3,1392
      dc:	614a5c73 	0x614a5c73
      e0:	72656976 	0x72656976
      e4:	7365445c 	udi12	k1,a1,t0,0x11
      e8:	706f746b 	s16std	xr1,v1,-70,ptn1
      ec:	656c415c 	0x656c415c
      f0:	696e616d 	0x696e616d
      f4:	72505c61 	0x72505c61
      f8:	7365636f 	0x7365636f
      fc:	73726f73 	d32sar	xr13,xr11,xr9,xr12,13
     100:	4550475c 	bc1any4f	$fcc4,11e74 <__isr_vec_space+0x11e54>
     104:	4d445f41 	0x4d445f41
     108:	72505c41 	0x72505c41
     10c:	6172676f 	0x6172676f
     110:	435c736d 	c0	0x15c736d
     114:	6d617845 	0x6d617845
     118:	00656c70 	tge	v1,a1,0x1b1
     11c:	20554e47 	addi	s5,v0,20039
     120:	32205341 	andi	zero,s1,0x5341
     124:	2e34322e 	sltiu	s4,s1,12846
     128:	01003039 	0x1003039
     12c:	00011980 	sll	v1,at,0x6
     130:	28000400 	slti	zero,zero,1024
     134:	04000000 	bltz	zero,138 <__isr_vec_space+0x118>
     138:	00001501 	0x1501
     13c:	000e0100 	sll	zero,t6,0x4
     140:	00a30000 	0xa30000
     144:	075c0000 	0x75c0000
     148:	006c8000 	0x6c8000
     14c:	02020000 	0x2020000
     150:	04020000 	bltzl	zero,154 <__isr_vec_space+0x134>
     154:	00006d07 	0x6d07
     158:	05040300 	0x5040300
     15c:	00746e69 	0x746e69
     160:	05050402 	0x5050402
     164:	02000000 	0x2000000
     168:	008a0601 	0x8a0601
     16c:	01020000 	0x1020000
     170:	00008808 	0x8808
     174:	05020200 	bltzl	t0,978 <__isr_vec_space+0x958>
     178:	0000012b 	0x12b
     17c:	fa070202 	sdc2	$7,514(s0)
     180:	02000000 	0x2000000
     184:	00000508 	0x508
     188:	08020000 	j	80000 <__memory_size+0x60800>
     18c:	00006807 	srav	t5,zero,zero
     190:	07040200 	0x7040200
     194:	00000072 	tlt	zero,zero,0x1
     198:	3f070402 	0x3f070402
     19c:	04000001 	bltz	zero,1a4 <__isr_vec_space+0x184>
     1a0:	08010204 	j	40810 <__memory_size+0x21010>
     1a4:	00000091 	0x91
     1a8:	00009605 	0x9605
     1ac:	2c0d0100 	sltiu	t5,zero,256
     1b0:	5c000000 	bgtzl	zero,1b4 <__isr_vec_space+0x194>
     1b4:	58800007 	blezl	a0,1d4 <__isr_vec_space+0x1b4>
     1b8:	01000000 	0x1000000
     1bc:	0000d59c 	0xd59c
     1c0:	009b0600 	0x9b0600
     1c4:	0e010000 	jal	8040000 <__memory_size+0x8020800>
     1c8:	000000d5 	0xd5
     1cc:	f9c08080 	sdc2	$0,-32640(t6)
     1d0:	00ea067b 	0xea067b
     1d4:	0f010000 	jal	c040000 <__memory_size+0xc020800>
     1d8:	000000d5 	0xd5
     1dc:	f9c08084 	sdc2	$0,-32636(t6)
     1e0:	007f067b 	0x7f067b
     1e4:	10010000 	beq	zero,at,1e8 <__isr_vec_space+0x1c8>
     1e8:	000000d5 	0xd5
     1ec:	f9c08088 	sdc2	$0,-32632(t6)
     1f0:	0135067b 	0x135067b
     1f4:	11010000 	beq	t0,at,1f8 <__isr_vec_space+0x1d8>
     1f8:	000000d5 	0xd5
     1fc:	f9c08092 	sdc2	$0,-32622(t6)
     200:	0407007b 	aclr	0x0,123(zero)
     204:	000000db 	0xdb
     208:	00002c08 	0x2c08
     20c:	010d0900 	0x10d0900
     210:	22010000 	addi	at,s0,0
     214:	800007b4 	lb	zero,1972(zero)
     218:	00000014 	0x14
     21c:	630a9c01 	0x630a9c01
     220:	01007874 	teq	t0,zero,0x1e1
     224:	00007222 	0x7222
     228:	0b540100 	j	d500400 <__memory_size+0xd4e0c00>
     22c:	00000124 	0x124
     230:	002c2201 	0x2c2201
     234:	55010000 	bnel	t0,at,238 <__isr_vec_space+0x218>
     238:	0000f206 	0xf206
     23c:	d5230100 	ldc1	$f3,256(t1)
     240:	80000000 	lb	zero,0(zero)
     244:	7bfc8080 	xori.b	$w2,$w16,0xfc
     248:	01020000 	0x1020000
     24c:	00040000 	sll	zero,a0,0x0
     250:	000000c8 	0xc8
     254:	018c0104 	0x18c0104
     258:	57010000 	bnel	t8,at,25c <__isr_vec_space+0x23c>
     25c:	10000001 	b	264 <__isr_vec_space+0x244>
     260:	28800008 	slti	zero,a0,8
     264:	78000000 	andi.b	$w0,$w0,0x0
     268:	02000002 	0x2000002
     26c:	006d0704 	0x6d0704
     270:	04030000 	bgezl	zero,274 <__isr_vec_space+0x254>
     274:	746e6905 	jalx	1b9a414 <__memory_size+0x1b7ac14>
     278:	05040200 	0x5040200
     27c:	00000005 	lsa	zero,zero,zero,0x1
     280:	8a060102 	lwl	a2,258(s0)
     284:	02000000 	0x2000000
     288:	00880801 	movf	at,a0,$fcc2
     28c:	02020000 	0x2020000
     290:	00012b05 	0x12b05
     294:	07020200 	bltzl	t8,a98 <__isr_vec_space+0xa78>
     298:	000000fa 	0xfa
     29c:	00050802 	srl	at,a1,0x0
     2a0:	02000000 	0x2000000
     2a4:	00680708 	0x680708
     2a8:	04020000 	bltzl	zero,2ac <__isr_vec_space+0x28c>
     2ac:	00007207 	0x7207
     2b0:	07040200 	0x7040200
     2b4:	0000013f 	0x13f
     2b8:	04050404 	0x4050404
     2bc:	00000076 	tne	zero,zero,0x1
     2c0:	08010206 	j	40818 <__memory_size+0x21018>
     2c4:	00000091 	0x91
     2c8:	00014807 	srav	t1,at,zero
     2cc:	05020400 	bltzl	t0,12d0 <__isr_vec_space+0x12b0>
     2d0:	0000009d 	0x9d
     2d4:	00025d08 	0x25d08
     2d8:	48080000 	mfc2	t0,$0
     2dc:	01000002 	0x1000002
     2e0:	00025408 	0x25408
     2e4:	09000200 	j	4000800 <__memory_size+0x3fe1000>
     2e8:	00000262 	0x262
     2ec:	00284403 	0x284403
     2f0:	08100000 	j	400000 <__memory_size+0x3e0800>
     2f4:	00288000 	0x288000
     2f8:	9c010000 	0x9c010000
     2fc:	000000e5 	0xe5
     300:	006e660a 	0x6e660a
     304:	00703d01 	0x703d01
     308:	00000000 	nop
     30c:	2c0b0000 	sltiu	t3,zero,0
     310:	e5800008 	swc1	$f0,8(t4)
     314:	0c000000 	jal	0 <hardware_exit_hook>
     318:	30015701 	andi	at,zero,0x5701
     31c:	0156010c 	syscall	0x55804
     320:	55010c30 	bnel	t0,at,33e4 <__isr_vec_space+0x33c4>
     324:	5401f303 	bnel	zero,at,ffffcf34 <__entry+0x403fcf34>
     328:	0154010c 	syscall	0x55004
     32c:	0d000030 	jal	40000c0 <__memory_size+0x3fe08c0>
     330:	00000234 	teq	zero,zero,0x8
     334:	00280d02 	ror	at,t0,0x14
     338:	280e0000 	slti	t6,zero,0
     33c:	0e000000 	jal	8000000 <__memory_size+0x7fe0800>
     340:	00000070 	tge	zero,zero,0x1
     344:	00006e0e 	0x6e0e
     348:	006e0e00 	0x6e0e00
     34c:	00000000 	nop
     350:	000008dc 	0x8dc
     354:	017b0004 	sllv	zero,k1,t3
     358:	01040000 	0x1040000
     35c:	0000018c 	syscall	0x6
     360:	00036001 	0x36001
     364:	00083800 	sll	a3,t0,0x0
     368:	00003c80 	sll	a3,zero,0x12
     36c:	00032500 	sll	a0,v1,0x14
     370:	07040200 	0x7040200
     374:	0000006d 	0x6d
     378:	69050403 	0x69050403
     37c:	0200746e 	0x200746e
     380:	00050504 	0x50504
     384:	01020000 	0x1020000
     388:	00008a06 	0x8a06
     38c:	08010200 	j	40800 <__memory_size+0x21000>
     390:	00000088 	0x88
     394:	2b050202 	slti	a1,t8,514
     398:	02000001 	movf	zero,s0,$fcc0
     39c:	00fa0702 	0xfa0702
     3a0:	08020000 	j	80000 <__memory_size+0x60800>
     3a4:	00000005 	lsa	zero,zero,zero,0x1
     3a8:	07080200 	tgei	t8,512
     3ac:	00000068 	0x68
     3b0:	00048204 	0x48204
     3b4:	28070200 	slti	a3,zero,512
     3b8:	04000000 	bltz	zero,3bc <__isr_vec_space+0x39c>
     3bc:	00000460 	0x460
     3c0:	002f1003 	0x2f1003
     3c4:	43040000 	c0	0x1040000
     3c8:	03000005 	lsa	zero,t8,zero,0x1
     3cc:	00002f27 	0x2f27
     3d0:	042f0500 	0x42f0500
     3d4:	61040000 	0x61040000
     3d8:	00008d01 	0x8d01
     3dc:	07040200 	0x7040200
     3e0:	00000072 	tlt	zero,zero,0x1
     3e4:	4a030406 	c2	0x30406
     3e8:	000000b3 	tltu	zero,zero,0x2
     3ec:	00042907 	0x42907
     3f0:	814c0300 	lb	t4,768(t2)
     3f4:	07000000 	bltz	t8,3f8 <__isr_vec_space+0x3d8>
     3f8:	000003db 	0x3db
     3fc:	00b34d03 	0xb34d03
     400:	08000000 	j	0 <hardware_exit_hook>
     404:	0000003d 	0x3d
     408:	000000c3 	sra	zero,zero,0x3
     40c:	0000c309 	0xc309
     410:	02000300 	0x2000300
     414:	013f0704 	0x13f0704
     418:	080a0000 	j	280000 <__memory_size+0x260800>
     41c:	00eb4703 	0xeb4703
     420:	2d0b0000 	sltiu	t3,t0,0
     424:	03000005 	lsa	zero,t8,zero,0x1
     428:	00002849 	0x2849
     42c:	350b0000 	ori	t3,t0,0x0
     430:	03000005 	lsa	zero,t8,zero,0x1
     434:	0000944e 	0x944e
     438:	04000400 	bltz	zero,143c <__isr_vec_space+0x141c>
     43c:	000004c0 	sll	zero,zero,0x13
     440:	00ca4f03 	0xca4f03
     444:	9e040000 	0x9e040000
     448:	03000003 	0x3000003
     44c:	00006053 	0x6053
     450:	04040c00 	0x4040c00
     454:	0000057f 	0x57f
     458:	00211605 	0x211605
     45c:	af0d0000 	sw	t5,0(t8)
     460:	18000003 	blez	zero,470 <__isr_vec_space+0x450>
     464:	01612d05 	0x1612d05
     468:	e10b0000 	sc	t3,0(t0)
     46c:	05000004 	bltz	t0,480 <__isr_vec_space+0x460>
     470:	0001612f 	0x1612f
     474:	5f0e0000 	0x5f0e0000
     478:	3005006b 	andi	a1,zero,0x6b
     47c:	00000028 	0x28
     480:	05180b04 	0x5180b04
     484:	30050000 	andi	a1,zero,0x0
     488:	00000028 	0x28
     48c:	03980b08 	0x3980b08
     490:	30050000 	andi	a1,zero,0x0
     494:	00000028 	0x28
     498:	05c60b0c 	0x5c60b0c
     49c:	30050000 	andi	a1,zero,0x0
     4a0:	00000028 	0x28
     4a4:	785f0e10 	add_a.w	$w24,$w1,$w31
     4a8:	67310500 	0x67310500
     4ac:	14000001 	bnez	zero,4b4 <__isr_vec_space+0x494>
     4b0:	0e040f00 	jal	8103c00 <__memory_size+0x80e4400>
     4b4:	08000001 	j	4 <ABIFlags_gpr_size>
     4b8:	00000103 	sra	zero,zero,0x4
     4bc:	00000177 	0x177
     4c0:	0000c309 	0xc309
     4c4:	0d000000 	jal	4000000 <__memory_size+0x3fe0800>
     4c8:	000003d6 	0x3d6
     4cc:	f0350524 	0xf0350524
     4d0:	0b000001 	j	c000004 <__memory_size+0xbfe0804>
     4d4:	000002d6 	0x2d6
     4d8:	00283705 	0x283705
     4dc:	0b000000 	j	c000000 <__memory_size+0xbfe0800>
     4e0:	00000555 	0x555
     4e4:	00283805 	lsa	a3,at,t0,0x1
     4e8:	0b040000 	j	c100000 <__memory_size+0xc0e0800>
     4ec:	000002e5 	0x2e5
     4f0:	00283905 	0x283905
     4f4:	0b080000 	j	c200000 <__memory_size+0xc1e0800>
     4f8:	0000063f 	0x63f
     4fc:	00283a05 	0x283a05
     500:	0b0c0000 	j	c300000 <__memory_size+0xc2e0800>
     504:	0000044c 	syscall	0x11
     508:	00283b05 	0x283b05
     50c:	0b100000 	j	c400000 <__memory_size+0xc3e0800>
     510:	0000054b 	0x54b
     514:	00283c05 	0x283c05
     518:	0b140000 	j	c500000 <__memory_size+0xc4e0800>
     51c:	000005cb 	0x5cb
     520:	00283d05 	0x283d05
     524:	0b180000 	j	c600000 <__memory_size+0xc5e0800>
     528:	000004a2 	0x4a2
     52c:	00283e05 	0x283e05
     530:	0b1c0000 	j	c700000 <__memory_size+0xc6e0800>
     534:	00000606 	0x606
     538:	00283f05 	0x283f05
     53c:	00200000 	0x200000
     540:	0002f410 	0x2f410
     544:	05010800 	bgez	t0,2548 <__isr_vec_space+0x2528>
     548:	00023048 	0x23048
     54c:	02750b00 	0x2750b00
     550:	49050000 	bc2t	$cc1,554 <__isr_vec_space+0x534>
     554:	00000230 	tge	zero,zero,0x8
     558:	02690b00 	0x2690b00
     55c:	4a050000 	c2	0x50000
     560:	00000230 	tge	zero,zero,0x8
     564:	05711180 	bgezal	t3,4b68 <__isr_vec_space+0x4b48>
     568:	4c050000 	lwxc1	$f0,a1(zero)
     56c:	00000103 	sra	zero,zero,0x4
     570:	19110100 	0x19110100
     574:	05000003 	bltz	t0,584 <__isr_vec_space+0x564>
     578:	0001034f 	0x1034f
     57c:	00010400 	sll	zero,at,0x10
     580:	00010108 	0x10108
     584:	00024000 	sll	t0,v0,0x0
     588:	00c30900 	0xc30900
     58c:	001f0000 	sll	zero,ra,0x0
     590:	00026110 	0x26110
     594:	05019000 	bgez	t0,fffe4598 <__entry+0x403e4598>
     598:	00027e5b 	0x27e5b
     59c:	04e10b00 	bgez	a3,31a0 <__isr_vec_space+0x3180>
     5a0:	5c050000 	0x5c050000
     5a4:	0000027e 	0x27e
     5a8:	04f90b00 	0x4f90b00
     5ac:	5d050000 	0x5d050000
     5b0:	00000028 	0x28
     5b4:	03930b04 	0x3930b04
     5b8:	5f050000 	0x5f050000
     5bc:	00000284 	0x284
     5c0:	02f40b08 	0x2f40b08
     5c4:	60050000 	0x60050000
     5c8:	000001f0 	tge	zero,zero,0x7
     5cc:	040f0088 	0x40f0088
     5d0:	00000240 	sll	zero,zero,0x9
     5d4:	00029408 	0x29408
     5d8:	00029400 	sll	s2,v0,0x10
     5dc:	00c30900 	0xc30900
     5e0:	001f0000 	sll	zero,ra,0x0
     5e4:	029a040f 	0x29a040f
     5e8:	0d120000 	jal	4480000 <__memory_size+0x4460800>
     5ec:	000004ac 	0x4ac
     5f0:	c0730508 	ll	s3,1288(v1)
     5f4:	0b000002 	j	c000008 <__memory_size+0xbfe0808>
     5f8:	000008d2 	0x8d2
     5fc:	02c07405 	0x2c07405
     600:	0b000000 	j	c000000 <__memory_size+0xbfe0800>
     604:	000008a0 	0x8a0
     608:	00287505 	0x287505
     60c:	00040000 	sll	zero,a0,0x0
     610:	003d040f 	0x3d040f
     614:	cb0d0000 	lwc2	$13,0(t8)
     618:	68000004 	0x68000004
     61c:	03f0b305 	0x3f0b305
     620:	5f0e0000 	0x5f0e0000
     624:	b4050070 	0xb4050070
     628:	000002c0 	sll	zero,zero,0xb
     62c:	725f0e00 	0x725f0e00
     630:	28b50500 	slti	s5,a1,1280
     634:	04000000 	bltz	zero,638 <__isr_vec_space+0x618>
     638:	00775f0e 	0x775f0e
     63c:	0028b605 	0x28b605
     640:	0b080000 	j	c200000 <__memory_size+0xc1e0800>
     644:	00000312 	0x312
     648:	0044b705 	0x44b705
     64c:	0b0c0000 	j	c300000 <__memory_size+0xc2e0800>
     650:	000003f2 	tlt	zero,zero,0xf
     654:	0044b805 	lsa	s7,v0,a0,0x1
     658:	0e0e0000 	jal	8380000 <__memory_size+0x8360800>
     65c:	0066625f 	0x66625f
     660:	029bb905 	0x29bb905
     664:	0b100000 	j	c400000 <__memory_size+0xc3e0800>
     668:	000002b0 	tge	zero,zero,0xa
     66c:	0028ba05 	0x28ba05
     670:	0b180000 	j	c600000 <__memory_size+0xc5e0800>
     674:	00000302 	srl	zero,zero,0xc
     678:	0101c105 	0x101c105
     67c:	0b1c0000 	j	c700000 <__memory_size+0xc6e0800>
     680:	000003c6 	0x3c6
     684:	0553c305 	bgezall	t2,ffff129c <__entry+0x403f129c>
     688:	0b200000 	j	c800000 <__memory_size+0xc7e0800>
     68c:	0000043e 	0x43e
     690:	0582c505 	bltzl	t4,ffff1aa8 <__entry+0x403f1aa8>
     694:	0b240000 	j	c900000 <__memory_size+0xc8e0800>
     698:	0000053d 	0x53d
     69c:	05a6c805 	0x5a6c805
     6a0:	0b280000 	j	ca00000 <__memory_size+0xc9e0800>
     6a4:	00000620 	0x620
     6a8:	05c0c905 	bltz	t6,ffff2ac0 <__entry+0x403f2ac0>
     6ac:	0e2c0000 	jal	8b00000 <__memory_size+0x8ae0800>
     6b0:	0062755f 	0x62755f
     6b4:	029bcc05 	0x29bcc05
     6b8:	0e300000 	jal	8c00000 <__memory_size+0x8be0800>
     6bc:	0070755f 	0x70755f
     6c0:	02c0cd05 	0x2c0cd05
     6c4:	0e380000 	jal	8e00000 <__memory_size+0x8de0800>
     6c8:	0072755f 	0x72755f
     6cc:	0028ce05 	0x28ce05
     6d0:	0b3c0000 	j	cf00000 <__memory_size+0xcee0800>
     6d4:	000002df 	0x2df
     6d8:	05c6d105 	0x5c6d105
     6dc:	0b400000 	j	d000000 <__memory_size+0xcfe0800>
     6e0:	000005f8 	0x5f8
     6e4:	05d6d205 	0x5d6d205
     6e8:	0e430000 	jal	90c0000 <__memory_size+0x90a0800>
     6ec:	00626c5f 	0x626c5f
     6f0:	029bd505 	0x29bd505
     6f4:	0b440000 	j	d100000 <__memory_size+0xd0e0800>
     6f8:	00000328 	0x328
     6fc:	0028d805 	lsa	k1,at,t0,0x1
     700:	0b4c0000 	j	d300000 <__memory_size+0xd2e0800>
     704:	00000339 	0x339
     708:	006bd905 	0x6bd905
     70c:	0b500000 	j	d400000 <__memory_size+0xd3e0800>
     710:	0000064f 	sync	0x19
     714:	040edc05 	tnei	zero,-9211
     718:	0b540000 	j	d500000 <__memory_size+0xd4e0800>
     71c:	0000071e 	0x71e
     720:	00f6e005 	lsa	gp,a3,s6,0x1
     724:	0b580000 	j	d600000 <__memory_size+0xd5e0800>
     728:	000004d3 	0x4d3
     72c:	00ebe205 	0xebe205
     730:	0b5c0000 	j	d700000 <__memory_size+0xd6e0800>
     734:	00000436 	tne	zero,zero,0x10
     738:	0028e305 	0x28e305
     73c:	00640000 	0x640000
     740:	00002813 	0x2813
     744:	00040e00 	sll	at,a0,0x18
     748:	040e1400 	tnei	zero,5120
     74c:	01140000 	0x1140000
     750:	14000001 	bnez	zero,758 <__isr_vec_space+0x738>
     754:	00000546 	0x546
     758:	00002814 	0x2814
     75c:	040f0000 	0x40f0000
     760:	00000414 	0x414
     764:	00052015 	0x52015
     768:	05042800 	0x5042800
     76c:	05460239 	0x5460239
     770:	92160000 	lbu	s6,0(s0)
     774:	0500000a 	bltz	t0,7a0 <__isr_vec_space+0x780>
     778:	0028023b 	0x28023b
     77c:	16000000 	bnez	s0,780 <__isr_vec_space+0x760>
     780:	00000321 	0x321
     784:	2d024005 	sltiu	v0,t0,16389
     788:	04000006 	bltz	zero,7a4 <__isr_vec_space+0x784>
     78c:	0003e216 	0x3e216
     790:	02400500 	0x2400500
     794:	0000062d 	0x62d
     798:	03a71608 	0x3a71608
     79c:	40050000 	mfc0	a1,c0_index
     7a0:	00062d02 	srl	a1,a2,0x14
     7a4:	f4160c00 	sdc1	$f22,3072(zero)
     7a8:	05000004 	bltz	t0,7bc <__isr_vec_space+0x79c>
     7ac:	00280242 	ror	zero,t0,0x9
     7b0:	16100000 	bne	s0,s0,7b4 <__isr_vec_space+0x794>
     7b4:	00000285 	0x285
     7b8:	0f024305 	jal	c090c14 <__memory_size+0xc071414>
     7bc:	14000008 	bnez	zero,7e0 <__isr_vec_space+0x7c0>
     7c0:	0005a716 	0x5a716
     7c4:	02450500 	0x2450500
     7c8:	00000028 	0x28
     7cc:	04fe1630 	0x4fe1630
     7d0:	46050000 	add.s	$f0,$f0,$f5
     7d4:	00057702 	srl	t6,a1,0x1c
     7d8:	55163400 	bnel	t0,s6,d7dc <__isr_vec_space+0xd7bc>
     7dc:	05000004 	bltz	t0,7f0 <__isr_vec_space+0x7d0>
     7e0:	00280248 	0x280248
     7e4:	16380000 	bne	s1,t8,7e8 <__isr_vec_space+0x7c8>
     7e8:	0000050e 	0x50e
     7ec:	2a024a05 	slti	v0,s0,18949
     7f0:	3c000008 	lui	zero,0x8
     7f4:	00042116 	0x42116
     7f8:	024d0500 	0x24d0500
     7fc:	00000161 	0x161
     800:	03cc1640 	0x3cc1640
     804:	4e050000 	lwxc1	$f0,a1(s0)
     808:	00002802 	srl	a1,zero,0x0
     80c:	3a164400 	xori	s6,s0,0x4400
     810:	05000006 	bltz	t0,82c <__isr_vec_space+0x80c>
     814:	0161024f 	0x161024f
     818:	16480000 	bne	s2,t0,81c <__isr_vec_space+0x7fc>
     81c:	00000478 	0x478
     820:	30025005 	andi	v0,zero,0x5005
     824:	4c000008 	swxc1	$f0,zero(zero)
     828:	0003ea16 	0x3ea16
     82c:	02530500 	0x2530500
     830:	00000028 	0x28
     834:	03311650 	0x3311650
     838:	54050000 	bnel	zero,a1,83c <__isr_vec_space+0x81c>
     83c:	00054602 	srl	t0,a1,0x18
     840:	94165400 	lhu	s6,21504(zero)
     844:	05000004 	bltz	t0,858 <__isr_vec_space+0x838>
     848:	07ed0277 	0x7ed0277
     84c:	17580000 	bne	k0,t8,850 <__isr_vec_space+0x830>
     850:	00000261 	0x261
     854:	7e027b05 	0x7e027b05
     858:	48000002 	mfc2	zero,$0,2
     85c:	03ff1701 	0x3ff1701
     860:	7c050000 	ext	a1,zero,0x0,0x1
     864:	00024002 	srl	t0,v0,0x0
     868:	17014c00 	bne	t8,at,1386c <__isr_vec_space+0x1384c>
     86c:	000005ee 	0x5ee
     870:	41028005 	mftc0	s0,c0_tccontext
     874:	dc000008 	ldc3	$0,8(zero)
     878:	030a1702 	0x30a1702
     87c:	85050000 	lh	a1,0(t0)
     880:	0005f202 	srl	s8,a1,0x8
     884:	1702e000 	bne	t8,v0,ffff8888 <__entry+0x403f8888>
     888:	000002ef 	0x2ef
     88c:	4d028605 	bc3fl	fffe20a4 <__entry+0x403e20a4>
     890:	ec000008 	swc3	$0,8(zero)
     894:	040f0002 	0x40f0002
     898:	0000054c 	syscall	0x15
     89c:	91080102 	lbu	t0,258(t0)
     8a0:	0f000000 	jal	c000000 <__memory_size+0xbfe0800>
     8a4:	0003f004 	sllv	s8,v1,zero
     8a8:	00281300 	0x281300
     8ac:	05770000 	0x5770000
     8b0:	0e140000 	jal	8500000 <__memory_size+0x84e0800>
     8b4:	14000004 	bnez	zero,8c8 <__isr_vec_space+0x8a8>
     8b8:	00000101 	0x101
     8bc:	00057714 	0x57714
     8c0:	00281400 	0x281400
     8c4:	0f000000 	jal	c000000 <__memory_size+0xbfe0800>
     8c8:	00057d04 	0x57d04
     8cc:	054c1800 	teqi	t2,6144
     8d0:	040f0000 	0x40f0000
     8d4:	00000559 	0x559
     8d8:	00007613 	0x7613
     8dc:	0005a600 	sll	s4,a1,0x18
     8e0:	040e1400 	tnei	zero,5120
     8e4:	01140000 	0x1140000
     8e8:	14000001 	bnez	zero,8f0 <__isr_vec_space+0x8d0>
     8ec:	00000076 	tne	zero,zero,0x1
     8f0:	00002814 	0x2814
     8f4:	040f0000 	0x40f0000
     8f8:	00000588 	0x588
     8fc:	00002813 	0x2813
     900:	0005c000 	sll	t8,a1,0x0
     904:	040e1400 	tnei	zero,5120
     908:	01140000 	0x1140000
     90c:	00000001 	movf	zero,zero,$fcc0
     910:	05ac040f 	teqi	t5,1039
     914:	3d080000 	0x3d080000
     918:	d6000000 	ldc1	$f0,0(s0)
     91c:	09000005 	j	4000014 <__memory_size+0x3fe0814>
     920:	000000c3 	sra	zero,zero,0x3
     924:	3d080002 	0x3d080002
     928:	e6000000 	swc1	$f0,0(s0)
     92c:	09000005 	j	4000014 <__memory_size+0x3fe0814>
     930:	000000c3 	sra	zero,zero,0x3
     934:	b9050000 	swr	a1,0(t0)
     938:	05000004 	bltz	t0,94c <__isr_vec_space+0x92c>
     93c:	02c6011d 	0x2c6011d
     940:	d5190000 	ldc1	$f25,0(t0)
     944:	0c000005 	jal	14 <ABIFlags_flags2>
     948:	27012105 	addiu	at,t8,8453
     94c:	16000006 	bnez	s0,968 <__isr_vec_space+0x948>
     950:	000004e1 	0x4e1
     954:	27012305 	addiu	at,t8,8965
     958:	00000006 	srlv	zero,zero,zero
     95c:	0003f816 	0x3f816
     960:	01240500 	0x1240500
     964:	00000028 	0x28
     968:	04b31604 	bgezall	a1,617c <__isr_vec_space+0x615c>
     96c:	25050000 	addiu	a1,t0,0
     970:	00062d01 	0x62d01
     974:	0f000800 	jal	c002000 <__memory_size+0xbfe2800>
     978:	0005f204 	0x5f204
     97c:	e6040f00 	swc1	$f4,3840(s0)
     980:	19000005 	blez	t0,998 <__isr_vec_space+0x978>
     984:	0000027d 	0x27d
     988:	013d050e 	0x13d050e
     98c:	00000668 	0x668
     990:	00052716 	0x52716
     994:	013e0500 	0x13e0500
     998:	00000668 	0x668
     99c:	055e1600 	0x55e1600
     9a0:	3f050000 	0x3f050000
     9a4:	00066801 	0x66801
     9a8:	7a160600 	nori.b	$w24,$w0,0x16
     9ac:	05000005 	bltz	t0,9c4 <__isr_vec_space+0x9a4>
     9b0:	004b0140 	0x4b0140
     9b4:	000c0000 	sll	zero,t4,0x0
     9b8:	00004b08 	0x4b08
     9bc:	00067800 	sll	t7,a2,0x0
     9c0:	00c30900 	0xc30900
     9c4:	00020000 	sll	zero,v0,0x0
     9c8:	5805d01a 	0x5805d01a
     9cc:	00077902 	srl	t7,a3,0x4
     9d0:	05b91600 	0x5b91600
     9d4:	5a050000 	0x5a050000
     9d8:	00008d02 	srl	s1,zero,0x14
     9dc:	64160000 	0x64160000
     9e0:	05000005 	bltz	t0,9f8 <__isr_vec_space+0x9d8>
     9e4:	0546025b 	0x546025b
     9e8:	16040000 	bne	s0,a0,9ec <__isr_vec_space+0x9cc>
     9ec:	00000414 	0x414
     9f0:	79025c05 	0x79025c05
     9f4:	08000007 	j	1c <ABIFlags_flags2+0x8>
     9f8:	00061116 	0x61116
     9fc:	025d0500 	0x25d0500
     a00:	00000177 	0x177
     a04:	03b71624 	0x3b71624
     a08:	5e050000 	0x5e050000
     a0c:	00002802 	srl	a1,zero,0x0
     a10:	dc164800 	ldc3	$22,18432(zero)
     a14:	05000004 	bltz	t0,a28 <__isr_vec_space+0xa08>
     a18:	0059025f 	0x59025f
     a1c:	16500000 	bne	s2,s0,a20 <__isr_vec_space+0xa00>
     a20:	00000627 	0x627
     a24:	33026005 	andi	v0,t8,0x6005
     a28:	58000006 	blezl	zero,a44 <__isr_vec_space+0xa24>
     a2c:	0004e716 	0x4e716
     a30:	02610500 	0x2610500
     a34:	000000eb 	0xeb
     a38:	062c1668 	teqi	s1,5736
     a3c:	62050000 	0x62050000
     a40:	0000eb02 	srl	sp,zero,0xc
     a44:	c8167000 	lwc2	$22,28672(zero)
     a48:	05000002 	bltz	t0,a54 <__isr_vec_space+0xa34>
     a4c:	00eb0263 	0xeb0263
     a50:	16780000 	bne	s3,t8,a54 <__isr_vec_space+0xa34>
     a54:	000005e4 	0x5e4
     a58:	89026405 	lwl	v0,25605(t0)
     a5c:	80000007 	lb	zero,7(zero)
     a60:	00040816 	0x40816
     a64:	02650500 	0x2650500
     a68:	00000799 	0x799
     a6c:	05871688 	aclr	0x1,1672(t4)
     a70:	66050000 	0x66050000
     a74:	00002802 	srl	a1,zero,0x0
     a78:	5216a000 	beql	s0,s6,fffe8a7c <__entry+0x403e8a7c>
     a7c:	05000003 	bltz	t0,a8c <__isr_vec_space+0xa6c>
     a80:	00eb0267 	0xeb0267
     a84:	16a40000 	bne	s5,a0,a88 <__isr_vec_space+0xa68>
     a88:	000002b9 	0x2b9
     a8c:	eb026805 	swc2	$2,26629(t8)
     a90:	ac000000 	sw	zero,0(zero)
     a94:	00034116 	0x34116
     a98:	02690500 	0x2690500
     a9c:	000000eb 	0xeb
     aa0:	029016b4 	teq	s4,s0,0x5a
     aa4:	6a050000 	0x6a050000
     aa8:	0000eb02 	srl	sp,zero,0xc
     aac:	9f16bc00 	0x9f16bc00
     ab0:	05000002 	bltz	t0,abc <__isr_vec_space+0xa9c>
     ab4:	00eb026b 	0xeb026b
     ab8:	16c40000 	bne	s6,a0,abc <__isr_vec_space+0xa9c>
     abc:	00000499 	0x499
     ac0:	28026c05 	slti	v0,zero,27653
     ac4:	cc000000 	pref	0x0,0(zero)
     ac8:	054c0800 	teqi	t2,2048
     acc:	07890000 	tgeiu	gp,0
     ad0:	c3090000 	ll	t1,0(t8)
     ad4:	19000000 	blez	t0,ad8 <__isr_vec_space+0xab8>
     ad8:	054c0800 	teqi	t2,2048
     adc:	07990000 	0x7990000
     ae0:	c3090000 	ll	t1,0(t8)
     ae4:	07000000 	bltz	t8,ae8 <__isr_vec_space+0xac8>
     ae8:	054c0800 	teqi	t2,2048
     aec:	07a90000 	tgeiu	sp,0
     af0:	c3090000 	ll	t1,0(t8)
     af4:	17000000 	bnez	t8,af8 <__isr_vec_space+0xad8>
     af8:	05f01a00 	bltzal	t7,72fc <__isr_vec_space+0x72dc>
     afc:	07cd0271 	0x7cd0271
     b00:	45160000 	bc1fl	$fcc5,b04 <__isr_vec_space+0xae4>
     b04:	05000004 	bltz	t0,b18 <__isr_vec_space+0xaf8>
     b08:	07cd0274 	0x7cd0274
     b0c:	16000000 	bnez	s0,b10 <__isr_vec_space+0xaf0>
     b10:	000005db 	0x5db
     b14:	dd027505 	ldc3	$2,29957(t0)
     b18:	78000007 	ceqi.b	$w0,$w0,0
     b1c:	02c00800 	0x2c00800
     b20:	07dd0000 	0x7dd0000
     b24:	c3090000 	ll	t1,0(t8)
     b28:	1d000000 	bgtz	t0,b2c <__isr_vec_space+0xb0c>
     b2c:	008d0800 	0x8d0800
     b30:	07ed0000 	0x7ed0000
     b34:	c3090000 	ll	t1,0(t8)
     b38:	1d000000 	bgtz	t0,b3c <__isr_vec_space+0xb1c>
     b3c:	05f01b00 	bltzal	t7,7740 <__isr_vec_space+0x7720>
     b40:	080f0256 	j	3c0958 <__memory_size+0x3a1158>
     b44:	201c0000 	addi	gp,zero,0
     b48:	05000005 	bltz	t0,b60 <__isr_vec_space+0xb40>
     b4c:	0678026d 	0x678026d
     b50:	fe1c0000 	sdc3	$28,0(s0)
     b54:	05000005 	bltz	t0,b6c <__isr_vec_space+0xb4c>
     b58:	07a90276 	tgeiu	sp,630
     b5c:	08000000 	j	0 <hardware_exit_hook>
     b60:	0000054c 	syscall	0x15
     b64:	0000081f 	0x81f
     b68:	0000c309 	0xc309
     b6c:	1d001800 	bgtz	t0,6b70 <__isr_vec_space+0x6b50>
     b70:	0000082a 	slt	at,zero,zero
     b74:	00040e14 	0x40e14
     b78:	040f0000 	0x40f0000
     b7c:	0000081f 	0x81f
     b80:	0161040f 	0x161040f
     b84:	411d0000 	mftc0	zero,c0_taghi
     b88:	14000008 	bnez	zero,bac <__isr_vec_space+0xb8c>
     b8c:	00000028 	0x28
     b90:	47040f00 	bz.b	$w4,4794 <__isr_vec_space+0x4774>
     b94:	0f000008 	jal	c000020 <__memory_size+0xbfe0820>
     b98:	00083604 	0x83604
     b9c:	05e60800 	0x5e60800
     ba0:	085d0000 	j	1740000 <__memory_size+0x1720800>
     ba4:	c3090000 	ll	t1,0(t8)
     ba8:	02000000 	0x2000000
     bac:	07f41e00 	0x7f41e00
     bb0:	54060000 	bnel	zero,a2,bb4 <__isr_vec_space+0xb94>
     bb4:	80000838 	lb	zero,2104(zero)
     bb8:	0000003c 	0x3c
     bbc:	08ab9c01 	j	2ae7004 <__memory_size+0x2ac7804>
     bc0:	ed1f0000 	swc3	$31,0(t0)
     bc4:	01000007 	srav	zero,zero,t0
     bc8:	0000283a 	0x283a
     bcc:	00002c00 	sll	a1,zero,0x10
     bd0:	08502000 	j	1408000 <__memory_size+0x13e8800>
     bd4:	08bc8000 	j	2f20000 <__memory_size+0x2f00800>
     bd8:	089a0000 	j	2680000 <__memory_size+0x2660800>
     bdc:	01210000 	0x1210000
     be0:	21300155 	addi	s0,t1,341
     be4:	80025401 	lb	v0,21505(zero)
     be8:	74220000 	jalx	880000 <__memory_size+0x860800>
     bec:	d2800008 	0xd2800008
     bf0:	21000008 	addi	zero,t0,8
     bf4:	80025401 	lb	v0,21505(zero)
     bf8:	23000000 	addi	zero,t8,0
     bfc:	00000594 	0x594
     c00:	b702fb05 	0xb702fb05
     c04:	18000008 	blez	zero,c28 <__isr_vec_space+0xc08>
     c08:	0000040e 	0x40e
     c0c:	00046724 	0x46724
     c10:	d20c0700 	0xd20c0700
     c14:	14000008 	bnez	zero,c38 <__isr_vec_space+0xc18>
     c18:	00000028 	0x28
     c1c:	00010114 	0x10114
     c20:	f3250000 	0xf3250000
     c24:	08000007 	j	1c <ABIFlags_flags2+0x8>
     c28:	00281411 	0x281411
     c2c:	00000000 	nop
     c30:	0000088c 	syscall	0x22
     c34:	035f0004 	sllv	zero,ra,k0
     c38:	01040000 	0x1040000
     c3c:	0000018c 	syscall	0x6
     c40:	00065501 	0x65501
     c44:	00049600 	sll	s2,a0,0x18
     c48:	05040200 	0x5040200
     c4c:	00000005 	lsa	zero,zero,zero,0x1
     c50:	6d070402 	0x6d070402
     c54:	03000000 	0x3000000
     c58:	6e690504 	0x6e690504
     c5c:	01020074 	teq	t0,v0,0x1
     c60:	00008a06 	0x8a06
     c64:	08010200 	j	40800 <__memory_size+0x21000>
     c68:	00000088 	0x88
     c6c:	2b050202 	slti	a1,t8,514
     c70:	02000001 	movf	zero,s0,$fcc0
     c74:	00fa0702 	0xfa0702
     c78:	08020000 	j	80000 <__memory_size+0x60800>
     c7c:	00000005 	lsa	zero,zero,zero,0x1
     c80:	07080200 	tgei	t8,512
     c84:	00000068 	0x68
     c88:	00048204 	0x48204
     c8c:	27070100 	addiu	a3,t8,256
     c90:	04000000 	bltz	zero,c94 <__isr_vec_space+0xc74>
     c94:	00000460 	0x460
     c98:	00191002 	srl	v0,t9,0x0
     c9c:	43040000 	c0	0x1040000
     ca0:	02000005 	lsa	zero,s0,zero,0x1
     ca4:	00001927 	0x1927
     ca8:	042f0500 	0x42f0500
     cac:	61030000 	0x61030000
     cb0:	00008501 	0x8501
     cb4:	07040200 	0x7040200
     cb8:	00000072 	tlt	zero,zero,0x1
     cbc:	4a020406 	c2	0x20406
     cc0:	000000ab 	0xab
     cc4:	00042907 	0x42907
     cc8:	794c0200 	ori.b	$w8,$w0,0x4c
     ccc:	07000000 	bltz	t8,cd0 <__isr_vec_space+0xcb0>
     cd0:	000003db 	0x3db
     cd4:	00ab4d02 	0xab4d02
     cd8:	08000000 	j	0 <hardware_exit_hook>
     cdc:	00000035 	0x35
     ce0:	000000bb 	0xbb
     ce4:	0000bb09 	0xbb09
     ce8:	02000300 	0x2000300
     cec:	013f0704 	0x13f0704
     cf0:	080a0000 	j	280000 <__memory_size+0x260800>
     cf4:	00e34702 	0xe34702
     cf8:	2d0b0000 	sltiu	t3,t0,0
     cfc:	02000005 	lsa	zero,s0,zero,0x1
     d00:	00002749 	0x2749
     d04:	350b0000 	ori	t3,t0,0x0
     d08:	02000005 	lsa	zero,s0,zero,0x1
     d0c:	00008c4e 	0x8c4e
     d10:	04000400 	bltz	zero,1d14 <__isr_vec_space+0x1cf4>
     d14:	000004c0 	sll	zero,zero,0x13
     d18:	00c24f02 	0xc24f02
     d1c:	9e040000 	0x9e040000
     d20:	02000003 	0x2000003
     d24:	00005853 	0x5853
     d28:	04040c00 	0x4040c00
     d2c:	0000057f 	0x57f
     d30:	00201604 	0x201604
     d34:	af0d0000 	sw	t5,0(t8)
     d38:	18000003 	blez	zero,d48 <__isr_vec_space+0xd28>
     d3c:	01592d04 	0x1592d04
     d40:	e10b0000 	sc	t3,0(t0)
     d44:	04000004 	bltz	zero,d58 <__isr_vec_space+0xd38>
     d48:	0001592f 	0x1592f
     d4c:	5f0e0000 	0x5f0e0000
     d50:	3004006b 	andi	a0,zero,0x6b
     d54:	00000027 	nor	zero,zero,zero
     d58:	05180b04 	0x5180b04
     d5c:	30040000 	andi	a0,zero,0x0
     d60:	00000027 	nor	zero,zero,zero
     d64:	03980b08 	0x3980b08
     d68:	30040000 	andi	a0,zero,0x0
     d6c:	00000027 	nor	zero,zero,zero
     d70:	05c60b0c 	0x5c60b0c
     d74:	30040000 	andi	a0,zero,0x0
     d78:	00000027 	nor	zero,zero,zero
     d7c:	785f0e10 	add_a.w	$w24,$w1,$w31
     d80:	5f310400 	0x5f310400
     d84:	14000001 	bnez	zero,d8c <__isr_vec_space+0xd6c>
     d88:	06040f00 	0x6040f00
     d8c:	08000001 	j	4 <ABIFlags_gpr_size>
     d90:	000000fb 	0xfb
     d94:	0000016f 	0x16f
     d98:	0000bb09 	0xbb09
     d9c:	0d000000 	jal	4000000 <__memory_size+0x3fe0800>
     da0:	000003d6 	0x3d6
     da4:	e8350424 	swc2	$21,1060(at)
     da8:	0b000001 	j	c000004 <__memory_size+0xbfe0804>
     dac:	000002d6 	0x2d6
     db0:	00273704 	0x273704
     db4:	0b000000 	j	c000000 <__memory_size+0xbfe0800>
     db8:	00000555 	0x555
     dbc:	00273804 	sllv	a3,a3,at
     dc0:	0b040000 	j	c100000 <__memory_size+0xc0e0800>
     dc4:	000002e5 	0x2e5
     dc8:	00273904 	0x273904
     dcc:	0b080000 	j	c200000 <__memory_size+0xc1e0800>
     dd0:	0000063f 	0x63f
     dd4:	00273a04 	0x273a04
     dd8:	0b0c0000 	j	c300000 <__memory_size+0xc2e0800>
     ddc:	0000044c 	syscall	0x11
     de0:	00273b04 	0x273b04
     de4:	0b100000 	j	c400000 <__memory_size+0xc3e0800>
     de8:	0000054b 	0x54b
     dec:	00273c04 	0x273c04
     df0:	0b140000 	j	c500000 <__memory_size+0xc4e0800>
     df4:	000005cb 	0x5cb
     df8:	00273d04 	0x273d04
     dfc:	0b180000 	j	c600000 <__memory_size+0xc5e0800>
     e00:	000004a2 	0x4a2
     e04:	00273e04 	0x273e04
     e08:	0b1c0000 	j	c700000 <__memory_size+0xc6e0800>
     e0c:	00000606 	0x606
     e10:	00273f04 	0x273f04
     e14:	00200000 	0x200000
     e18:	0002f410 	0x2f410
     e1c:	04010800 	b	2e20 <__isr_vec_space+0x2e00>
     e20:	00022848 	0x22848
     e24:	02750b00 	0x2750b00
     e28:	49040000 	bc2f	$cc1,e2c <__isr_vec_space+0xe0c>
     e2c:	00000228 	0x228
     e30:	02690b00 	0x2690b00
     e34:	4a040000 	c2	0x40000
     e38:	00000228 	0x228
     e3c:	05711180 	bgezal	t3,5440 <__isr_vec_space+0x5420>
     e40:	4c040000 	lwxc1	$f0,a0(zero)
     e44:	000000fb 	0xfb
     e48:	19110100 	0x19110100
     e4c:	04000003 	bltz	zero,e5c <__isr_vec_space+0xe3c>
     e50:	0000fb4f 	0xfb4f
     e54:	00010400 	sll	zero,at,0x10
     e58:	0000f908 	0xf908
     e5c:	00023800 	sll	a3,v0,0x0
     e60:	00bb0900 	0xbb0900
     e64:	001f0000 	sll	zero,ra,0x0
     e68:	00026110 	0x26110
     e6c:	04019000 	b	fffe4e70 <__entry+0x403e4e70>
     e70:	0002765b 	0x2765b
     e74:	04e10b00 	bgez	a3,3a78 <__isr_vec_space+0x3a58>
     e78:	5c040000 	0x5c040000
     e7c:	00000276 	tne	zero,zero,0x9
     e80:	04f90b00 	0x4f90b00
     e84:	5d040000 	0x5d040000
     e88:	00000027 	nor	zero,zero,zero
     e8c:	03930b04 	0x3930b04
     e90:	5f040000 	0x5f040000
     e94:	0000027c 	0x27c
     e98:	02f40b08 	0x2f40b08
     e9c:	60040000 	0x60040000
     ea0:	000001e8 	0x1e8
     ea4:	040f0088 	0x40f0088
     ea8:	00000238 	0x238
     eac:	00028c08 	0x28c08
     eb0:	00028c00 	sll	s1,v0,0x10
     eb4:	00bb0900 	0xbb0900
     eb8:	001f0000 	sll	zero,ra,0x0
     ebc:	0292040f 	0x292040f
     ec0:	0d120000 	jal	4480000 <__memory_size+0x4460800>
     ec4:	000004ac 	0x4ac
     ec8:	b8730408 	swr	s3,1032(v1)
     ecc:	0b000002 	j	c000008 <__memory_size+0xbfe0808>
     ed0:	000008d2 	0x8d2
     ed4:	02b87404 	0x2b87404
     ed8:	0b000000 	j	c000000 <__memory_size+0xbfe0800>
     edc:	000008a0 	0x8a0
     ee0:	00277504 	0x277504
     ee4:	00040000 	sll	zero,a0,0x0
     ee8:	0035040f 	0x35040f
     eec:	cb0d0000 	lwc2	$13,0(t8)
     ef0:	68000004 	0x68000004
     ef4:	03e8b304 	0x3e8b304
     ef8:	5f0e0000 	0x5f0e0000
     efc:	b4040070 	0xb4040070
     f00:	000002b8 	0x2b8
     f04:	725f0e00 	0x725f0e00
     f08:	27b50400 	addiu	s5,sp,1024
     f0c:	04000000 	bltz	zero,f10 <__isr_vec_space+0xef0>
     f10:	00775f0e 	0x775f0e
     f14:	0027b604 	0x27b604
     f18:	0b080000 	j	c200000 <__memory_size+0xc1e0800>
     f1c:	00000312 	0x312
     f20:	003cb704 	0x3cb704
     f24:	0b0c0000 	j	c300000 <__memory_size+0xc2e0800>
     f28:	000003f2 	tlt	zero,zero,0xf
     f2c:	003cb804 	sllv	s7,gp,at
     f30:	0e0e0000 	jal	8380000 <__memory_size+0x8360800>
     f34:	0066625f 	0x66625f
     f38:	0293b904 	0x293b904
     f3c:	0b100000 	j	c400000 <__memory_size+0xc3e0800>
     f40:	000002b0 	tge	zero,zero,0xa
     f44:	0027ba04 	0x27ba04
     f48:	0b180000 	j	c600000 <__memory_size+0xc5e0800>
     f4c:	00000302 	srl	zero,zero,0xc
     f50:	00f9c104 	0xf9c104
     f54:	0b1c0000 	j	c700000 <__memory_size+0xc6e0800>
     f58:	000003c6 	0x3c6
     f5c:	054bc304 	tltiu	t2,-15612
     f60:	0b200000 	j	c800000 <__memory_size+0xc7e0800>
     f64:	0000043e 	0x43e
     f68:	057ac504 	0x57ac504
     f6c:	0b240000 	j	c900000 <__memory_size+0xc8e0800>
     f70:	0000053d 	0x53d
     f74:	059ec804 	0x59ec804
     f78:	0b280000 	j	ca00000 <__memory_size+0xc9e0800>
     f7c:	00000620 	0x620
     f80:	05b8c904 	0x5b8c904
     f84:	0e2c0000 	jal	8b00000 <__memory_size+0x8ae0800>
     f88:	0062755f 	0x62755f
     f8c:	0293cc04 	0x293cc04
     f90:	0e300000 	jal	8c00000 <__memory_size+0x8be0800>
     f94:	0070755f 	0x70755f
     f98:	02b8cd04 	0x2b8cd04
     f9c:	0e380000 	jal	8e00000 <__memory_size+0x8de0800>
     fa0:	0072755f 	0x72755f
     fa4:	0027ce04 	0x27ce04
     fa8:	0b3c0000 	j	cf00000 <__memory_size+0xcee0800>
     fac:	000002df 	0x2df
     fb0:	05bed104 	0x5bed104
     fb4:	0b400000 	j	d000000 <__memory_size+0xcfe0800>
     fb8:	000005f8 	0x5f8
     fbc:	05ced204 	tnei	t6,-11772
     fc0:	0e430000 	jal	90c0000 <__memory_size+0x90a0800>
     fc4:	00626c5f 	0x626c5f
     fc8:	0293d504 	0x293d504
     fcc:	0b440000 	j	d100000 <__memory_size+0xd0e0800>
     fd0:	00000328 	0x328
     fd4:	0027d804 	sllv	k1,a3,at
     fd8:	0b4c0000 	j	d300000 <__memory_size+0xd2e0800>
     fdc:	00000339 	0x339
     fe0:	0063d904 	0x63d904
     fe4:	0b500000 	j	d400000 <__memory_size+0xd3e0800>
     fe8:	0000064f 	sync	0x19
     fec:	0406dc04 	0x406dc04
     ff0:	0b540000 	j	d500000 <__memory_size+0xd4e0800>
     ff4:	0000071e 	0x71e
     ff8:	00eee004 	sllv	gp,t6,a3
     ffc:	0b580000 	j	d600000 <__memory_size+0xd5e0800>
    1000:	000004d3 	0x4d3
    1004:	00e3e204 	0xe3e204
    1008:	0b5c0000 	j	d700000 <__memory_size+0xd6e0800>
    100c:	00000436 	tne	zero,zero,0x10
    1010:	0027e304 	0x27e304
    1014:	00640000 	0x640000
    1018:	00002713 	0x2713
    101c:	00040600 	sll	zero,a0,0x18
    1020:	04061400 	0x4061400
    1024:	f9140000 	sdc2	$20,0(t0)
    1028:	14000000 	bnez	zero,102c <__isr_vec_space+0x100c>
    102c:	0000053e 	0x53e
    1030:	00002714 	0x2714
    1034:	040f0000 	0x40f0000
    1038:	0000040c 	syscall	0x10
    103c:	00052015 	0x52015
    1040:	04042800 	0x4042800
    1044:	053e0239 	0x53e0239
    1048:	92160000 	lbu	s6,0(s0)
    104c:	0400000a 	bltz	zero,1078 <__isr_vec_space+0x1058>
    1050:	0027023b 	0x27023b
    1054:	16000000 	bnez	s0,1058 <__isr_vec_space+0x1038>
    1058:	00000321 	0x321
    105c:	25024004 	addiu	v0,t0,16388
    1060:	04000006 	bltz	zero,107c <__isr_vec_space+0x105c>
    1064:	0003e216 	0x3e216
    1068:	02400400 	0x2400400
    106c:	00000625 	0x625
    1070:	03a71608 	0x3a71608
    1074:	40040000 	mfc0	a0,c0_index
    1078:	00062502 	srl	a0,a2,0x14
    107c:	f4160c00 	sdc1	$f22,3072(zero)
    1080:	04000004 	bltz	zero,1094 <__isr_vec_space+0x1074>
    1084:	00270242 	ror	zero,a3,0x9
    1088:	16100000 	bne	s0,s0,108c <__isr_vec_space+0x106c>
    108c:	00000285 	0x285
    1090:	07024304 	bltzl	t8,11ca4 <__isr_vec_space+0x11c84>
    1094:	14000008 	bnez	zero,10b8 <__isr_vec_space+0x1098>
    1098:	0005a716 	0x5a716
    109c:	02450400 	0x2450400
    10a0:	00000027 	nor	zero,zero,zero
    10a4:	04fe1630 	0x4fe1630
    10a8:	46040000 	add.s	$f0,$f0,$f4
    10ac:	00056f02 	srl	t5,a1,0x1c
    10b0:	55163400 	bnel	t0,s6,e0b4 <__isr_vec_space+0xe094>
    10b4:	04000004 	bltz	zero,10c8 <__isr_vec_space+0x10a8>
    10b8:	00270248 	0x270248
    10bc:	16380000 	bne	s1,t8,10c0 <__isr_vec_space+0x10a0>
    10c0:	0000050e 	0x50e
    10c4:	22024a04 	addi	v0,s0,18948
    10c8:	3c000008 	lui	zero,0x8
    10cc:	00042116 	0x42116
    10d0:	024d0400 	0x24d0400
    10d4:	00000159 	0x159
    10d8:	03cc1640 	0x3cc1640
    10dc:	4e040000 	lwxc1	$f0,a0(s0)
    10e0:	00002702 	srl	a0,zero,0x1c
    10e4:	3a164400 	xori	s6,s0,0x4400
    10e8:	04000006 	bltz	zero,1104 <__isr_vec_space+0x10e4>
    10ec:	0159024f 	0x159024f
    10f0:	16480000 	bne	s2,t0,10f4 <__isr_vec_space+0x10d4>
    10f4:	00000478 	0x478
    10f8:	28025004 	slti	v0,zero,20484
    10fc:	4c000008 	swxc1	$f0,zero(zero)
    1100:	0003ea16 	0x3ea16
    1104:	02530400 	0x2530400
    1108:	00000027 	nor	zero,zero,zero
    110c:	03311650 	0x3311650
    1110:	54040000 	bnel	zero,a0,1114 <__isr_vec_space+0x10f4>
    1114:	00053e02 	srl	a3,a1,0x18
    1118:	94165400 	lhu	s6,21504(zero)
    111c:	04000004 	bltz	zero,1130 <__isr_vec_space+0x1110>
    1120:	07e50277 	0x7e50277
    1124:	17580000 	bne	k0,t8,1128 <__isr_vec_space+0x1108>
    1128:	00000261 	0x261
    112c:	76027b04 	jalx	809ec10 <__memory_size+0x807f410>
    1130:	48000002 	mfc2	zero,$0,2
    1134:	03ff1701 	0x3ff1701
    1138:	7c040000 	ext	a0,zero,0x0,0x1
    113c:	00023802 	srl	a3,v0,0x0
    1140:	17014c00 	bne	t8,at,14144 <__isr_vec_space+0x14124>
    1144:	000005ee 	0x5ee
    1148:	39028004 	xori	v0,t0,0x8004
    114c:	dc000008 	ldc3	$0,8(zero)
    1150:	030a1702 	0x30a1702
    1154:	85040000 	lh	a0,0(t0)
    1158:	0005ea02 	srl	sp,a1,0x8
    115c:	1702e000 	bne	t8,v0,ffff9160 <__entry+0x403f9160>
    1160:	000002ef 	0x2ef
    1164:	45028604 	bc1fl	fffe2978 <__entry+0x403e2978>
    1168:	ec000008 	swc3	$0,8(zero)
    116c:	040f0002 	0x40f0002
    1170:	00000544 	0x544
    1174:	91080102 	lbu	t0,258(t0)
    1178:	0f000000 	jal	c000000 <__memory_size+0xbfe0800>
    117c:	0003e804 	sllv	sp,v1,zero
    1180:	00271300 	0x271300
    1184:	056f0000 	0x56f0000
    1188:	06140000 	0x6140000
    118c:	14000004 	bnez	zero,11a0 <__isr_vec_space+0x1180>
    1190:	000000f9 	0xf9
    1194:	00056f14 	0x56f14
    1198:	00271400 	0x271400
    119c:	0f000000 	jal	c000000 <__memory_size+0xbfe0800>
    11a0:	00057504 	0x57504
    11a4:	05441800 	0x5441800
    11a8:	040f0000 	0x40f0000
    11ac:	00000551 	0x551
    11b0:	00006e13 	0x6e13
    11b4:	00059e00 	sll	s3,a1,0x18
    11b8:	04061400 	0x4061400
    11bc:	f9140000 	sdc2	$20,0(t0)
    11c0:	14000000 	bnez	zero,11c4 <__isr_vec_space+0x11a4>
    11c4:	0000006e 	0x6e
    11c8:	00002714 	0x2714
    11cc:	040f0000 	0x40f0000
    11d0:	00000580 	sll	zero,zero,0x16
    11d4:	00002713 	0x2713
    11d8:	0005b800 	sll	s7,a1,0x0
    11dc:	04061400 	0x4061400
    11e0:	f9140000 	sdc2	$20,0(t0)
    11e4:	00000000 	nop
    11e8:	05a4040f 	0x5a4040f
    11ec:	35080000 	ori	t0,t0,0x0
    11f0:	ce000000 	pref	0x0,0(s0)
    11f4:	09000005 	j	4000014 <__memory_size+0x3fe0814>
    11f8:	000000bb 	0xbb
    11fc:	35080002 	ori	t0,t0,0x2
    1200:	de000000 	ldc3	$0,0(s0)
    1204:	09000005 	j	4000014 <__memory_size+0x3fe0814>
    1208:	000000bb 	0xbb
    120c:	b9050000 	swr	a1,0(t0)
    1210:	04000004 	bltz	zero,1224 <__isr_vec_space+0x1204>
    1214:	02be011d 	0x2be011d
    1218:	d5190000 	ldc1	$f25,0(t0)
    121c:	0c000005 	jal	14 <ABIFlags_flags2>
    1220:	1f012104 	0x1f012104
    1224:	16000006 	bnez	s0,1240 <__isr_vec_space+0x1220>
    1228:	000004e1 	0x4e1
    122c:	1f012304 	0x1f012304
    1230:	00000006 	srlv	zero,zero,zero
    1234:	0003f816 	0x3f816
    1238:	01240400 	0x1240400
    123c:	00000027 	nor	zero,zero,zero
    1240:	04b31604 	bgezall	a1,6a54 <__isr_vec_space+0x6a34>
    1244:	25040000 	addiu	a0,t0,0
    1248:	00062501 	0x62501
    124c:	0f000800 	jal	c002000 <__memory_size+0xbfe2800>
    1250:	0005ea04 	0x5ea04
    1254:	de040f00 	ldc3	$4,3840(s0)
    1258:	19000005 	blez	t0,1270 <__isr_vec_space+0x1250>
    125c:	0000027d 	0x27d
    1260:	013d040e 	0x13d040e
    1264:	00000660 	0x660
    1268:	00052716 	0x52716
    126c:	013e0400 	0x13e0400
    1270:	00000660 	0x660
    1274:	055e1600 	0x55e1600
    1278:	3f040000 	0x3f040000
    127c:	00066001 	0x66001
    1280:	7a160600 	nori.b	$w24,$w0,0x16
    1284:	04000005 	bltz	zero,129c <__isr_vec_space+0x127c>
    1288:	00430140 	0x430140
    128c:	000c0000 	sll	zero,t4,0x0
    1290:	00004308 	0x4308
    1294:	00067000 	sll	t6,a2,0x0
    1298:	00bb0900 	0xbb0900
    129c:	00020000 	sll	zero,v0,0x0
    12a0:	5804d01a 	0x5804d01a
    12a4:	00077102 	srl	t6,a3,0x4
    12a8:	05b91600 	0x5b91600
    12ac:	5a040000 	0x5a040000
    12b0:	00008502 	srl	s0,zero,0x14
    12b4:	64160000 	0x64160000
    12b8:	04000005 	bltz	zero,12d0 <__isr_vec_space+0x12b0>
    12bc:	053e025b 	0x53e025b
    12c0:	16040000 	bne	s0,a0,12c4 <__isr_vec_space+0x12a4>
    12c4:	00000414 	0x414
    12c8:	71025c04 	0x71025c04
    12cc:	08000007 	j	1c <ABIFlags_flags2+0x8>
    12d0:	00061116 	0x61116
    12d4:	025d0400 	0x25d0400
    12d8:	0000016f 	0x16f
    12dc:	03b71624 	0x3b71624
    12e0:	5e040000 	0x5e040000
    12e4:	00002702 	srl	a0,zero,0x1c
    12e8:	dc164800 	ldc3	$22,18432(zero)
    12ec:	04000004 	bltz	zero,1300 <__isr_vec_space+0x12e0>
    12f0:	0051025f 	0x51025f
    12f4:	16500000 	bne	s2,s0,12f8 <__isr_vec_space+0x12d8>
    12f8:	00000627 	0x627
    12fc:	2b026004 	slti	v0,t8,24580
    1300:	58000006 	blezl	zero,131c <__isr_vec_space+0x12fc>
    1304:	0004e716 	0x4e716
    1308:	02610400 	0x2610400
    130c:	000000e3 	0xe3
    1310:	062c1668 	teqi	s1,5736
    1314:	62040000 	0x62040000
    1318:	0000e302 	srl	gp,zero,0xc
    131c:	c8167000 	lwc2	$22,28672(zero)
    1320:	04000002 	bltz	zero,132c <__isr_vec_space+0x130c>
    1324:	00e30263 	0xe30263
    1328:	16780000 	bne	s3,t8,132c <__isr_vec_space+0x130c>
    132c:	000005e4 	0x5e4
    1330:	81026404 	lb	v0,25604(t0)
    1334:	80000007 	lb	zero,7(zero)
    1338:	00040816 	0x40816
    133c:	02650400 	0x2650400
    1340:	00000791 	0x791
    1344:	05871688 	aclr	0x1,1672(t4)
    1348:	66040000 	0x66040000
    134c:	00002702 	srl	a0,zero,0x1c
    1350:	5216a000 	beql	s0,s6,fffe9354 <__entry+0x403e9354>
    1354:	04000003 	bltz	zero,1364 <__isr_vec_space+0x1344>
    1358:	00e30267 	0xe30267
    135c:	16a40000 	bne	s5,a0,1360 <__isr_vec_space+0x1340>
    1360:	000002b9 	0x2b9
    1364:	e3026804 	sc	v0,26628(t8)
    1368:	ac000000 	sw	zero,0(zero)
    136c:	00034116 	0x34116
    1370:	02690400 	0x2690400
    1374:	000000e3 	0xe3
    1378:	029016b4 	teq	s4,s0,0x5a
    137c:	6a040000 	0x6a040000
    1380:	0000e302 	srl	gp,zero,0xc
    1384:	9f16bc00 	0x9f16bc00
    1388:	04000002 	bltz	zero,1394 <__isr_vec_space+0x1374>
    138c:	00e3026b 	0xe3026b
    1390:	16c40000 	bne	s6,a0,1394 <__isr_vec_space+0x1374>
    1394:	00000499 	0x499
    1398:	27026c04 	addiu	v0,t8,27652
    139c:	cc000000 	pref	0x0,0(zero)
    13a0:	05440800 	0x5440800
    13a4:	07810000 	bgez	gp,13a8 <__isr_vec_space+0x1388>
    13a8:	bb090000 	swr	t1,0(t8)
    13ac:	19000000 	blez	t0,13b0 <__isr_vec_space+0x1390>
    13b0:	05440800 	0x5440800
    13b4:	07910000 	bgezal	gp,13b8 <__isr_vec_space+0x1398>
    13b8:	bb090000 	swr	t1,0(t8)
    13bc:	07000000 	bltz	t8,13c0 <__isr_vec_space+0x13a0>
    13c0:	05440800 	0x5440800
    13c4:	07a10000 	bgez	sp,13c8 <__isr_vec_space+0x13a8>
    13c8:	bb090000 	swr	t1,0(t8)
    13cc:	17000000 	bnez	t8,13d0 <__isr_vec_space+0x13b0>
    13d0:	04f01a00 	bltzal	a3,7bd4 <__isr_vec_space+0x7bb4>
    13d4:	07c50271 	0x7c50271
    13d8:	45160000 	bc1fl	$fcc5,13dc <__isr_vec_space+0x13bc>
    13dc:	04000004 	bltz	zero,13f0 <__isr_vec_space+0x13d0>
    13e0:	07c50274 	0x7c50274
    13e4:	16000000 	bnez	s0,13e8 <__isr_vec_space+0x13c8>
    13e8:	000005db 	0x5db
    13ec:	d5027504 	ldc1	$f2,29956(t0)
    13f0:	78000007 	ceqi.b	$w0,$w0,0
    13f4:	02b80800 	0x2b80800
    13f8:	07d50000 	0x7d50000
    13fc:	bb090000 	swr	t1,0(t8)
    1400:	1d000000 	bgtz	t0,1404 <__isr_vec_space+0x13e4>
    1404:	00850800 	0x850800
    1408:	07e50000 	0x7e50000
    140c:	bb090000 	swr	t1,0(t8)
    1410:	1d000000 	bgtz	t0,1414 <__isr_vec_space+0x13f4>
    1414:	04f01b00 	bltzal	a3,8018 <__isr_vec_space+0x7ff8>
    1418:	08070256 	j	1c0958 <__memory_size+0x1a1158>
    141c:	201c0000 	addi	gp,zero,0
    1420:	04000005 	bltz	zero,1438 <__isr_vec_space+0x1418>
    1424:	0670026d 	bltzal	s3,1ddc <__isr_vec_space+0x1dbc>
    1428:	fe1c0000 	sdc3	$28,0(s0)
    142c:	04000005 	bltz	zero,1444 <__isr_vec_space+0x1424>
    1430:	07a10276 	bgez	sp,1e0c <__isr_vec_space+0x1dec>
    1434:	08000000 	j	0 <hardware_exit_hook>
    1438:	00000544 	0x544
    143c:	00000817 	0x817
    1440:	0000bb09 	0xbb09
    1444:	1d001800 	bgtz	t0,7448 <__isr_vec_space+0x7428>
    1448:	00000822 	neg	at,zero
    144c:	00040614 	0x40614
    1450:	040f0000 	0x40f0000
    1454:	00000817 	0x817
    1458:	0159040f 	0x159040f
    145c:	391d0000 	xori	sp,t0,0x0
    1460:	14000008 	bnez	zero,1484 <__isr_vec_space+0x1464>
    1464:	00000027 	nor	zero,zero,zero
    1468:	3f040f00 	0x3f040f00
    146c:	0f000008 	jal	c000020 <__memory_size+0xbfe0820>
    1470:	00082e04 	0x82e04
    1474:	05de0800 	0x5de0800
    1478:	08550000 	j	1540000 <__memory_size+0x1520800>
    147c:	bb090000 	swr	t1,0(t8)
    1480:	02000000 	0x2000000
    1484:	06491e00 	tgeiu	s2,7680
    1488:	17050000 	bne	t8,a1,148c <__isr_vec_space+0x146c>
    148c:	0000040c 	syscall	0x10
    1490:	1f180305 	0x1f180305
    1494:	9b1f8000 	lwr	ra,-32768(t8)
    1498:	04000005 	bltz	zero,14b0 <__isr_vec_space+0x1490>
    149c:	040602fa 	0x40602fa
    14a0:	03050000 	0x3050000
    14a4:	800023a8 	lb	zero,9128(zero)
    14a8:	0005941f 	0x5941f
    14ac:	02fb0400 	0x2fb0400
    14b0:	0000088a 	0x88a
    14b4:	23a40305 	addi	a0,sp,773
    14b8:	06188000 	0x6188000
    14bc:	00000004 	sllv	zero,zero,zero
    14c0:	0000092c 	0x92c
    14c4:	04dd0004 	0x4dd0004
    14c8:	01040000 	0x1040000
    14cc:	0000018c 	syscall	0x6
    14d0:	00069001 	0x69001
    14d4:	00087400 	sll	t6,t0,0x10
    14d8:	00010880 	sll	at,at,0x2
    14dc:	00059f00 	sll	s3,a1,0x1c
    14e0:	05040200 	0x5040200
    14e4:	00000005 	lsa	zero,zero,zero,0x1
    14e8:	00068903 	sra	s1,a2,0x4
    14ec:	33d40200 	andi	s4,s8,0x200
    14f0:	02000000 	0x2000000
    14f4:	006d0704 	0x6d0704
    14f8:	04040000 	0x4040000
    14fc:	746e6905 	jalx	1b9a414 <__memory_size+0x1b7ac14>
    1500:	06010200 	bgez	s0,1d04 <__isr_vec_space+0x1ce4>
    1504:	0000008a 	0x8a
    1508:	88080102 	lwl	t0,258(zero)
    150c:	02000000 	0x2000000
    1510:	012b0502 	0x12b0502
    1514:	02020000 	0x2020000
    1518:	0000fa07 	0xfa07
    151c:	05080200 	tgei	t0,512
    1520:	00000000 	nop
    1524:	68070802 	0x68070802
    1528:	03000000 	0x3000000
    152c:	00000482 	srl	zero,zero,0x12
    1530:	003a0703 	0x3a0703
    1534:	60030000 	0x60030000
    1538:	04000004 	bltz	zero,154c <__isr_vec_space+0x152c>
    153c:	00002110 	0x2110
    1540:	05430300 	bgezl	t2,2144 <__isr_vec_space+0x2124>
    1544:	27040000 	addiu	a0,t8,0
    1548:	00000021 	move	zero,zero
    154c:	00042f05 	0x42f05
    1550:	01610200 	0x1610200
    1554:	00000098 	0x98
    1558:	72070402 	0x72070402
    155c:	06000000 	bltz	s0,1560 <__isr_vec_space+0x1540>
    1560:	be4a0404 	cache	0xa,1028(s2)
    1564:	07000000 	bltz	t8,1568 <__isr_vec_space+0x1548>
    1568:	00000429 	0x429
    156c:	008c4c04 	0x8c4c04
    1570:	db070000 	ldc2	$7,0(t8)
    1574:	04000003 	bltz	zero,1584 <__isr_vec_space+0x1564>
    1578:	0000be4d 	break	0x0,0x2f9
    157c:	48080000 	mfc2	t0,$0
    1580:	ce000000 	pref	0x0,0(s0)
    1584:	09000000 	j	4000000 <__memory_size+0x3fe0800>
    1588:	000000ce 	0xce
    158c:	04020003 	bltzl	zero,159c <__isr_vec_space+0x157c>
    1590:	00013f07 	0x13f07
    1594:	04080a00 	tgei	zero,2560
    1598:	0000f647 	0xf647
    159c:	052d0b00 	0x52d0b00
    15a0:	49040000 	bc2f	$cc1,15a4 <__isr_vec_space+0x1584>
    15a4:	0000003a 	0x3a
    15a8:	05350b00 	0x5350b00
    15ac:	4e040000 	lwxc1	$f0,a0(s0)
    15b0:	0000009f 	0x9f
    15b4:	c0030004 	ll	v1,4(zero)
    15b8:	04000004 	bltz	zero,15cc <__isr_vec_space+0x15ac>
    15bc:	0000d54f 	0xd54f
    15c0:	039e0300 	0x39e0300
    15c4:	53040000 	beql	t8,a0,15c8 <__isr_vec_space+0x15a8>
    15c8:	0000006b 	0x6b
    15cc:	7f03040c 	0x7f03040c
    15d0:	05000005 	bltz	t0,15e8 <__isr_vec_space+0x15c8>
    15d4:	00003316 	0x3316
    15d8:	03af0d00 	0x3af0d00
    15dc:	05180000 	0x5180000
    15e0:	00016c2d 	0x16c2d
    15e4:	04e10b00 	bgez	a3,41e8 <__isr_vec_space+0x41c8>
    15e8:	2f050000 	sltiu	a1,t8,0
    15ec:	0000016c 	0x16c
    15f0:	6b5f0e00 	0x6b5f0e00
    15f4:	3a300500 	xori	s0,s1,0x500
    15f8:	04000000 	bltz	zero,15fc <__isr_vec_space+0x15dc>
    15fc:	0005180b 	movn	v1,zero,a1
    1600:	3a300500 	xori	s0,s1,0x500
    1604:	08000000 	j	0 <hardware_exit_hook>
    1608:	0003980b 	movn	s3,zero,v1
    160c:	3a300500 	xori	s0,s1,0x500
    1610:	0c000000 	jal	0 <hardware_exit_hook>
    1614:	0005c60b 	0x5c60b
    1618:	3a300500 	xori	s0,s1,0x500
    161c:	10000000 	b	1620 <__isr_vec_space+0x1600>
    1620:	00785f0e 	0x785f0e
    1624:	01723105 	0x1723105
    1628:	00140000 	sll	zero,s4,0x0
    162c:	0119040f 	0x119040f
    1630:	0e080000 	jal	8200000 <__memory_size+0x81e0800>
    1634:	82000001 	lb	zero,1(s0)
    1638:	09000001 	j	4000004 <__memory_size+0x3fe0804>
    163c:	000000ce 	0xce
    1640:	d60d0000 	ldc1	$f13,0(s0)
    1644:	24000003 	li	zero,3
    1648:	01fb3505 	0x1fb3505
    164c:	d60b0000 	ldc1	$f11,0(s0)
    1650:	05000002 	bltz	t0,165c <__isr_vec_space+0x163c>
    1654:	00003a37 	0x3a37
    1658:	550b0000 	bnel	t0,t3,165c <__isr_vec_space+0x163c>
    165c:	05000005 	bltz	t0,1674 <__isr_vec_space+0x1654>
    1660:	00003a38 	0x3a38
    1664:	e50b0400 	swc1	$f11,1024(t0)
    1668:	05000002 	bltz	t0,1674 <__isr_vec_space+0x1654>
    166c:	00003a39 	0x3a39
    1670:	3f0b0800 	0x3f0b0800
    1674:	05000006 	bltz	t0,1690 <__isr_vec_space+0x1670>
    1678:	00003a3a 	0x3a3a
    167c:	4c0b0c00 	0x4c0b0c00
    1680:	05000004 	bltz	t0,1694 <__isr_vec_space+0x1674>
    1684:	00003a3b 	0x3a3b
    1688:	4b0b1000 	c2	0x10b1000
    168c:	05000005 	bltz	t0,16a4 <__isr_vec_space+0x1684>
    1690:	00003a3c 	0x3a3c
    1694:	cb0b1400 	lwc2	$11,5120(t8)
    1698:	05000005 	bltz	t0,16b0 <__isr_vec_space+0x1690>
    169c:	00003a3d 	0x3a3d
    16a0:	a20b1800 	sb	t3,6144(s0)
    16a4:	05000004 	bltz	t0,16b8 <__isr_vec_space+0x1698>
    16a8:	00003a3e 	0x3a3e
    16ac:	060b1c00 	tltiu	s0,7168
    16b0:	05000006 	bltz	t0,16cc <__isr_vec_space+0x16ac>
    16b4:	00003a3f 	0x3a3f
    16b8:	10002000 	b	96bc <__isr_vec_space+0x969c>
    16bc:	000002f4 	teq	zero,zero,0xb
    16c0:	48050108 	0x48050108
    16c4:	0000023b 	0x23b
    16c8:	0002750b 	0x2750b
    16cc:	3b490500 	xori	t1,k0,0x500
    16d0:	00000002 	srl	zero,zero,0x0
    16d4:	0002690b 	0x2690b
    16d8:	3b4a0500 	xori	t2,k0,0x500
    16dc:	80000002 	lb	zero,2(zero)
    16e0:	00057111 	0x57111
    16e4:	0e4c0500 	jal	9301400 <__memory_size+0x92e1c00>
    16e8:	00000001 	movf	zero,zero,$fcc0
    16ec:	03191101 	0x3191101
    16f0:	4f050000 	lwxc1	$f0,a1(t8)
    16f4:	0000010e 	0x10e
    16f8:	08000104 	j	410 <__isr_vec_space+0x3f0>
    16fc:	0000010c 	syscall	0x4
    1700:	0000024b 	0x24b
    1704:	0000ce09 	0xce09
    1708:	10001f00 	b	930c <__isr_vec_space+0x92ec>
    170c:	00000261 	0x261
    1710:	5b050190 	0x5b050190
    1714:	00000289 	0x289
    1718:	0004e10b 	0x4e10b
    171c:	895c0500 	lwl	gp,1280(t2)
    1720:	00000002 	srl	zero,zero,0x0
    1724:	0004f90b 	0x4f90b
    1728:	3a5d0500 	xori	sp,s2,0x500
    172c:	04000000 	bltz	zero,1730 <__isr_vec_space+0x1710>
    1730:	0003930b 	0x3930b
    1734:	8f5f0500 	lw	ra,1280(k0)
    1738:	08000002 	j	8 <ABIFlags_isa_ext>
    173c:	0002f40b 	0x2f40b
    1740:	fb600500 	sdc2	$0,1280(k1)
    1744:	88000001 	lwl	zero,1(zero)
    1748:	4b040f00 	c2	0x1040f00
    174c:	08000002 	j	8 <ABIFlags_isa_ext>
    1750:	0000029f 	0x29f
    1754:	0000029f 	0x29f
    1758:	0000ce09 	0xce09
    175c:	0f001f00 	jal	c007c00 <__memory_size+0xbfe8400>
    1760:	0002a504 	0x2a504
    1764:	ac0d1200 	sw	t5,4608(zero)
    1768:	08000004 	j	10 <ABIFlags_flags1>
    176c:	02cb7305 	0x2cb7305
    1770:	d20b0000 	0xd20b0000
    1774:	05000008 	bltz	t0,1798 <__isr_vec_space+0x1778>
    1778:	0002cb74 	teq	zero,v0,0x32d
    177c:	a00b0000 	sb	t3,0(zero)
    1780:	05000008 	bltz	t0,17a4 <__isr_vec_space+0x1784>
    1784:	00003a75 	0x3a75
    1788:	0f000400 	jal	c001000 <__memory_size+0xbfe1800>
    178c:	00004804 	sllv	t1,zero,zero
    1790:	04cb0d00 	tltiu	a2,3328
    1794:	05680000 	tgei	t3,0
    1798:	0003fbb3 	tltu	zero,v1,0x3ee
    179c:	705f0e00 	0x705f0e00
    17a0:	cbb40500 	lwc2	$20,1280(sp)
    17a4:	00000002 	srl	zero,zero,0x0
    17a8:	00725f0e 	0x725f0e
    17ac:	003ab505 	0x3ab505
    17b0:	0e040000 	jal	8100000 <__memory_size+0x80e0800>
    17b4:	0500775f 	bltz	t0,1f534 <__isr_vec_space+0x1f514>
    17b8:	00003ab6 	tne	zero,zero,0xea
    17bc:	120b0800 	beq	s0,t3,37c0 <__isr_vec_space+0x37a0>
    17c0:	05000003 	bltz	t0,17d0 <__isr_vec_space+0x17b0>
    17c4:	00004fb7 	0x4fb7
    17c8:	f20b0c00 	0xf20b0c00
    17cc:	05000003 	bltz	t0,17dc <__isr_vec_space+0x17bc>
    17d0:	00004fb8 	0x4fb8
    17d4:	5f0e0e00 	0x5f0e0e00
    17d8:	05006662 	bltz	t0,1b164 <__isr_vec_space+0x1b144>
    17dc:	0002a6b9 	0x2a6b9
    17e0:	b00b1000 	0xb00b1000
    17e4:	05000002 	bltz	t0,17f0 <__isr_vec_space+0x17d0>
    17e8:	00003aba 	0x3aba
    17ec:	020b1800 	0x20b1800
    17f0:	05000003 	bltz	t0,1800 <__isr_vec_space+0x17e0>
    17f4:	00010cc1 	0x10cc1
    17f8:	c60b1c00 	lwc1	$f11,7168(s0)
    17fc:	05000003 	bltz	t0,180c <__isr_vec_space+0x17ec>
    1800:	00055ec3 	sra	t3,a1,0x1b
    1804:	3e0b2000 	0x3e0b2000
    1808:	05000004 	bltz	t0,181c <__isr_vec_space+0x17fc>
    180c:	00058dc5 	0x58dc5
    1810:	3d0b2400 	0x3d0b2400
    1814:	05000005 	bltz	t0,182c <__isr_vec_space+0x180c>
    1818:	0005b1c8 	0x5b1c8
    181c:	200b2800 	addi	t3,zero,10240
    1820:	05000006 	bltz	t0,183c <__isr_vec_space+0x181c>
    1824:	0005cbc9 	0x5cbc9
    1828:	5f0e2c00 	0x5f0e2c00
    182c:	05006275 	bltz	t0,1a204 <__isr_vec_space+0x1a1e4>
    1830:	0002a6cc 	syscall	0xa9b
    1834:	5f0e3000 	0x5f0e3000
    1838:	05007075 	bltz	t0,1da10 <__isr_vec_space+0x1d9f0>
    183c:	0002cbcd 	break	0x2,0x32f
    1840:	5f0e3800 	0x5f0e3800
    1844:	05007275 	bltz	t0,1e21c <__isr_vec_space+0x1e1fc>
    1848:	00003ace 	0x3ace
    184c:	df0b3c00 	ldc3	$11,15360(t8)
    1850:	05000002 	bltz	t0,185c <__isr_vec_space+0x183c>
    1854:	0005d1d1 	0x5d1d1
    1858:	f80b4000 	sdc2	$11,16384(zero)
    185c:	05000005 	bltz	t0,1874 <__isr_vec_space+0x1854>
    1860:	0005e1d2 	0x5e1d2
    1864:	5f0e4300 	0x5f0e4300
    1868:	0500626c 	bltz	t0,1a21c <__isr_vec_space+0x1a1fc>
    186c:	0002a6d5 	0x2a6d5
    1870:	280b4400 	slti	t3,zero,17408
    1874:	05000003 	bltz	t0,1884 <__isr_vec_space+0x1864>
    1878:	00003ad8 	0x3ad8
    187c:	390b4c00 	xori	t3,t0,0x4c00
    1880:	05000003 	bltz	t0,1890 <__isr_vec_space+0x1870>
    1884:	000076d9 	0x76d9
    1888:	4f0b5000 	c3	0x10b5000
    188c:	05000006 	bltz	t0,18a8 <__isr_vec_space+0x1888>
    1890:	000419dc 	0x419dc
    1894:	1e0b5400 	0x1e0b5400
    1898:	05000007 	bltz	t0,18b8 <__isr_vec_space+0x1898>
    189c:	000101e0 	0x101e0
    18a0:	d30b5800 	0xd30b5800
    18a4:	05000004 	bltz	t0,18b8 <__isr_vec_space+0x1898>
    18a8:	0000f6e2 	0xf6e2
    18ac:	360b5c00 	ori	t3,s0,0x5c00
    18b0:	05000004 	bltz	t0,18c4 <__isr_vec_space+0x18a4>
    18b4:	00003ae3 	0x3ae3
    18b8:	13006400 	beqz	t8,1a8bc <__isr_vec_space+0x1a89c>
    18bc:	0000003a 	0x3a
    18c0:	00000419 	0x419
    18c4:	00041914 	0x41914
    18c8:	010c1400 	0x10c1400
    18cc:	51140000 	beql	t0,s4,18d0 <__isr_vec_space+0x18b0>
    18d0:	14000005 	bnez	zero,18e8 <__isr_vec_space+0x18c8>
    18d4:	0000003a 	0x3a
    18d8:	1f040f00 	0x1f040f00
    18dc:	15000004 	bnez	t0,18f0 <__isr_vec_space+0x18d0>
    18e0:	00000520 	0x520
    18e4:	39050428 	xori	a1,t0,0x428
    18e8:	00055102 	srl	t2,a1,0x4
    18ec:	0a921600 	j	a485800 <__memory_size+0xa466000>
    18f0:	3b050000 	xori	a1,t8,0x0
    18f4:	00003a02 	srl	a3,zero,0x8
    18f8:	21160000 	addi	s6,t0,0
    18fc:	05000003 	bltz	t0,190c <__isr_vec_space+0x18ec>
    1900:	06380240 	0x6380240
    1904:	16040000 	bne	s0,a0,1908 <__isr_vec_space+0x18e8>
    1908:	000003e2 	0x3e2
    190c:	38024005 	xori	v0,zero,0x4005
    1910:	08000006 	j	18 <ABIFlags_flags2+0x4>
    1914:	0003a716 	0x3a716
    1918:	02400500 	0x2400500
    191c:	00000638 	0x638
    1920:	04f4160c 	0x4f4160c
    1924:	42050000 	c0	0x50000
    1928:	00003a02 	srl	a3,zero,0x8
    192c:	85161000 	lh	s6,4096(t0)
    1930:	05000002 	bltz	t0,193c <__isr_vec_space+0x191c>
    1934:	081a0243 	j	68090c <__memory_size+0x66110c>
    1938:	16140000 	bne	s0,s4,193c <__isr_vec_space+0x191c>
    193c:	000005a7 	0x5a7
    1940:	3a024505 	xori	v0,s0,0x4505
    1944:	30000000 	andi	zero,zero,0x0
    1948:	0004fe16 	0x4fe16
    194c:	02460500 	0x2460500
    1950:	00000582 	srl	zero,zero,0x16
    1954:	04551634 	0x4551634
    1958:	48050000 	mfc2	a1,$0
    195c:	00003a02 	srl	a3,zero,0x8
    1960:	0e163800 	jal	858e000 <__memory_size+0x856e800>
    1964:	05000005 	bltz	t0,197c <__isr_vec_space+0x195c>
    1968:	0835024a 	j	d40928 <__memory_size+0xd21128>
    196c:	163c0000 	bne	s1,gp,1970 <__isr_vec_space+0x1950>
    1970:	00000421 	0x421
    1974:	6c024d05 	0x6c024d05
    1978:	40000001 	mfc0	zero,c0_mvpcontrol
    197c:	0003cc16 	0x3cc16
    1980:	024e0500 	0x24e0500
    1984:	0000003a 	0x3a
    1988:	063a1644 	0x63a1644
    198c:	4f050000 	lwxc1	$f0,a1(t8)
    1990:	00016c02 	srl	t5,at,0x10
    1994:	78164800 	andi.b	$w0,$w9,0x16
    1998:	05000004 	bltz	t0,19ac <__isr_vec_space+0x198c>
    199c:	083b0250 	j	ec0940 <__memory_size+0xea1140>
    19a0:	164c0000 	bne	s2,t4,19a4 <__isr_vec_space+0x1984>
    19a4:	000003ea 	0x3ea
    19a8:	3a025305 	xori	v0,s0,0x5305
    19ac:	50000000 	beqzl	zero,19b0 <__isr_vec_space+0x1990>
    19b0:	00033116 	0x33116
    19b4:	02540500 	0x2540500
    19b8:	00000551 	0x551
    19bc:	04941654 	0x4941654
    19c0:	77050000 	jalx	c140000 <__memory_size+0xc120800>
    19c4:	0007f802 	srl	ra,a3,0x0
    19c8:	61175800 	0x61175800
    19cc:	05000002 	bltz	t0,19d8 <__isr_vec_space+0x19b8>
    19d0:	0289027b 	0x289027b
    19d4:	01480000 	0x1480000
    19d8:	0003ff17 	0x3ff17
    19dc:	027c0500 	0x27c0500
    19e0:	0000024b 	0x24b
    19e4:	ee17014c 	swc3	$23,332(s0)
    19e8:	05000005 	bltz	t0,1a00 <__isr_vec_space+0x19e0>
    19ec:	084c0280 	j	1300a00 <__memory_size+0x12e1200>
    19f0:	02dc0000 	0x2dc0000
    19f4:	00030a17 	0x30a17
    19f8:	02850500 	0x2850500
    19fc:	000005fd 	0x5fd
    1a00:	ef1702e0 	swc3	$23,736(t8)
    1a04:	05000002 	bltz	t0,1a10 <__isr_vec_space+0x19f0>
    1a08:	08580286 	j	1600a18 <__memory_size+0x15e1218>
    1a0c:	02ec0000 	0x2ec0000
    1a10:	57040f00 	bnel	t8,a0,5614 <__isr_vec_space+0x55f4>
    1a14:	02000005 	lsa	zero,s0,zero,0x1
    1a18:	00910801 	movt	at,a0,$fcc4
    1a1c:	040f0000 	0x40f0000
    1a20:	000003fb 	0x3fb
    1a24:	00003a13 	0x3a13
    1a28:	00058200 	sll	s0,a1,0x8
    1a2c:	04191400 	0x4191400
    1a30:	0c140000 	jal	500000 <__memory_size+0x4e0800>
    1a34:	14000001 	bnez	zero,1a3c <__isr_vec_space+0x1a1c>
    1a38:	00000582 	srl	zero,zero,0x16
    1a3c:	00003a14 	0x3a14
    1a40:	040f0000 	0x40f0000
    1a44:	00000588 	0x588
    1a48:	00055718 	0x55718
    1a4c:	64040f00 	0x64040f00
    1a50:	13000005 	beqz	t8,1a68 <__isr_vec_space+0x1a48>
    1a54:	00000081 	0x81
    1a58:	000005b1 	tgeu	zero,zero,0x16
    1a5c:	00041914 	0x41914
    1a60:	010c1400 	0x10c1400
    1a64:	81140000 	lb	s4,0(t0)
    1a68:	14000000 	bnez	zero,1a6c <__isr_vec_space+0x1a4c>
    1a6c:	0000003a 	0x3a
    1a70:	93040f00 	lbu	a0,3840(t8)
    1a74:	13000005 	beqz	t8,1a8c <__isr_vec_space+0x1a6c>
    1a78:	0000003a 	0x3a
    1a7c:	000005cb 	0x5cb
    1a80:	00041914 	0x41914
    1a84:	010c1400 	0x10c1400
    1a88:	0f000000 	jal	c000000 <__memory_size+0xbfe0800>
    1a8c:	0005b704 	0x5b704
    1a90:	00480800 	0x480800
    1a94:	05e10000 	bgez	t7,1a98 <__isr_vec_space+0x1a78>
    1a98:	ce090000 	pref	0x9,0(s0)
    1a9c:	02000000 	0x2000000
    1aa0:	00480800 	0x480800
    1aa4:	05f10000 	bgezal	t7,1aa8 <__isr_vec_space+0x1a88>
    1aa8:	ce090000 	pref	0x9,0(s0)
    1aac:	00000000 	nop
    1ab0:	04b90500 	0x4b90500
    1ab4:	1d050000 	0x1d050000
    1ab8:	0002d101 	0x2d101
    1abc:	05d51900 	0x5d51900
    1ac0:	050c0000 	teqi	t0,0
    1ac4:	06320121 	bltzall	s1,1f4c <__isr_vec_space+0x1f2c>
    1ac8:	e1160000 	sc	s6,0(t0)
    1acc:	05000004 	bltz	t0,1ae0 <__isr_vec_space+0x1ac0>
    1ad0:	06320123 	bltzall	s1,1f60 <__isr_vec_space+0x1f40>
    1ad4:	16000000 	bnez	s0,1ad8 <__isr_vec_space+0x1ab8>
    1ad8:	000003f8 	0x3f8
    1adc:	3a012405 	xori	at,s0,0x2405
    1ae0:	04000000 	bltz	zero,1ae4 <__isr_vec_space+0x1ac4>
    1ae4:	0004b316 	0x4b316
    1ae8:	01250500 	0x1250500
    1aec:	00000638 	0x638
    1af0:	040f0008 	0x40f0008
    1af4:	000005fd 	0x5fd
    1af8:	05f1040f 	bgezal	t7,2b38 <__isr_vec_space+0x2b18>
    1afc:	7d190000 	ext	t9,t0,0x0,0x1
    1b00:	0e000002 	jal	8000008 <__memory_size+0x7fe0808>
    1b04:	73013d05 	0x73013d05
    1b08:	16000006 	bnez	s0,1b24 <__isr_vec_space+0x1b04>
    1b0c:	00000527 	0x527
    1b10:	73013e05 	0x73013e05
    1b14:	00000006 	srlv	zero,zero,zero
    1b18:	00055e16 	0x55e16
    1b1c:	013f0500 	0x13f0500
    1b20:	00000673 	tltu	zero,zero,0x19
    1b24:	057a1606 	0x57a1606
    1b28:	40050000 	mfc0	a1,c0_index
    1b2c:	00005601 	0x5601
    1b30:	08000c00 	j	3000 <__isr_vec_space+0x2fe0>
    1b34:	00000056 	0x56
    1b38:	00000683 	sra	zero,zero,0x1a
    1b3c:	0000ce09 	0xce09
    1b40:	1a000200 	blez	s0,2344 <__isr_vec_space+0x2324>
    1b44:	025805d0 	0x25805d0
    1b48:	00000784 	0x784
    1b4c:	0005b916 	0x5b916
    1b50:	025a0500 	0x25a0500
    1b54:	00000098 	0x98
    1b58:	05641600 	0x5641600
    1b5c:	5b050000 	0x5b050000
    1b60:	00055102 	srl	t2,a1,0x4
    1b64:	14160400 	bne	zero,s6,2b68 <__isr_vec_space+0x2b48>
    1b68:	05000004 	bltz	t0,1b7c <__isr_vec_space+0x1b5c>
    1b6c:	0784025c 	0x784025c
    1b70:	16080000 	bne	s0,t0,1b74 <__isr_vec_space+0x1b54>
    1b74:	00000611 	0x611
    1b78:	82025d05 	lb	v0,23813(s0)
    1b7c:	24000001 	li	zero,1
    1b80:	0003b716 	0x3b716
    1b84:	025e0500 	0x25e0500
    1b88:	0000003a 	0x3a
    1b8c:	04dc1648 	0x4dc1648
    1b90:	5f050000 	0x5f050000
    1b94:	00006402 	srl	t4,zero,0x10
    1b98:	27165000 	addiu	s6,t8,20480
    1b9c:	05000006 	bltz	t0,1bb8 <__isr_vec_space+0x1b98>
    1ba0:	063e0260 	0x63e0260
    1ba4:	16580000 	bne	s2,t8,1ba8 <__isr_vec_space+0x1b88>
    1ba8:	000004e7 	0x4e7
    1bac:	f6026105 	sdc1	$f2,24837(s0)
    1bb0:	68000000 	0x68000000
    1bb4:	00062c16 	0x62c16
    1bb8:	02620500 	0x2620500
    1bbc:	000000f6 	tne	zero,zero,0x3
    1bc0:	02c81670 	tge	s6,t0,0x59
    1bc4:	63050000 	0x63050000
    1bc8:	0000f602 	srl	s8,zero,0x18
    1bcc:	e4167800 	swc1	$f22,30720(zero)
    1bd0:	05000005 	bltz	t0,1be8 <__isr_vec_space+0x1bc8>
    1bd4:	07940264 	0x7940264
    1bd8:	16800000 	bnez	s4,1bdc <__isr_vec_space+0x1bbc>
    1bdc:	00000408 	jr.hb	zero
    1be0:	a4026505 	sh	v0,25861(zero)
    1be4:	88000007 	lwl	zero,7(zero)
    1be8:	00058716 	0x58716
    1bec:	02660500 	0x2660500
    1bf0:	0000003a 	0x3a
    1bf4:	035216a0 	0x35216a0
    1bf8:	67050000 	0x67050000
    1bfc:	0000f602 	srl	s8,zero,0x18
    1c00:	b916a400 	swr	s6,-23552(t0)
    1c04:	05000002 	bltz	t0,1c10 <__isr_vec_space+0x1bf0>
    1c08:	00f60268 	0xf60268
    1c0c:	16ac0000 	bne	s5,t4,1c10 <__isr_vec_space+0x1bf0>
    1c10:	00000341 	0x341
    1c14:	f6026905 	sdc1	$f2,26885(s0)
    1c18:	b4000000 	0xb4000000
    1c1c:	00029016 	0x29016
    1c20:	026a0500 	0x26a0500
    1c24:	000000f6 	tne	zero,zero,0x3
    1c28:	029f16bc 	0x29f16bc
    1c2c:	6b050000 	0x6b050000
    1c30:	0000f602 	srl	s8,zero,0x18
    1c34:	9916c400 	lwr	s6,-15360(t0)
    1c38:	05000004 	bltz	t0,1c4c <__isr_vec_space+0x1c2c>
    1c3c:	003a026c 	0x3a026c
    1c40:	00cc0000 	0xcc0000
    1c44:	00055708 	0x55708
    1c48:	00079400 	sll	s2,a3,0x10
    1c4c:	00ce0900 	0xce0900
    1c50:	00190000 	sll	zero,t9,0x0
    1c54:	00055708 	0x55708
    1c58:	0007a400 	sll	s4,a3,0x10
    1c5c:	00ce0900 	0xce0900
    1c60:	00070000 	sll	zero,a3,0x0
    1c64:	00055708 	0x55708
    1c68:	0007b400 	sll	s6,a3,0x10
    1c6c:	00ce0900 	0xce0900
    1c70:	00170000 	sll	zero,s7,0x0
    1c74:	7105f01a 	udi10	t0,a1,s8,0x0
    1c78:	0007d802 	srl	k1,a3,0x0
    1c7c:	04451600 	0x4451600
    1c80:	74050000 	jalx	140000 <__memory_size+0x120800>
    1c84:	0007d802 	srl	k1,a3,0x0
    1c88:	db160000 	ldc2	$22,0(t8)
    1c8c:	05000005 	bltz	t0,1ca4 <__isr_vec_space+0x1c84>
    1c90:	07e80275 	tgei	ra,629
    1c94:	00780000 	0x780000
    1c98:	0002cb08 	0x2cb08
    1c9c:	0007e800 	sll	sp,a3,0x0
    1ca0:	00ce0900 	0xce0900
    1ca4:	001d0000 	sll	zero,sp,0x0
    1ca8:	00009808 	0x9808
    1cac:	0007f800 	sll	ra,a3,0x0
    1cb0:	00ce0900 	0xce0900
    1cb4:	001d0000 	sll	zero,sp,0x0
    1cb8:	5605f01b 	bnel	s0,a1,ffffdd28 <__entry+0x403fdd28>
    1cbc:	00081a02 	srl	v1,t0,0x8
    1cc0:	05201c00 	bltz	t1,8cc4 <__isr_vec_space+0x8ca4>
    1cc4:	6d050000 	0x6d050000
    1cc8:	00068302 	srl	s0,a2,0xc
    1ccc:	05fe1c00 	0x5fe1c00
    1cd0:	76050000 	jalx	8140000 <__memory_size+0x8120800>
    1cd4:	0007b402 	srl	s6,a3,0x10
    1cd8:	57080000 	bnel	t8,t0,1cdc <__isr_vec_space+0x1cbc>
    1cdc:	2a000005 	slti	zero,s0,5
    1ce0:	09000008 	j	4000020 <__memory_size+0x3fe0820>
    1ce4:	000000ce 	0xce
    1ce8:	351d0018 	ori	sp,t0,0x18
    1cec:	14000008 	bnez	zero,1d10 <__isr_vec_space+0x1cf0>
    1cf0:	00000419 	0x419
    1cf4:	2a040f00 	slti	a0,s0,3840
    1cf8:	0f000008 	jal	c000020 <__memory_size+0xbfe0820>
    1cfc:	00016c04 	0x16c04
    1d00:	084c1d00 	j	1307400 <__memory_size+0x12e7c00>
    1d04:	3a140000 	xori	s4,s0,0x0
    1d08:	00000000 	nop
    1d0c:	0852040f 	j	148103c <__memory_size+0x146183c>
    1d10:	040f0000 	0x40f0000
    1d14:	00000841 	0x841
    1d18:	0005f108 	0x5f108
    1d1c:	00086800 	sll	t5,t0,0x0
    1d20:	00ce0900 	0xce0900
    1d24:	00020000 	sll	zero,v0,0x0
    1d28:	0001481e 	0x1481e
    1d2c:	05060400 	0x5060400
    1d30:	00000887 	0x887
    1d34:	00025d1f 	0x25d1f
    1d38:	481f0000 	mfc2	ra,$0
    1d3c:	01000002 	0x1000002
    1d40:	0002541f 	0x2541f
    1d44:	20000200 	addi	zero,zero,512
    1d48:	00000234 	teq	zero,zero,0x8
    1d4c:	003a4201 	0x3a4201
    1d50:	08740000 	j	1d00000 <__memory_size+0x1ce0800>
    1d54:	01088000 	0x1088000
    1d58:	9c010000 	0x9c010000
    1d5c:	00000907 	0x907
    1d60:	00014321 	0x14321
    1d64:	3a420100 	xori	v0,s2,0x100
    1d68:	4a000000 	c2	0x0
    1d6c:	22000000 	addi	zero,s0,0
    1d70:	01006e66 	0x1006e66
    1d74:	00029f42 	srl	s3,v0,0x1d
    1d78:	00007600 	sll	t6,zero,0x18
    1d7c:	72612200 	0x72612200
    1d80:	42010067 	c0	0x10067
    1d84:	0000010c 	syscall	0x4
    1d88:	000000ad 	0xad
    1d8c:	01006422 	0x1006422
    1d90:	00010c42 	srl	at,at,0x11
    1d94:	0000e400 	sll	gp,zero,0x10
    1d98:	02fd2300 	0x2fd2300
    1d9c:	49010000 	bc2t	1da0 <__isr_vec_space+0x1d80>
    1da0:	00000907 	0x907
    1da4:	0000011b 	0x11b
    1da8:	01007024 	and	t6,t0,zero
    1dac:	0002894a 	0x2894a
    1db0:	00013100 	sll	a2,at,0x4
    1db4:	08e02500 	j	3809400 <__memory_size+0x37e9c00>
    1db8:	091e8000 	j	47a0000 <__memory_size+0x4780800>
    1dbc:	01260000 	0x1260000
    1dc0:	900a0354 	lbu	t2,852(zero)
    1dc4:	0f000001 	jal	c000004 <__memory_size+0xbfe0804>
    1dc8:	0001fb04 	0x1fb04
    1dcc:	05942700 	0x5942700
    1dd0:	fb050000 	sdc2	$5,0(t8)
    1dd4:	00091902 	srl	v1,t1,0x4
    1dd8:	04191800 	0x4191800
    1ddc:	dd280000 	ldc3	$8,0(t1)
    1de0:	07000005 	bltz	t8,1df8 <__isr_vec_space+0x1dd8>
    1de4:	00010c60 	0x10c60
    1de8:	00281400 	0x281400
    1dec:	00000000 	nop
    1df0:	00000951 	0x951
    1df4:	06ea0004 	tlti	s7,4
    1df8:	01040000 	0x1040000
    1dfc:	0000018c 	syscall	0x6
    1e00:	0006da01 	0x6da01
    1e04:	00097c00 	sll	t7,t1,0x10
    1e08:	00018080 	sll	s0,at,0x2
    1e0c:	00072300 	sll	a0,a3,0xc
    1e10:	07040200 	0x7040200
    1e14:	0000006d 	0x6d
    1e18:	69050403 	0x69050403
    1e1c:	0200746e 	0x200746e
    1e20:	00050504 	0x50504
    1e24:	01020000 	0x1020000
    1e28:	00008a06 	0x8a06
    1e2c:	08010200 	j	40800 <__memory_size+0x21000>
    1e30:	00000088 	0x88
    1e34:	2b050202 	slti	a1,t8,514
    1e38:	02000001 	movf	zero,s0,$fcc0
    1e3c:	00fa0702 	0xfa0702
    1e40:	08020000 	j	80000 <__memory_size+0x60800>
    1e44:	00000005 	lsa	zero,zero,zero,0x1
    1e48:	07080200 	tgei	t8,512
    1e4c:	00000068 	0x68
    1e50:	00048204 	0x48204
    1e54:	28070200 	slti	a3,zero,512
    1e58:	04000000 	bltz	zero,1e5c <__isr_vec_space+0x1e3c>
    1e5c:	00000460 	0x460
    1e60:	002f1003 	0x2f1003
    1e64:	43040000 	c0	0x1040000
    1e68:	03000005 	lsa	zero,t8,zero,0x1
    1e6c:	00002f27 	0x2f27
    1e70:	042f0500 	0x42f0500
    1e74:	61040000 	0x61040000
    1e78:	00008d01 	0x8d01
    1e7c:	07040200 	0x7040200
    1e80:	00000072 	tlt	zero,zero,0x1
    1e84:	4a030406 	c2	0x30406
    1e88:	000000b3 	tltu	zero,zero,0x2
    1e8c:	00042907 	0x42907
    1e90:	814c0300 	lb	t4,768(t2)
    1e94:	07000000 	bltz	t8,1e98 <__isr_vec_space+0x1e78>
    1e98:	000003db 	0x3db
    1e9c:	00b34d03 	0xb34d03
    1ea0:	08000000 	j	0 <hardware_exit_hook>
    1ea4:	0000003d 	0x3d
    1ea8:	000000c3 	sra	zero,zero,0x3
    1eac:	0000c309 	0xc309
    1eb0:	02000300 	0x2000300
    1eb4:	013f0704 	0x13f0704
    1eb8:	080a0000 	j	280000 <__memory_size+0x260800>
    1ebc:	00eb4703 	0xeb4703
    1ec0:	2d0b0000 	sltiu	t3,t0,0
    1ec4:	03000005 	lsa	zero,t8,zero,0x1
    1ec8:	00002849 	0x2849
    1ecc:	350b0000 	ori	t3,t0,0x0
    1ed0:	03000005 	lsa	zero,t8,zero,0x1
    1ed4:	0000944e 	0x944e
    1ed8:	04000400 	bltz	zero,2edc <__isr_vec_space+0x2ebc>
    1edc:	000004c0 	sll	zero,zero,0x13
    1ee0:	00ca4f03 	0xca4f03
    1ee4:	9e040000 	0x9e040000
    1ee8:	03000003 	0x3000003
    1eec:	00006053 	0x6053
    1ef0:	04040c00 	0x4040c00
    1ef4:	0000057f 	0x57f
    1ef8:	00211605 	0x211605
    1efc:	af0d0000 	sw	t5,0(t8)
    1f00:	18000003 	blez	zero,1f10 <__isr_vec_space+0x1ef0>
    1f04:	01612d05 	0x1612d05
    1f08:	e10b0000 	sc	t3,0(t0)
    1f0c:	05000004 	bltz	t0,1f20 <__isr_vec_space+0x1f00>
    1f10:	0001612f 	0x1612f
    1f14:	5f0e0000 	0x5f0e0000
    1f18:	3005006b 	andi	a1,zero,0x6b
    1f1c:	00000028 	0x28
    1f20:	05180b04 	0x5180b04
    1f24:	30050000 	andi	a1,zero,0x0
    1f28:	00000028 	0x28
    1f2c:	03980b08 	0x3980b08
    1f30:	30050000 	andi	a1,zero,0x0
    1f34:	00000028 	0x28
    1f38:	05c60b0c 	0x5c60b0c
    1f3c:	30050000 	andi	a1,zero,0x0
    1f40:	00000028 	0x28
    1f44:	785f0e10 	add_a.w	$w24,$w1,$w31
    1f48:	67310500 	0x67310500
    1f4c:	14000001 	bnez	zero,1f54 <__isr_vec_space+0x1f34>
    1f50:	0e040f00 	jal	8103c00 <__memory_size+0x80e4400>
    1f54:	08000001 	j	4 <ABIFlags_gpr_size>
    1f58:	00000103 	sra	zero,zero,0x4
    1f5c:	00000177 	0x177
    1f60:	0000c309 	0xc309
    1f64:	0d000000 	jal	4000000 <__memory_size+0x3fe0800>
    1f68:	000003d6 	0x3d6
    1f6c:	f0350524 	0xf0350524
    1f70:	0b000001 	j	c000004 <__memory_size+0xbfe0804>
    1f74:	000002d6 	0x2d6
    1f78:	00283705 	0x283705
    1f7c:	0b000000 	j	c000000 <__memory_size+0xbfe0800>
    1f80:	00000555 	0x555
    1f84:	00283805 	lsa	a3,at,t0,0x1
    1f88:	0b040000 	j	c100000 <__memory_size+0xc0e0800>
    1f8c:	000002e5 	0x2e5
    1f90:	00283905 	0x283905
    1f94:	0b080000 	j	c200000 <__memory_size+0xc1e0800>
    1f98:	0000063f 	0x63f
    1f9c:	00283a05 	0x283a05
    1fa0:	0b0c0000 	j	c300000 <__memory_size+0xc2e0800>
    1fa4:	0000044c 	syscall	0x11
    1fa8:	00283b05 	0x283b05
    1fac:	0b100000 	j	c400000 <__memory_size+0xc3e0800>
    1fb0:	0000054b 	0x54b
    1fb4:	00283c05 	0x283c05
    1fb8:	0b140000 	j	c500000 <__memory_size+0xc4e0800>
    1fbc:	000005cb 	0x5cb
    1fc0:	00283d05 	0x283d05
    1fc4:	0b180000 	j	c600000 <__memory_size+0xc5e0800>
    1fc8:	000004a2 	0x4a2
    1fcc:	00283e05 	0x283e05
    1fd0:	0b1c0000 	j	c700000 <__memory_size+0xc6e0800>
    1fd4:	00000606 	0x606
    1fd8:	00283f05 	0x283f05
    1fdc:	00200000 	0x200000
    1fe0:	0002f410 	0x2f410
    1fe4:	05010800 	bgez	t0,3fe8 <__isr_vec_space+0x3fc8>
    1fe8:	00023048 	0x23048
    1fec:	02750b00 	0x2750b00
    1ff0:	49050000 	bc2t	$cc1,1ff4 <__isr_vec_space+0x1fd4>
    1ff4:	00000230 	tge	zero,zero,0x8
    1ff8:	02690b00 	0x2690b00
    1ffc:	4a050000 	c2	0x50000
    2000:	00000230 	tge	zero,zero,0x8
    2004:	05711180 	bgezal	t3,6608 <__isr_vec_space+0x65e8>
    2008:	4c050000 	lwxc1	$f0,a1(zero)
    200c:	00000103 	sra	zero,zero,0x4
    2010:	19110100 	0x19110100
    2014:	05000003 	bltz	t0,2024 <__isr_vec_space+0x2004>
    2018:	0001034f 	0x1034f
    201c:	00010400 	sll	zero,at,0x10
    2020:	00010108 	0x10108
    2024:	00024000 	sll	t0,v0,0x0
    2028:	00c30900 	0xc30900
    202c:	001f0000 	sll	zero,ra,0x0
    2030:	00026110 	0x26110
    2034:	05019000 	bgez	t0,fffe6038 <__entry+0x403e6038>
    2038:	00027e5b 	0x27e5b
    203c:	04e10b00 	bgez	a3,4c40 <__isr_vec_space+0x4c20>
    2040:	5c050000 	0x5c050000
    2044:	0000027e 	0x27e
    2048:	04f90b00 	0x4f90b00
    204c:	5d050000 	0x5d050000
    2050:	00000028 	0x28
    2054:	03930b04 	0x3930b04
    2058:	5f050000 	0x5f050000
    205c:	00000284 	0x284
    2060:	02f40b08 	0x2f40b08
    2064:	60050000 	0x60050000
    2068:	000001f0 	tge	zero,zero,0x7
    206c:	040f0088 	0x40f0088
    2070:	00000240 	sll	zero,zero,0x9
    2074:	00029408 	0x29408
    2078:	00029400 	sll	s2,v0,0x10
    207c:	00c30900 	0xc30900
    2080:	001f0000 	sll	zero,ra,0x0
    2084:	029a040f 	0x29a040f
    2088:	0d120000 	jal	4480000 <__memory_size+0x4460800>
    208c:	000004ac 	0x4ac
    2090:	c0730508 	ll	s3,1288(v1)
    2094:	0b000002 	j	c000008 <__memory_size+0xbfe0808>
    2098:	000008d2 	0x8d2
    209c:	02c07405 	0x2c07405
    20a0:	0b000000 	j	c000000 <__memory_size+0xbfe0800>
    20a4:	000008a0 	0x8a0
    20a8:	00287505 	0x287505
    20ac:	00040000 	sll	zero,a0,0x0
    20b0:	003d040f 	0x3d040f
    20b4:	cb0d0000 	lwc2	$13,0(t8)
    20b8:	68000004 	0x68000004
    20bc:	03f0b305 	0x3f0b305
    20c0:	5f0e0000 	0x5f0e0000
    20c4:	b4050070 	0xb4050070
    20c8:	000002c0 	sll	zero,zero,0xb
    20cc:	725f0e00 	0x725f0e00
    20d0:	28b50500 	slti	s5,a1,1280
    20d4:	04000000 	bltz	zero,20d8 <__isr_vec_space+0x20b8>
    20d8:	00775f0e 	0x775f0e
    20dc:	0028b605 	0x28b605
    20e0:	0b080000 	j	c200000 <__memory_size+0xc1e0800>
    20e4:	00000312 	0x312
    20e8:	0044b705 	0x44b705
    20ec:	0b0c0000 	j	c300000 <__memory_size+0xc2e0800>
    20f0:	000003f2 	tlt	zero,zero,0xf
    20f4:	0044b805 	lsa	s7,v0,a0,0x1
    20f8:	0e0e0000 	jal	8380000 <__memory_size+0x8360800>
    20fc:	0066625f 	0x66625f
    2100:	029bb905 	0x29bb905
    2104:	0b100000 	j	c400000 <__memory_size+0xc3e0800>
    2108:	000002b0 	tge	zero,zero,0xa
    210c:	0028ba05 	0x28ba05
    2110:	0b180000 	j	c600000 <__memory_size+0xc5e0800>
    2114:	00000302 	srl	zero,zero,0xc
    2118:	0101c105 	0x101c105
    211c:	0b1c0000 	j	c700000 <__memory_size+0xc6e0800>
    2120:	000003c6 	0x3c6
    2124:	0553c305 	bgezall	t2,ffff2d3c <__entry+0x403f2d3c>
    2128:	0b200000 	j	c800000 <__memory_size+0xc7e0800>
    212c:	0000043e 	0x43e
    2130:	0582c505 	bltzl	t4,ffff3548 <__entry+0x403f3548>
    2134:	0b240000 	j	c900000 <__memory_size+0xc8e0800>
    2138:	0000053d 	0x53d
    213c:	05a6c805 	0x5a6c805
    2140:	0b280000 	j	ca00000 <__memory_size+0xc9e0800>
    2144:	00000620 	0x620
    2148:	05c0c905 	bltz	t6,ffff4560 <__entry+0x403f4560>
    214c:	0e2c0000 	jal	8b00000 <__memory_size+0x8ae0800>
    2150:	0062755f 	0x62755f
    2154:	029bcc05 	0x29bcc05
    2158:	0e300000 	jal	8c00000 <__memory_size+0x8be0800>
    215c:	0070755f 	0x70755f
    2160:	02c0cd05 	0x2c0cd05
    2164:	0e380000 	jal	8e00000 <__memory_size+0x8de0800>
    2168:	0072755f 	0x72755f
    216c:	0028ce05 	0x28ce05
    2170:	0b3c0000 	j	cf00000 <__memory_size+0xcee0800>
    2174:	000002df 	0x2df
    2178:	05c6d105 	0x5c6d105
    217c:	0b400000 	j	d000000 <__memory_size+0xcfe0800>
    2180:	000005f8 	0x5f8
    2184:	05d6d205 	0x5d6d205
    2188:	0e430000 	jal	90c0000 <__memory_size+0x90a0800>
    218c:	00626c5f 	0x626c5f
    2190:	029bd505 	0x29bd505
    2194:	0b440000 	j	d100000 <__memory_size+0xd0e0800>
    2198:	00000328 	0x328
    219c:	0028d805 	lsa	k1,at,t0,0x1
    21a0:	0b4c0000 	j	d300000 <__memory_size+0xd2e0800>
    21a4:	00000339 	0x339
    21a8:	006bd905 	0x6bd905
    21ac:	0b500000 	j	d400000 <__memory_size+0xd3e0800>
    21b0:	0000064f 	sync	0x19
    21b4:	040edc05 	tnei	zero,-9211
    21b8:	0b540000 	j	d500000 <__memory_size+0xd4e0800>
    21bc:	0000071e 	0x71e
    21c0:	00f6e005 	lsa	gp,a3,s6,0x1
    21c4:	0b580000 	j	d600000 <__memory_size+0xd5e0800>
    21c8:	000004d3 	0x4d3
    21cc:	00ebe205 	0xebe205
    21d0:	0b5c0000 	j	d700000 <__memory_size+0xd6e0800>
    21d4:	00000436 	tne	zero,zero,0x10
    21d8:	0028e305 	0x28e305
    21dc:	00640000 	0x640000
    21e0:	00002813 	0x2813
    21e4:	00040e00 	sll	at,a0,0x18
    21e8:	040e1400 	tnei	zero,5120
    21ec:	01140000 	0x1140000
    21f0:	14000001 	bnez	zero,21f8 <__isr_vec_space+0x21d8>
    21f4:	00000546 	0x546
    21f8:	00002814 	0x2814
    21fc:	040f0000 	0x40f0000
    2200:	00000414 	0x414
    2204:	00052015 	0x52015
    2208:	05042800 	0x5042800
    220c:	05460239 	0x5460239
    2210:	92160000 	lbu	s6,0(s0)
    2214:	0500000a 	bltz	t0,2240 <__isr_vec_space+0x2220>
    2218:	0028023b 	0x28023b
    221c:	16000000 	bnez	s0,2220 <__isr_vec_space+0x2200>
    2220:	00000321 	0x321
    2224:	2d024005 	sltiu	v0,t0,16389
    2228:	04000006 	bltz	zero,2244 <__isr_vec_space+0x2224>
    222c:	0003e216 	0x3e216
    2230:	02400500 	0x2400500
    2234:	0000062d 	0x62d
    2238:	03a71608 	0x3a71608
    223c:	40050000 	mfc0	a1,c0_index
    2240:	00062d02 	srl	a1,a2,0x14
    2244:	f4160c00 	sdc1	$f22,3072(zero)
    2248:	05000004 	bltz	t0,225c <__isr_vec_space+0x223c>
    224c:	00280242 	ror	zero,t0,0x9
    2250:	16100000 	bne	s0,s0,2254 <__isr_vec_space+0x2234>
    2254:	00000285 	0x285
    2258:	0f024305 	jal	c090c14 <__memory_size+0xc071414>
    225c:	14000008 	bnez	zero,2280 <__isr_vec_space+0x2260>
    2260:	0005a716 	0x5a716
    2264:	02450500 	0x2450500
    2268:	00000028 	0x28
    226c:	04fe1630 	0x4fe1630
    2270:	46050000 	add.s	$f0,$f0,$f5
    2274:	00057702 	srl	t6,a1,0x1c
    2278:	55163400 	bnel	t0,s6,f27c <__isr_vec_space+0xf25c>
    227c:	05000004 	bltz	t0,2290 <__isr_vec_space+0x2270>
    2280:	00280248 	0x280248
    2284:	16380000 	bne	s1,t8,2288 <__isr_vec_space+0x2268>
    2288:	0000050e 	0x50e
    228c:	2a024a05 	slti	v0,s0,18949
    2290:	3c000008 	lui	zero,0x8
    2294:	00042116 	0x42116
    2298:	024d0500 	0x24d0500
    229c:	00000161 	0x161
    22a0:	03cc1640 	0x3cc1640
    22a4:	4e050000 	lwxc1	$f0,a1(s0)
    22a8:	00002802 	srl	a1,zero,0x0
    22ac:	3a164400 	xori	s6,s0,0x4400
    22b0:	05000006 	bltz	t0,22cc <__isr_vec_space+0x22ac>
    22b4:	0161024f 	0x161024f
    22b8:	16480000 	bne	s2,t0,22bc <__isr_vec_space+0x229c>
    22bc:	00000478 	0x478
    22c0:	30025005 	andi	v0,zero,0x5005
    22c4:	4c000008 	swxc1	$f0,zero(zero)
    22c8:	0003ea16 	0x3ea16
    22cc:	02530500 	0x2530500
    22d0:	00000028 	0x28
    22d4:	03311650 	0x3311650
    22d8:	54050000 	bnel	zero,a1,22dc <__isr_vec_space+0x22bc>
    22dc:	00054602 	srl	t0,a1,0x18
    22e0:	94165400 	lhu	s6,21504(zero)
    22e4:	05000004 	bltz	t0,22f8 <__isr_vec_space+0x22d8>
    22e8:	07ed0277 	0x7ed0277
    22ec:	17580000 	bne	k0,t8,22f0 <__isr_vec_space+0x22d0>
    22f0:	00000261 	0x261
    22f4:	7e027b05 	0x7e027b05
    22f8:	48000002 	mfc2	zero,$0,2
    22fc:	03ff1701 	0x3ff1701
    2300:	7c050000 	ext	a1,zero,0x0,0x1
    2304:	00024002 	srl	t0,v0,0x0
    2308:	17014c00 	bne	t8,at,1530c <__isr_vec_space+0x152ec>
    230c:	000005ee 	0x5ee
    2310:	41028005 	mftc0	s0,c0_tccontext
    2314:	dc000008 	ldc3	$0,8(zero)
    2318:	030a1702 	0x30a1702
    231c:	85050000 	lh	a1,0(t0)
    2320:	0005f202 	srl	s8,a1,0x8
    2324:	1702e000 	bne	t8,v0,ffffa328 <__entry+0x403fa328>
    2328:	000002ef 	0x2ef
    232c:	4d028605 	bc3fl	fffe3b44 <__entry+0x403e3b44>
    2330:	ec000008 	swc3	$0,8(zero)
    2334:	040f0002 	0x40f0002
    2338:	0000054c 	syscall	0x15
    233c:	91080102 	lbu	t0,258(t0)
    2340:	0f000000 	jal	c000000 <__memory_size+0xbfe0800>
    2344:	0003f004 	sllv	s8,v1,zero
    2348:	00281300 	0x281300
    234c:	05770000 	0x5770000
    2350:	0e140000 	jal	8500000 <__memory_size+0x84e0800>
    2354:	14000004 	bnez	zero,2368 <__isr_vec_space+0x2348>
    2358:	00000101 	0x101
    235c:	00057714 	0x57714
    2360:	00281400 	0x281400
    2364:	0f000000 	jal	c000000 <__memory_size+0xbfe0800>
    2368:	00057d04 	0x57d04
    236c:	054c1800 	teqi	t2,6144
    2370:	040f0000 	0x40f0000
    2374:	00000559 	0x559
    2378:	00007613 	0x7613
    237c:	0005a600 	sll	s4,a1,0x18
    2380:	040e1400 	tnei	zero,5120
    2384:	01140000 	0x1140000
    2388:	14000001 	bnez	zero,2390 <__isr_vec_space+0x2370>
    238c:	00000076 	tne	zero,zero,0x1
    2390:	00002814 	0x2814
    2394:	040f0000 	0x40f0000
    2398:	00000588 	0x588
    239c:	00002813 	0x2813
    23a0:	0005c000 	sll	t8,a1,0x0
    23a4:	040e1400 	tnei	zero,5120
    23a8:	01140000 	0x1140000
    23ac:	00000001 	movf	zero,zero,$fcc0
    23b0:	05ac040f 	teqi	t5,1039
    23b4:	3d080000 	0x3d080000
    23b8:	d6000000 	ldc1	$f0,0(s0)
    23bc:	09000005 	j	4000014 <__memory_size+0x3fe0814>
    23c0:	000000c3 	sra	zero,zero,0x3
    23c4:	3d080002 	0x3d080002
    23c8:	e6000000 	swc1	$f0,0(s0)
    23cc:	09000005 	j	4000014 <__memory_size+0x3fe0814>
    23d0:	000000c3 	sra	zero,zero,0x3
    23d4:	b9050000 	swr	a1,0(t0)
    23d8:	05000004 	bltz	t0,23ec <__isr_vec_space+0x23cc>
    23dc:	02c6011d 	0x2c6011d
    23e0:	d5190000 	ldc1	$f25,0(t0)
    23e4:	0c000005 	jal	14 <ABIFlags_flags2>
    23e8:	27012105 	addiu	at,t8,8453
    23ec:	16000006 	bnez	s0,2408 <__isr_vec_space+0x23e8>
    23f0:	000004e1 	0x4e1
    23f4:	27012305 	addiu	at,t8,8965
    23f8:	00000006 	srlv	zero,zero,zero
    23fc:	0003f816 	0x3f816
    2400:	01240500 	0x1240500
    2404:	00000028 	0x28
    2408:	04b31604 	bgezall	a1,7c1c <__isr_vec_space+0x7bfc>
    240c:	25050000 	addiu	a1,t0,0
    2410:	00062d01 	0x62d01
    2414:	0f000800 	jal	c002000 <__memory_size+0xbfe2800>
    2418:	0005f204 	0x5f204
    241c:	e6040f00 	swc1	$f4,3840(s0)
    2420:	19000005 	blez	t0,2438 <__isr_vec_space+0x2418>
    2424:	0000027d 	0x27d
    2428:	013d050e 	0x13d050e
    242c:	00000668 	0x668
    2430:	00052716 	0x52716
    2434:	013e0500 	0x13e0500
    2438:	00000668 	0x668
    243c:	055e1600 	0x55e1600
    2440:	3f050000 	0x3f050000
    2444:	00066801 	0x66801
    2448:	7a160600 	nori.b	$w24,$w0,0x16
    244c:	05000005 	bltz	t0,2464 <__isr_vec_space+0x2444>
    2450:	004b0140 	0x4b0140
    2454:	000c0000 	sll	zero,t4,0x0
    2458:	00004b08 	0x4b08
    245c:	00067800 	sll	t7,a2,0x0
    2460:	00c30900 	0xc30900
    2464:	00020000 	sll	zero,v0,0x0
    2468:	5805d01a 	0x5805d01a
    246c:	00077902 	srl	t7,a3,0x4
    2470:	05b91600 	0x5b91600
    2474:	5a050000 	0x5a050000
    2478:	00008d02 	srl	s1,zero,0x14
    247c:	64160000 	0x64160000
    2480:	05000005 	bltz	t0,2498 <__isr_vec_space+0x2478>
    2484:	0546025b 	0x546025b
    2488:	16040000 	bne	s0,a0,248c <__isr_vec_space+0x246c>
    248c:	00000414 	0x414
    2490:	79025c05 	0x79025c05
    2494:	08000007 	j	1c <ABIFlags_flags2+0x8>
    2498:	00061116 	0x61116
    249c:	025d0500 	0x25d0500
    24a0:	00000177 	0x177
    24a4:	03b71624 	0x3b71624
    24a8:	5e050000 	0x5e050000
    24ac:	00002802 	srl	a1,zero,0x0
    24b0:	dc164800 	ldc3	$22,18432(zero)
    24b4:	05000004 	bltz	t0,24c8 <__isr_vec_space+0x24a8>
    24b8:	0059025f 	0x59025f
    24bc:	16500000 	bne	s2,s0,24c0 <__isr_vec_space+0x24a0>
    24c0:	00000627 	0x627
    24c4:	33026005 	andi	v0,t8,0x6005
    24c8:	58000006 	blezl	zero,24e4 <__isr_vec_space+0x24c4>
    24cc:	0004e716 	0x4e716
    24d0:	02610500 	0x2610500
    24d4:	000000eb 	0xeb
    24d8:	062c1668 	teqi	s1,5736
    24dc:	62050000 	0x62050000
    24e0:	0000eb02 	srl	sp,zero,0xc
    24e4:	c8167000 	lwc2	$22,28672(zero)
    24e8:	05000002 	bltz	t0,24f4 <__isr_vec_space+0x24d4>
    24ec:	00eb0263 	0xeb0263
    24f0:	16780000 	bne	s3,t8,24f4 <__isr_vec_space+0x24d4>
    24f4:	000005e4 	0x5e4
    24f8:	89026405 	lwl	v0,25605(t0)
    24fc:	80000007 	lb	zero,7(zero)
    2500:	00040816 	0x40816
    2504:	02650500 	0x2650500
    2508:	00000799 	0x799
    250c:	05871688 	aclr	0x1,1672(t4)
    2510:	66050000 	0x66050000
    2514:	00002802 	srl	a1,zero,0x0
    2518:	5216a000 	beql	s0,s6,fffea51c <__entry+0x403ea51c>
    251c:	05000003 	bltz	t0,252c <__isr_vec_space+0x250c>
    2520:	00eb0267 	0xeb0267
    2524:	16a40000 	bne	s5,a0,2528 <__isr_vec_space+0x2508>
    2528:	000002b9 	0x2b9
    252c:	eb026805 	swc2	$2,26629(t8)
    2530:	ac000000 	sw	zero,0(zero)
    2534:	00034116 	0x34116
    2538:	02690500 	0x2690500
    253c:	000000eb 	0xeb
    2540:	029016b4 	teq	s4,s0,0x5a
    2544:	6a050000 	0x6a050000
    2548:	0000eb02 	srl	sp,zero,0xc
    254c:	9f16bc00 	0x9f16bc00
    2550:	05000002 	bltz	t0,255c <__isr_vec_space+0x253c>
    2554:	00eb026b 	0xeb026b
    2558:	16c40000 	bne	s6,a0,255c <__isr_vec_space+0x253c>
    255c:	00000499 	0x499
    2560:	28026c05 	slti	v0,zero,27653
    2564:	cc000000 	pref	0x0,0(zero)
    2568:	054c0800 	teqi	t2,2048
    256c:	07890000 	tgeiu	gp,0
    2570:	c3090000 	ll	t1,0(t8)
    2574:	19000000 	blez	t0,2578 <__isr_vec_space+0x2558>
    2578:	054c0800 	teqi	t2,2048
    257c:	07990000 	0x7990000
    2580:	c3090000 	ll	t1,0(t8)
    2584:	07000000 	bltz	t8,2588 <__isr_vec_space+0x2568>
    2588:	054c0800 	teqi	t2,2048
    258c:	07a90000 	tgeiu	sp,0
    2590:	c3090000 	ll	t1,0(t8)
    2594:	17000000 	bnez	t8,2598 <__isr_vec_space+0x2578>
    2598:	05f01a00 	bltzal	t7,8d9c <__isr_vec_space+0x8d7c>
    259c:	07cd0271 	0x7cd0271
    25a0:	45160000 	bc1fl	$fcc5,25a4 <__isr_vec_space+0x2584>
    25a4:	05000004 	bltz	t0,25b8 <__isr_vec_space+0x2598>
    25a8:	07cd0274 	0x7cd0274
    25ac:	16000000 	bnez	s0,25b0 <__isr_vec_space+0x2590>
    25b0:	000005db 	0x5db
    25b4:	dd027505 	ldc3	$2,29957(t0)
    25b8:	78000007 	ceqi.b	$w0,$w0,0
    25bc:	02c00800 	0x2c00800
    25c0:	07dd0000 	0x7dd0000
    25c4:	c3090000 	ll	t1,0(t8)
    25c8:	1d000000 	bgtz	t0,25cc <__isr_vec_space+0x25ac>
    25cc:	008d0800 	0x8d0800
    25d0:	07ed0000 	0x7ed0000
    25d4:	c3090000 	ll	t1,0(t8)
    25d8:	1d000000 	bgtz	t0,25dc <__isr_vec_space+0x25bc>
    25dc:	05f01b00 	bltzal	t7,91e0 <__isr_vec_space+0x91c0>
    25e0:	080f0256 	j	3c0958 <__memory_size+0x3a1158>
    25e4:	201c0000 	addi	gp,zero,0
    25e8:	05000005 	bltz	t0,2600 <__isr_vec_space+0x25e0>
    25ec:	0678026d 	0x678026d
    25f0:	fe1c0000 	sdc3	$28,0(s0)
    25f4:	05000005 	bltz	t0,260c <__isr_vec_space+0x25ec>
    25f8:	07a90276 	tgeiu	sp,630
    25fc:	08000000 	j	0 <hardware_exit_hook>
    2600:	0000054c 	syscall	0x15
    2604:	0000081f 	0x81f
    2608:	0000c309 	0xc309
    260c:	1d001800 	bgtz	t0,8610 <__isr_vec_space+0x85f0>
    2610:	0000082a 	slt	at,zero,zero
    2614:	00040e14 	0x40e14
    2618:	040f0000 	0x40f0000
    261c:	0000081f 	0x81f
    2620:	0161040f 	0x161040f
    2624:	411d0000 	mftc0	zero,c0_taghi
    2628:	14000008 	bnez	zero,264c <__isr_vec_space+0x262c>
    262c:	00000028 	0x28
    2630:	47040f00 	bz.b	$w4,6234 <__isr_vec_space+0x6214>
    2634:	0f000008 	jal	c000020 <__memory_size+0xbfe0820>
    2638:	00083604 	0x83604
    263c:	05e60800 	0x5e60800
    2640:	085d0000 	j	1740000 <__memory_size+0x1720800>
    2644:	c3090000 	ll	t1,0(t8)
    2648:	02000000 	0x2000000
    264c:	04671e00 	aclr	0x1,-512(v1)
    2650:	42010000 	c0	0x10000
    2654:	8000097c 	lb	zero,2428(zero)
    2658:	00000180 	sll	zero,zero,0x6
    265c:	091e9c01 	j	47a7004 <__memory_size+0x4787804>
    2660:	ed1f0000 	swc3	$31,0(t0)
    2664:	01000007 	srav	zero,zero,t0
    2668:	00002842 	srl	a1,zero,0x1
    266c:	00015c00 	sll	t3,at,0x10
    2670:	00642000 	0x642000
    2674:	01014201 	0x1014201
    2678:	01880000 	0x1880000
    267c:	70210000 	madd	at,at
    2680:	7e450100 	ext	a1,s2,0x4,0x1
    2684:	b4000002 	0xb4000002
    2688:	22000001 	addi	zero,s0,1
    268c:	000006cc 	syscall	0x1b
    2690:	091e4601 	j	4791804 <__memory_size+0x4772004>
    2694:	01d30000 	0x1d30000
    2698:	fd220000 	sdc3	$2,0(t1)
    269c:	01000002 	0x1000002
    26a0:	00092447 	0x92447
    26a4:	0001fc00 	sll	ra,at,0x10
    26a8:	006e2100 	0x6e2100
    26ac:	00284801 	movf	t1,at,$fcc2
    26b0:	02230000 	0x2230000
    26b4:	69210000 	0x69210000
    26b8:	28490100 	slti	t1,v0,256
    26bc:	36000000 	ori	zero,s0,0x0
    26c0:	21000002 	addi	zero,t0,2
    26c4:	01006e66 	0x1006e66
    26c8:	0002944a 	0x2944a
    26cc:	00026b00 	sll	t5,v0,0xc
    26d0:	06d22300 	bltzall	s6,b2d4 <__isr_vec_space+0xb2b4>
    26d4:	51010000 	beql	t0,at,26d8 <__isr_vec_space+0x26b8>
    26d8:	00000024 	and	zero,zero,zero
    26dc:	00090d00 	sll	at,t1,0x14
    26e0:	6e692100 	0x6e692100
    26e4:	5e010064 	0x5e010064
    26e8:	00000028 	0x28
    26ec:	00000294 	0x294
    26f0:	000ab825 	or	s7,zero,t2
    26f4:	54012680 	bnel	zero,at,c0f8 <__isr_vec_space+0xc0d8>
    26f8:	00008602 	srl	s0,zero,0x18
    26fc:	0a8c2700 	j	a309c00 <__memory_size+0xa2ea400>
    2700:	09478000 	j	51e0000 <__memory_size+0x51c0800>
    2704:	01260000 	0x1260000
    2708:	00800254 	0x800254
    270c:	040f0000 	0x40f0000
    2710:	0000027e 	0x27e
    2714:	01f0040f 	0x1f0040f
    2718:	16280000 	bne	s1,t0,271c <__isr_vec_space+0x26fc>
    271c:	01000007 	srav	zero,zero,t0
    2720:	0000280e 	0x280e
    2724:	94290000 	lhu	t1,0(at)
    2728:	05000005 	bltz	t0,2740 <__isr_vec_space+0x2720>
    272c:	094202fb 	j	5080bec <__memory_size+0x50613ec>
    2730:	0e180000 	jal	8600000 <__memory_size+0x85e0800>
    2734:	2a000004 	slti	zero,s0,4
    2738:	000006c7 	0x6c7
    273c:	01145506 	0x1145506
    2740:	00000001 	movf	zero,zero,$fcc0
    2744:	00012200 	sll	a0,at,0x8
    2748:	07000400 	bltz	t8,374c <__isr_vec_space+0x372c>
    274c:	04000009 	bltz	zero,2774 <__isr_vec_space+0x2754>
    2750:	00072401 	0x72401
    2754:	08190100 	j	640400 <__memory_size+0x620c00>
    2758:	0afc0000 	j	bf00000 <__memory_size+0xbee0800>
    275c:	00888000 	0x888000
    2760:	08e20000 	j	3880000 <__memory_size+0x3860800>
    2764:	01020000 	0x1020000
    2768:	00008a06 	0x8a06
    276c:	08010200 	j	40800 <__memory_size+0x21000>
    2770:	00000088 	0x88
    2774:	2b050202 	slti	a1,t8,514
    2778:	02000001 	movf	zero,s0,$fcc0
    277c:	00fa0702 	0xfa0702
    2780:	0a030000 	j	80c0000 <__memory_size+0x80a0800>
    2784:	02000008 	jr	s0
    2788:	00004837 	0x4837
    278c:	05040200 	0x5040200
    2790:	00000005 	lsa	zero,zero,zero,0x1
    2794:	6d070402 	0x6d070402
    2798:	02000000 	0x2000000
    279c:	00000508 	0x508
    27a0:	08020000 	j	80000 <__memory_size+0x60800>
    27a4:	00006807 	srav	t5,zero,zero
    27a8:	080c0300 	j	300c00 <__memory_size+0x2e1400>
    27ac:	41030000 	mftc0	zero,c0_entrylo1
    27b0:	0000003d 	0x3d
    27b4:	69050404 	0x69050404
    27b8:	0200746e 	0x200746e
    27bc:	00720704 	0x720704
    27c0:	04020000 	bltzl	zero,27c4 <__isr_vec_space+0x27a4>
    27c4:	00013f07 	0x13f07
    27c8:	08010200 	j	40800 <__memory_size+0x21000>
    27cc:	00000091 	0x91
    27d0:	0007f205 	0x7f205
    27d4:	fc3c0100 	sdc3	$28,256(at)
    27d8:	8880000a 	lwl	zero,10(a0)
    27dc:	01000000 	0x1000000
    27e0:	0000f39c 	0xf39c
    27e4:	07e80600 	tgei	ra,1536
    27e8:	3c010000 	lui	at,0x0
    27ec:	00000064 	0x64
    27f0:	000002b2 	tlt	zero,zero,0xa
    27f4:	00081407 	0x81407
    27f8:	643e0100 	0x643e0100
    27fc:	01000000 	0x1000000
    2800:	706f0854 	s32ldi	xr1,v1,-248
    2804:	643f0100 	0x643f0100
    2808:	01000000 	0x1000000
    280c:	65720869 	0x65720869
    2810:	40010074 	0x40010074
    2814:	00000064 	0x64
    2818:	5c095201 	0x5c095201
    281c:	0980000b 	j	600002c <__memory_size+0x5fe082c>
    2820:	e9000001 	swc2	$0,1(t0)
    2824:	0a000000 	j	8000000 <__memory_size+0x7fe0800>
    2828:	83025401 	lb	v0,21505(t8)
    282c:	740b0000 	jalx	2c0000 <__memory_size+0x2a0800>
    2830:	1a80000b 	blez	s4,2860 <__isr_vec_space+0x2840>
    2834:	00000001 	movf	zero,zero,$fcc0
    2838:	0000840c 	syscall	0x210
    283c:	0000fe00 	sll	ra,zero,0x18
    2840:	0e000d00 	jal	8003400 <__memory_size+0x7fe3c00>
    2844:	000007f9 	0x7f9
    2848:	00f33801 	0xf33801
    284c:	d70f0000 	ldc1	$f15,0(t8)
    2850:	01000007 	srav	zero,zero,t0
    2854:	00011a34 	teq	zero,at,0x68
    2858:	00641000 	0x641000
    285c:	11000000 	beqz	t0,2860 <__isr_vec_space+0x2840>
    2860:	0000084b 	0x84b
    2864:	006f3301 	0x6f3301
    2868:	b9000000 	swr	zero,0(t0)
    286c:	02000000 	0x2000000
    2870:	0009f300 	sll	s8,t1,0xc
    2874:	f3010400 	0xf3010400
    2878:	84000009 	lh	zero,9(zero)
    287c:	3c80000b 	0x3c80000b
    2880:	2f80000c 	sltiu	zero,gp,12
    2884:	72657375 	q16slr	xr13,xr12,xr5,xr9,9
    2888:	70696d2f 	0x70696d2f
    288c:	74777373 	jalx	1ddcdcc <__memory_size+0x1dbd5cc>
    2890:	7469672f 	jalx	1a59cbc <__memory_size+0x1a3a4bc>
    2894:	77656e2f 	jalx	d95b8bc <__memory_size+0xd93c0bc>
    2898:	2f62696c 	sltiu	v0,k1,26988
    289c:	6762696c 	0x6762696c
    28a0:	73736f6c 	s16ldi	xr13,k1,438,ptn2
    28a4:	70696d2f 	0x70696d2f
    28a8:	68752f73 	0x68752f73
    28ac:	65675f69 	0x65675f69
    28b0:	67726174 	0x67726174
    28b4:	00532e73 	tltu	v0,s3,0xb9
    28b8:	6573752f 	0x6573752f
    28bc:	696d2f72 	0x696d2f72
    28c0:	77737370 	jalx	dcdcdc0 <__memory_size+0xdcbd5c0>
    28c4:	75622f74 	jalx	588bdd0 <__memory_size+0x586c5d0>
    28c8:	2d646c69 	sltiu	a0,t3,27753
    28cc:	35313032 	ori	s1,t1,0x3032
    28d0:	2d36302e 	sltiu	s6,t1,12334
    28d4:	6f2f3530 	0x6f2f3530
    28d8:	632d6a62 	0x632d6a62
    28dc:	73736f72 	0x73736f72
    28e0:	70696d2d 	s16sdi	xr4,v1,182,ptn1
    28e4:	746d2d73 	jalx	1b4b5cc <__memory_size+0x1b2bdcc>
    28e8:	6c652d69 	0x6c652d69
    28ec:	656e2f66 	0x656e2f66
    28f0:	62696c77 	0x62696c77
    28f4:	70696d2f 	0x70696d2f
    28f8:	746d2d73 	jalx	1b4b5cc <__memory_size+0x1b2bdcc>
    28fc:	6c652d69 	0x6c652d69
    2900:	6c652f66 	0x6c652f66
    2904:	666f732f 	0x666f732f
    2908:	62696c2f 	0x62696c2f
    290c:	736f6c67 	0x736f6c67
    2910:	696d2f73 	0x696d2f73
    2914:	47007370 	bz.b	$w0,1f6d8 <__isr_vec_space+0x1f6b8>
    2918:	4120554e 	0x4120554e
    291c:	2e322053 	sltiu	s2,s1,8275
    2920:	392e3432 	xori	t6,t1,0x3432
    2924:	80010030 	lb	at,48(zero)
    2928:	0000010b 	0x10b
    292c:	0a070004 	j	81c0010 <__memory_size+0x81a0810>
    2930:	01040000 	0x1040000
    2934:	00000724 	0x724
    2938:	00085d01 	0x85d01
    293c:	000c3c00 	sll	a3,t4,0x10
    2940:	00004880 	sll	t1,zero,0x2
    2944:	000a7e00 	sll	t7,t2,0x18
    2948:	06010200 	bgez	s0,314c <__isr_vec_space+0x312c>
    294c:	0000008a 	0x8a
    2950:	88080102 	lwl	t0,258(zero)
    2954:	02000000 	0x2000000
    2958:	012b0502 	0x12b0502
    295c:	02020000 	0x2020000
    2960:	0000fa07 	0xfa07
    2964:	080a0300 	j	280c00 <__memory_size+0x261400>
    2968:	37020000 	ori	v0,t8,0x0
    296c:	00000048 	0x48
    2970:	05050402 	0x5050402
    2974:	02000000 	0x2000000
    2978:	006d0704 	0x6d0704
    297c:	08020000 	j	80000 <__memory_size+0x60800>
    2980:	00000005 	lsa	zero,zero,zero,0x1
    2984:	07080200 	tgei	t8,512
    2988:	00000068 	0x68
    298c:	00080c03 	sra	at,t0,0x10
    2990:	3d410300 	0x3d410300
    2994:	04000000 	bltz	zero,2998 <__isr_vec_space+0x2978>
    2998:	6e690504 	0x6e690504
    299c:	04020074 	bltzl	zero,2b70 <__isr_vec_space+0x2b50>
    29a0:	00007207 	0x7207
    29a4:	07040200 	0x7040200
    29a8:	0000013f 	0x13f
    29ac:	01020405 	0x1020405
    29b0:	00009108 	0x9108
    29b4:	08d80600 	j	3601800 <__memory_size+0x35e2000>
    29b8:	27010000 	addiu	at,t8,0
    29bc:	80000c3c 	lb	zero,3132(zero)
    29c0:	00000048 	0x48
    29c4:	00e79c01 	0xe79c01
    29c8:	cf070000 	pref	0x7,0(t8)
    29cc:	01000008 	jr	t0
    29d0:	0000e727 	0xe727
    29d4:	0002d000 	sll	k0,v0,0x0
    29d8:	08af0700 	j	2bc1c00 <__memory_size+0x2ba2400>
    29dc:	27010000 	addiu	at,t8,0
    29e0:	000000e7 	0xe7
    29e4:	000002ee 	0x2ee
    29e8:	00706f08 	0x706f08
    29ec:	00642901 	0x642901
    29f0:	69010000 	0x69010000
    29f4:	0008c809 	0x8c809
    29f8:	842a0100 	lh	t2,256(at)
    29fc:	01000000 	0x1000000
    2a00:	08a60952 	j	2982548 <__memory_size+0x2962d48>
    2a04:	2b010000 	slti	at,t8,0
    2a08:	00000084 	0x84
    2a0c:	0a005301 	j	8014c04 <__memory_size+0x7ff5404>
    2a10:	00008404 	0x8404
    2a14:	00860b00 	0x860b00
    2a18:	00f80000 	0xf80000
    2a1c:	000c0000 	sll	zero,t4,0x0
    2a20:	0008980d 	break	0x8,0x260
    2a24:	ed230100 	swc3	$3,256(t1)
    2a28:	0d000000 	jal	4000000 <__memory_size+0x3fe0800>
    2a2c:	000008ba 	0x8ba
    2a30:	00ed2401 	0xed2401
    2a34:	c7000000 	lwc1	$f0,0(t8)
    2a38:	02000000 	0x2000000
    2a3c:	000ab200 	sll	s6,t2,0x8
    2a40:	76010400 	jalx	8041000 <__memory_size+0x8021800>
    2a44:	2000000b 	addi	zero,zero,11
    2a48:	2f000000 	sltiu	zero,t8,0
    2a4c:	72657375 	q16slr	xr13,xr12,xr5,xr9,9
    2a50:	70696d2f 	0x70696d2f
    2a54:	74777373 	jalx	1ddcdcc <__memory_size+0x1dbd5cc>
    2a58:	7469672f 	jalx	1a59cbc <__memory_size+0x1a3a4bc>
    2a5c:	77656e2f 	jalx	d95b8bc <__memory_size+0xd93c0bc>
    2a60:	2f62696c 	sltiu	v0,k1,26988
    2a64:	6762696c 	0x6762696c
    2a68:	73736f6c 	s16ldi	xr13,k1,438,ptn2
    2a6c:	70696d2f 	0x70696d2f
    2a70:	61682f73 	0x61682f73
    2a74:	696c2f6c 	0x696c2f6c
    2a78:	696d2f62 	0x696d2f62
    2a7c:	6d2f7370 	0x6d2f7370
    2a80:	5f737069 	0x5f737069
    2a84:	70637865 	s8sdi	xr1,v1,-34,ptn0
    2a88:	6e655f74 	0x6e655f74
    2a8c:	2e797274 	sltiu	t9,s3,29300
    2a90:	752f0053 	jalx	4bc014c <__memory_size+0x4ba094c>
    2a94:	2f726573 	sltiu	s2,k1,25971
    2a98:	7370696d 	s16sdi	xr5,k1,52,
    2a9c:	2f747773 	sltiu	s4,k1,30579
    2aa0:	6c697562 	0x6c697562
    2aa4:	30322d64 	andi	s2,at,0x2d64
    2aa8:	302e3531 	andi	t6,at,0x3531
    2aac:	35302d36 	ori	s0,t1,0x2d36
    2ab0:	6a626f2f 	0x6a626f2f
    2ab4:	6f72632d 	0x6f72632d
    2ab8:	6d2d7373 	0x6d2d7373
    2abc:	2d737069 	sltiu	s3,t3,28777
    2ac0:	2d69746d 	sltiu	t1,t3,29805
    2ac4:	2f666c65 	sltiu	a2,k1,27749
    2ac8:	6c77656e 	0x6c77656e
    2acc:	6d2f6269 	0x6d2f6269
    2ad0:	2d737069 	sltiu	s3,t3,28777
    2ad4:	2d69746d 	sltiu	t1,t3,29805
    2ad8:	2f666c65 	sltiu	a2,k1,27749
    2adc:	732f6c65 	s8sdi	xr1,t9,-37,ptn3
    2ae0:	6c2f666f 	0x6c2f666f
    2ae4:	6c676269 	0x6c676269
    2ae8:	2f73736f 	sltiu	s3,k1,29551
    2aec:	7370696d 	s16sdi	xr5,k1,52,
    2af0:	554e4700 	bnel	t2,t6,146f4 <__isr_vec_space+0x146d4>
    2af4:	20534120 	addi	s3,v0,16672
    2af8:	34322e32 	ori	s2,at,0x2e32
    2afc:	0030392e 	0x30392e
    2b00:	0b718001 	j	dc60004 <__memory_size+0xdc40804>
    2b04:	00040000 	sll	zero,a0,0x0
    2b08:	00000ac4 	0xac4
    2b0c:	07240104 	0x7240104
    2b10:	c6010000 	lwc1	$f1,0(s0)
    2b14:	84000009 	lh	zero,9(zero)
    2b18:	a480000c 	sh	zero,12(a0)
    2b1c:	7e000007 	0x7e000007
    2b20:	0200000c 	syscall	0x80000
    2b24:	00000689 	0x689
    2b28:	002cd402 	ror	k0,t4,0x10
    2b2c:	04030000 	bgezl	zero,2b30 <__isr_vec_space+0x2b10>
    2b30:	00006d07 	0x6d07
    2b34:	05040400 	0x5040400
    2b38:	00746e69 	0x746e69
    2b3c:	05050403 	0x5050403
    2b40:	03000000 	0x3000000
    2b44:	008a0601 	0x8a0601
    2b48:	01030000 	0x1030000
    2b4c:	00008808 	0x8808
    2b50:	05020300 	bltzl	t0,3754 <__isr_vec_space+0x3734>
    2b54:	0000012b 	0x12b
    2b58:	fa070203 	sdc2	$7,515(s0)
    2b5c:	02000000 	0x2000000
    2b60:	0000080a 	movz	at,zero,zero
    2b64:	003a3703 	0x3a3703
    2b68:	45020000 	bc1fl	2b6c <__isr_vec_space+0x2b4c>
    2b6c:	03000009 	jalr	zero,t8
    2b70:	00002c38 	0x2c38
    2b74:	05080300 	tgei	t0,768
    2b78:	00000000 	nop
    2b7c:	68070803 	0x68070803
    2b80:	03000000 	0x3000000
    2b84:	00720704 	0x720704
    2b88:	04030000 	bgezl	zero,2b8c <__isr_vec_space+0x2b6c>
    2b8c:	00013f07 	0x13f07
    2b90:	08010300 	j	40c00 <__memory_size+0x21400>
    2b94:	00000091 	0x91
    2b98:	009c0405 	0x9c0405
    2b9c:	8f060000 	lw	a2,0(t8)
    2ba0:	05000000 	bltz	t0,2ba4 <__isr_vec_space+0x2b84>
    2ba4:	0000a704 	0xa704
    2ba8:	77080700 	jalx	c201c00 <__memory_size+0xc1e2400>
    2bac:	04000009 	bltz	zero,2bd4 <__isr_vec_space+0x2bb4>
    2bb0:	00810381 	0x810381
    2bb4:	76080000 	jalx	8200000 <__memory_size+0x81e0800>
    2bb8:	04000009 	bltz	zero,2be0 <__isr_vec_space+0x2bc0>
    2bbc:	00330382 	ror	zero,s3,0xe
    2bc0:	0c020000 	jal	80000 <__memory_size+0x60800>
    2bc4:	05000008 	bltz	t0,2be8 <__isr_vec_space+0x2bc8>
    2bc8:	00005d41 	0x5d41
    2bcc:	09470200 	j	51c0800 <__memory_size+0x51a1000>
    2bd0:	42050000 	c0	0x50000
    2bd4:	00000068 	0x68
    2bd8:	ec067c09 	swc3	$6,31753(zero)
    2bdc:	00000153 	0x153
    2be0:	0074610a 	0x74610a
    2be4:	00a8ee06 	0xa8ee06
    2be8:	0a000000 	j	8000000 <__memory_size+0x7fe0800>
    2bec:	ef060076 	swc3	$6,118(t8)
    2bf0:	00000153 	0x153
    2bf4:	00610a04 	0x610a04
    2bf8:	0163f406 	0x163f406
    2bfc:	0a0c0000 	j	8300000 <__memory_size+0x82e0800>
    2c00:	f5060074 	sdc1	$f6,116(t0)
    2c04:	00000173 	tltu	zero,zero,0x5
    2c08:	00730a1c 	0x730a1c
    2c0c:	0173f706 	0x173f706
    2c10:	0a3c0000 	j	8f00000 <__memory_size+0x8ee0800>
    2c14:	06003274 	bltz	s0,f5e8 <__isr_vec_space+0xf5c8>
    2c18:	000153f8 	0x153f8
    2c1c:	6b0a5c00 	0x6b0a5c00
    2c20:	53f90600 	beql	ra,t9,4424 <__isr_vec_space+0x4404>
    2c24:	64000001 	0x64000001
    2c28:	0070670a 	0x70670a
    2c2c:	00a8fa06 	0xa8fa06
    2c30:	0a6c0000 	j	9b00000 <__memory_size+0x9ae0800>
    2c34:	06007073 	bltz	s0,1ee04 <__isr_vec_space+0x1ede4>
    2c38:	0000a8fb 	0xa8fb
    2c3c:	660a7000 	0x660a7000
    2c40:	fc060070 	sdc3	$6,112(zero)
    2c44:	000000a8 	0xa8
    2c48:	61720a74 	0x61720a74
    2c4c:	a8fd0600 	swl	sp,1536(a3)
    2c50:	78000000 	andi.b	$w0,$w0,0x0
    2c54:	00a80b00 	0xa80b00
    2c58:	01630000 	0x1630000
    2c5c:	880c0000 	lwl	t4,0(zero)
    2c60:	01000000 	0x1000000
    2c64:	00a80b00 	0xa80b00
    2c68:	01730000 	0x1730000
    2c6c:	880c0000 	lwl	t4,0(zero)
    2c70:	03000000 	0x3000000
    2c74:	00a80b00 	0xa80b00
    2c78:	01830000 	0x1830000
    2c7c:	880c0000 	lwl	t4,0(zero)
    2c80:	07000000 	bltz	t8,2c84 <__isr_vec_space+0x2c64>
    2c84:	067c0d00 	0x67c0d00
    2c88:	00019aea 	0x19aea
    2c8c:	00d60e00 	0xd60e00
    2c90:	720f0000 	madd	s0,t7
    2c94:	9aff0600 	lwr	ra,1536(s7)
    2c98:	00000001 	movf	zero,zero,$fcc0
    2c9c:	0000a80b 	movn	s5,zero,zero
    2ca0:	0001aa00 	sll	s5,at,0x8
    2ca4:	00880c00 	0x880c00
    2ca8:	001e0000 	sll	zero,s8,0x0
    2cac:	00096110 	0x96110
    2cb0:	e806a000 	swc2	$6,-24576(zero)
    2cb4:	00000230 	tge	zero,zero,0x8
    2cb8:	00018311 	0x18311
    2cbc:	65120000 	0x65120000
    2cc0:	06006370 	bltz	s0,1ba84 <__isr_vec_space+0x1ba64>
    2cc4:	00a80102 	0xa80102
    2cc8:	137c0000 	beq	k1,gp,2ccc <__isr_vec_space+0x2cac>
    2ccc:	00000967 	0x967
    2cd0:	a8010306 	swl	at,774(zero)
    2cd4:	80000000 	lb	zero,0(zero)
    2cd8:	00696812 	0x696812
    2cdc:	a8010406 	swl	at,1030(zero)
    2ce0:	84000000 	lh	zero,0(zero)
    2ce4:	006f6c12 	0x6f6c12
    2ce8:	a8010506 	swl	at,1286(zero)
    2cec:	88000000 	lwl	zero,0(zero)
    2cf0:	00095013 	0x95013
    2cf4:	01070600 	0x1070600
    2cf8:	00000257 	0x257
    2cfc:	09ac138c 	j	6b04e30 <__memory_size+0x6ae5630>
    2d00:	0a060000 	j	8180000 <__memory_size+0x8160800>
    2d04:	0000cb01 	0xcb01
    2d08:	0f139000 	jal	c4e4000 <__memory_size+0xc4c4800>
    2d0c:	06000009 	bltz	s0,2d34 <__isr_vec_space+0x2d14>
    2d10:	00cb010c 	syscall	0x32c04
    2d14:	13940000 	beq	gp,s4,2d18 <__isr_vec_space+0x2cf8>
    2d18:	000009bd 	0x9bd
    2d1c:	cb010d06 	lwc2	$1,3334(t8)
    2d20:	98000000 	lwr	zero,0(zero)
    2d24:	0009b313 	0x9b313
    2d28:	010e0600 	0x10e0600
    2d2c:	000000cb 	0xcb
    2d30:	3d14009c 	0x3d14009c
    2d34:	08000009 	j	24 <__isr_vec_space+0x4>
    2d38:	57011106 	bnel	t8,at,7154 <__isr_vec_space+0x7134>
    2d3c:	12000002 	beqz	s0,2d48 <__isr_vec_space+0x2d28>
    2d40:	06006469 	bltz	s0,1bee8 <__isr_vec_space+0x1bec8>
    2d44:	00a80113 	0xa80113
    2d48:	13000000 	beqz	t8,2d4c <__isr_vec_space+0x2d2c>
    2d4c:	000004e2 	0x4e2
    2d50:	57011406 	bnel	t8,at,7d6c <__isr_vec_space+0x7d4c>
    2d54:	04000002 	bltz	zero,2d60 <__isr_vec_space+0x2d40>
    2d58:	30040500 	andi	a0,zero,0x500
    2d5c:	03000002 	0x3000002
    2d60:	09300408 	j	4c01020 <__memory_size+0x4be1820>
    2d64:	04030000 	bgezl	zero,2d68 <__isr_vec_space+0x2d48>
    2d68:	00097004 	sllv	t6,t1,zero
    2d6c:	099d1500 	j	6745400 <__memory_size+0x6725c00>
    2d70:	31010000 	andi	at,t0,0x0
    2d74:	0002c501 	0x2c501
    2d78:	72701600 	0x72701600
    2d7c:	31010065 	andi	at,t0,0x65
    2d80:	00000096 	0x96
    2d84:	00053717 	0x53717
    2d88:	a8310100 	swl	s1,256(at)
    2d8c:	17000000 	bnez	t8,2d90 <__isr_vec_space+0x2d70>
    2d90:	000009a5 	0x9a5
    2d94:	00333101 	0x333101
    2d98:	5c170000 	0x5c170000
    2d9c:	01000009 	jalr	zero,t0
    2da0:	00009631 	tgeu	zero,zero,0x258
    2da4:	75621800 	jalx	5886000 <__memory_size+0x5866800>
    2da8:	33010066 	andi	at,t8,0x66
    2dac:	000002c5 	0x2c5
    2db0:	00093719 	0x93719
    2db4:	33340100 	andi	s4,t9,0x100
    2db8:	18000000 	blez	zero,2dbc <__isr_vec_space+0x2d9c>
    2dbc:	00786469 	0x786469
    2dc0:	00333501 	0x333501
    2dc4:	0b000000 	j	c000000 <__memory_size+0xbfe0800>
    2dc8:	0000008f 	sync	0x2
    2dcc:	000002d4 	0x2d4
    2dd0:	0000881a 	0x881a
    2dd4:	6b1b0000 	0x6b1b0000
    2dd8:	84000002 	lh	zero,2(zero)
    2ddc:	c080000c 	ll	zero,12(a0)
    2de0:	01000000 	0x1000000
    2de4:	00039c9c 	0x39c9c
    2de8:	02771c00 	0x2771c00
    2dec:	030c0000 	0x30c0000
    2df0:	821c0000 	lb	gp,0(s0)
    2df4:	38000002 	xori	zero,zero,0x2
    2df8:	1c000003 	bgtz	zero,2e08 <__isr_vec_space+0x2de8>
    2dfc:	00000298 	0x298
    2e00:	00000364 	0x364
    2e04:	0002a31d 	0x2a31d
    2e08:	00039c00 	sll	s3,v1,0x10
    2e0c:	00039000 	sll	s2,v1,0x0
    2e10:	02ae1e00 	0x2ae1e00
    2e14:	03c80000 	0x3c80000
    2e18:	b91e0000 	swr	s8,0(t0)
    2e1c:	0c000002 	jal	8 <ABIFlags_isa_ext>
    2e20:	1f000004 	bgtz	t8,2e34 <__isr_vec_space+0x2e14>
    2e24:	0000028d 	break	0x0,0xa
    2e28:	0cb02008 	jal	2c08020 <__memory_size+0x2be8820>
    2e2c:	0af18000 	j	bc60000 <__memory_size+0xbc40800>
    2e30:	033b0000 	0x33b0000
    2e34:	01210000 	0x1210000
    2e38:	00810254 	0x810254
    2e3c:	0cc02000 	jal	3008000 <__memory_size+0x2fe8800>
    2e40:	0b068000 	j	c1a0000 <__memory_size+0xc180800>
    2e44:	03540000 	0x3540000
    2e48:	01210000 	0x1210000
    2e4c:	00810255 	0x810255
    2e50:	01540121 	0x1540121
    2e54:	0c200031 	jal	8000c4 <__memory_size+0x7e08c4>
    2e58:	0680000d 	bltz	s4,2e90 <__isr_vec_space+0x2e70>
    2e5c:	7200000b 	d16macf	xr0,xr0,xr0,xr0,SA,WW
    2e60:	21000003 	addi	zero,t0,3
    2e64:	38015601 	xori	at,zero,0x5601
    2e68:	02550121 	0x2550121
    2e6c:	01216891 	0x1216891
    2e70:	00310154 	0x310154
    2e74:	000d1c20 	0xd1c20
    2e78:	000af180 	sll	s8,t2,0x6
    2e7c:	00038600 	sll	s0,v1,0x18
    2e80:	54012100 	bnel	zero,at,b284 <__isr_vec_space+0xb264>
    2e84:	00008002 	srl	s0,zero,0x0
    2e88:	000d2c22 	0xd2c22
    2e8c:	000b0680 	sll	zero,t3,0x1a
    2e90:	55012100 	bnel	t0,at,b294 <__isr_vec_space+0xb274>
    2e94:	21008002 	addi	zero,t0,-32766
    2e98:	31015401 	andi	at,t0,0x5401
    2e9c:	8f0b0000 	lw	t3,0(t8)
    2ea0:	ad000000 	sw	zero,0(t0)
    2ea4:	23000003 	addi	zero,t8,3
    2ea8:	00000088 	0x88
    2eac:	24003701 	li	zero,14081
    2eb0:	000008e7 	0x8e7
    2eb4:	0d444301 	jal	5110c04 <__memory_size+0x50f1404>
    2eb8:	00088000 	sll	s0,t0,0x0
    2ebc:	9c010000 	0x9c010000
    2ec0:	0000040f 	sync_mb
    2ec4:	65727025 	0x65727025
    2ec8:	96430100 	lhu	v1,256(s2)
    2ecc:	2b000000 	slti	zero,t8,0
    2ed0:	26000004 	addiu	zero,s0,4
    2ed4:	00000537 	0x537
    2ed8:	00a84301 	0xa84301
    2edc:	044c0000 	teqi	v0,0
    2ee0:	5c260000 	0x5c260000
    2ee4:	01000009 	jalr	zero,t0
    2ee8:	00009643 	sra	s2,zero,0x19
    2eec:	00046d00 	sll	t5,a0,0x14
    2ef0:	0d4c2700 	jal	5309c00 <__memory_size+0x52ea400>
    2ef4:	02d48000 	0x2d48000
    2ef8:	01210000 	0x1210000
    2efc:	01f30356 	0x1f30356
    2f00:	55012156 	bnel	t0,at,b45c <__isr_vec_space+0xb43c>
    2f04:	5501f303 	bnel	t0,at,fffffb14 <__entry+0x403ffb14>
    2f08:	03540121 	0x3540121
    2f0c:	005401f3 	tltu	v0,s4,0x7
    2f10:	09152800 	j	454a000 <__memory_size+0x452a800>
    2f14:	59010000 	0x59010000
    2f18:	80000d4c 	lb	zero,3404(zero)
    2f1c:	000006dc 	0x6dc
    2f20:	0aca9c01 	j	b2a7004 <__memory_size+0xb287804>
    2f24:	63250000 	0x63250000
    2f28:	01007874 	teq	t0,zero,0x1e1
    2f2c:	000aca59 	0xaca59
    2f30:	00048e00 	sll	s1,a0,0x18
    2f34:	011a2600 	0x11a2600
    2f38:	59010000 	0x59010000
    2f3c:	00000033 	tltu	zero,zero
    2f40:	00000764 	0x764
    2f44:	000f3029 	0xf3029
    2f48:	00000480 	sll	zero,zero,0x12
    2f4c:	00045f00 	sll	t3,a0,0x1c
    2f50:	5f5f2a00 	0x5f5f2a00
    2f54:	b2010072 	0xb2010072
    2f58:	00000081 	0x81
    2f5c:	000009ab 	0x9ab
    2f60:	0f402900 	jal	d00a400 <__memory_size+0xcfeac00>
    2f64:	00048000 	sll	s0,a0,0x0
    2f68:	047c0000 	0x47c0000
    2f6c:	5f2a0000 	0x5f2a0000
    2f70:	0100725f 	0x100725f
    2f74:	000081b3 	tltu	zero,zero,0x206
    2f78:	0009be00 	sll	s7,t1,0x18
    2f7c:	54290000 	bnel	at,t1,2f80 <__isr_vec_space+0x2f60>
    2f80:	2080000f 	addi	zero,a0,15
    2f84:	c2000000 	ll	zero,0(s0)
    2f88:	18000004 	blez	zero,2f9c <__isr_vec_space+0x2f7c>
    2f8c:	01007273 	tltu	t0,zero,0x1c9
    2f90:	000081b5 	0x81b5
    2f94:	0f542900 	jal	d50a400 <__memory_size+0xd4eac00>
    2f98:	00048000 	sll	s0,a0,0x0
    2f9c:	04ac0000 	teqi	a1,0
    2fa0:	5f180000 	0x5f180000
    2fa4:	0100725f 	0x100725f
    2fa8:	000081b5 	0x81b5
    2fac:	682b0000 	0x682b0000
    2fb0:	0480000f 	bltz	a0,2ff0 <__isr_vec_space+0x2fd0>
    2fb4:	18000000 	blez	zero,2fb8 <__isr_vec_space+0x2f98>
    2fb8:	00725f5f 	0x725f5f
    2fbc:	0081b801 	movt	s7,a0,$fcc0
    2fc0:	00000000 	nop
    2fc4:	000f9429 	0xf9429
    2fc8:	00000480 	sll	zero,zero,0x12
    2fcc:	0004df00 	sll	k1,a0,0x1c
    2fd0:	5f5f2a00 	0x5f5f2a00
    2fd4:	c2010072 	ll	at,114(s0)
    2fd8:	00000081 	0x81
    2fdc:	000009d1 	0x9d1
    2fe0:	0fa42900 	jal	e90a400 <__memory_size+0xe8eac00>
    2fe4:	00048000 	sll	s0,a0,0x0
    2fe8:	04fc0000 	0x4fc0000
    2fec:	5f2a0000 	0x5f2a0000
    2ff0:	0100725f 	0x100725f
    2ff4:	000081c3 	sra	s0,zero,0x7
    2ff8:	0009e400 	sll	gp,t1,0x10
    2ffc:	b8290000 	swr	t1,0(at)
    3000:	2080000f 	addi	zero,a0,15
    3004:	42000000 	c0	0x0
    3008:	18000005 	blez	zero,3020 <__isr_vec_space+0x3000>
    300c:	01007273 	tltu	t0,zero,0x1c9
    3010:	000081c5 	0x81c5
    3014:	0fb82900 	jal	ee0a400 <__memory_size+0xedeac00>
    3018:	00048000 	sll	s0,a0,0x0
    301c:	052c0000 	teqi	t1,0
    3020:	5f180000 	0x5f180000
    3024:	0100725f 	0x100725f
    3028:	000081c5 	0x81c5
    302c:	cc2b0000 	pref	0xb,0(at)
    3030:	0480000f 	bltz	a0,3070 <__isr_vec_space+0x3050>
    3034:	18000000 	blez	zero,3038 <__isr_vec_space+0x3018>
    3038:	00725f5f 	0x725f5f
    303c:	0081c801 	movt	t9,a0,$fcc0
    3040:	00000000 	nop
    3044:	000dc820 	add	t9,zero,t5
    3048:	0003ad80 	sll	s5,v1,0x16
    304c:	00055500 	sll	t2,a1,0x14
    3050:	56012100 	bnel	s0,at,b454 <__isr_vec_space+0xb434>
    3054:	2c003001 	sltiu	zero,zero,12289
    3058:	80000df8 	lb	zero,3576(zero)
    305c:	00000b06 	0xb06
    3060:	000e582c 	0xe582c
    3064:	000b0680 	sll	zero,t3,0x1a
    3068:	0e982000 	jal	a608000 <__memory_size+0xa5e8800>
    306c:	0b258000 	j	c960000 <__memory_size+0xc940800>
    3070:	057b0000 	0x57b0000
    3074:	01210000 	0x1210000
    3078:	00800254 	0x800254
    307c:	0ebc2c00 	jal	af0b000 <__memory_size+0xaeeb800>
    3080:	0b3b8000 	j	cee0000 <__memory_size+0xcec0800>
    3084:	cc200000 	pref	0x0,0(at)
    3088:	4780000e 	bnz.b	$w0,30c4 <__isr_vec_space+0x30a4>
    308c:	9800000b 	lwr	zero,11(zero)
    3090:	21000005 	addi	zero,t0,5
    3094:	80025401 	lb	v0,21505(zero)
    3098:	d4200000 	ldc1	$f0,0(at)
    309c:	ad800010 	sw	zero,16(t4)
    30a0:	af000003 	sw	zero,3(t8)
    30a4:	21000005 	addi	zero,t0,5
    30a8:	03055601 	0x3055601
    30ac:	80001d7c 	lb	zero,7548(zero)
    30b0:	10f02000 	beq	a3,s0,b0b4 <__isr_vec_space+0xb094>
    30b4:	03ad8000 	0x3ad8000
    30b8:	05d40000 	0x5d40000
    30bc:	01210000 	0x1210000
    30c0:	b0030556 	0xb0030556
    30c4:	2180001d 	addi	zero,t4,29
    30c8:	30015501 	andi	at,zero,0x5501
    30cc:	05540121 	0x5540121
    30d0:	001da803 	sra	s5,sp,0x0
    30d4:	04200080 	bltz	at,32d8 <__isr_vec_space+0x32b8>
    30d8:	ad800011 	sw	zero,17(t4)
    30dc:	f4000003 	sdc1	$f0,3(zero)
    30e0:	21000005 	addi	zero,t0,5
    30e4:	03055601 	0x3055601
    30e8:	80001db0 	lb	zero,7600(zero)
    30ec:	05540121 	0x5540121
    30f0:	001db403 	sra	s6,sp,0x10
    30f4:	18200080 	blez	at,32f8 <__isr_vec_space+0x32d8>
    30f8:	ad800011 	sw	zero,17(t4)
    30fc:	14000003 	bnez	zero,310c <__isr_vec_space+0x30ec>
    3100:	21000006 	addi	zero,t0,6
    3104:	03055601 	0x3055601
    3108:	80001db0 	lb	zero,7600(zero)
    310c:	05540121 	0x5540121
    3110:	001dbc03 	sra	s7,sp,0x10
    3114:	2c200080 	sltiu	zero,at,128
    3118:	ad800011 	sw	zero,17(t4)
    311c:	34000003 	li	zero,0x3
    3120:	21000006 	addi	zero,t0,6
    3124:	03055601 	0x3055601
    3128:	80001d7c 	lb	zero,7548(zero)
    312c:	05540121 	0x5540121
    3130:	001dc403 	sra	t8,sp,0x10
    3134:	40200080 	0x40200080
    3138:	ad800011 	sw	zero,17(t4)
    313c:	54000003 	bnezl	zero,314c <__isr_vec_space+0x312c>
    3140:	21000006 	addi	zero,t0,6
    3144:	03055601 	0x3055601
    3148:	80001db0 	lb	zero,7600(zero)
    314c:	05540121 	0x5540121
    3150:	001dcc03 	sra	t9,sp,0x10
    3154:	54200080 	bnezl	at,3358 <__isr_vec_space+0x3338>
    3158:	ad800011 	sw	zero,17(t4)
    315c:	74000003 	jalx	c <ABIFlags_ases>
    3160:	21000006 	addi	zero,t0,6
    3164:	03055601 	0x3055601
    3168:	80001db0 	lb	zero,7600(zero)
    316c:	05540121 	0x5540121
    3170:	001dd403 	sra	k0,sp,0x10
    3174:	68200080 	0x68200080
    3178:	ad800011 	sw	zero,17(t4)
    317c:	94000003 	lhu	zero,3(zero)
    3180:	21000006 	addi	zero,t0,6
    3184:	03055601 	0x3055601
    3188:	80001db0 	lb	zero,7600(zero)
    318c:	05540121 	0x5540121
    3190:	001ddc03 	sra	k1,sp,0x10
    3194:	7c200080 	ext	zero,at,0x2,0x1
    3198:	ad800011 	sw	zero,17(t4)
    319c:	b4000003 	0xb4000003
    31a0:	21000006 	addi	zero,t0,6
    31a4:	03055601 	0x3055601
    31a8:	80001d7c 	lb	zero,7548(zero)
    31ac:	05540121 	0x5540121
    31b0:	001de403 	sra	gp,sp,0x10
    31b4:	90200080 	lbu	zero,128(at)
    31b8:	ad800011 	sw	zero,17(t4)
    31bc:	d4000003 	ldc1	$f0,3(zero)
    31c0:	21000006 	addi	zero,t0,6
    31c4:	03055601 	0x3055601
    31c8:	80001db0 	lb	zero,7600(zero)
    31cc:	05540121 	0x5540121
    31d0:	001dec03 	sra	sp,sp,0x10
    31d4:	a4200080 	sh	zero,128(at)
    31d8:	ad800011 	sw	zero,17(t4)
    31dc:	f4000003 	sdc1	$f0,3(zero)
    31e0:	21000006 	addi	zero,t0,6
    31e4:	03055601 	0x3055601
    31e8:	80001db0 	lb	zero,7600(zero)
    31ec:	05540121 	0x5540121
    31f0:	001df403 	sra	s8,sp,0x10
    31f4:	b8200080 	swr	zero,128(at)
    31f8:	ad800011 	sw	zero,17(t4)
    31fc:	14000003 	bnez	zero,320c <__isr_vec_space+0x31ec>
    3200:	21000007 	addi	zero,t0,7
    3204:	03055601 	0x3055601
    3208:	80001db0 	lb	zero,7600(zero)
    320c:	05540121 	0x5540121
    3210:	001dfc03 	sra	ra,sp,0x10
    3214:	cc200080 	pref	0x0,128(at)
    3218:	ad800011 	sw	zero,17(t4)
    321c:	34000003 	li	zero,0x3
    3220:	21000007 	addi	zero,t0,7
    3224:	03055601 	0x3055601
    3228:	80001d7c 	lb	zero,7548(zero)
    322c:	05540121 	0x5540121
    3230:	001e0403 	sra	zero,s8,0x10
    3234:	e0200080 	sc	zero,128(at)
    3238:	ad800011 	sw	zero,17(t4)
    323c:	54000003 	bnezl	zero,324c <__isr_vec_space+0x322c>
    3240:	21000007 	addi	zero,t0,7
    3244:	03055601 	0x3055601
    3248:	80001db0 	lb	zero,7600(zero)
    324c:	05540121 	0x5540121
    3250:	001e0c03 	sra	at,s8,0x10
    3254:	f4200080 	sdc1	$f0,128(at)
    3258:	ad800011 	sw	zero,17(t4)
    325c:	74000003 	jalx	c <ABIFlags_ases>
    3260:	21000007 	addi	zero,t0,7
    3264:	03055601 	0x3055601
    3268:	80001db0 	lb	zero,7600(zero)
    326c:	05540121 	0x5540121
    3270:	001e1403 	sra	v0,s8,0x10
    3274:	08200080 	j	800200 <__memory_size+0x7e0a00>
    3278:	ad800012 	sw	zero,18(t4)
    327c:	94000003 	lhu	zero,3(zero)
    3280:	21000007 	addi	zero,t0,7
    3284:	03055601 	0x3055601
    3288:	80001db0 	lb	zero,7600(zero)
    328c:	05540121 	0x5540121
    3290:	001e1c03 	sra	v1,s8,0x10
    3294:	1c200080 	bgtz	at,3498 <__isr_vec_space+0x3478>
    3298:	ad800012 	sw	zero,18(t4)
    329c:	b4000003 	0xb4000003
    32a0:	21000007 	addi	zero,t0,7
    32a4:	03055601 	0x3055601
    32a8:	80001d7c 	lb	zero,7548(zero)
    32ac:	05540121 	0x5540121
    32b0:	001e2403 	sra	a0,s8,0x10
    32b4:	30200080 	andi	zero,at,0x80
    32b8:	ad800012 	sw	zero,18(t4)
    32bc:	d4000003 	ldc1	$f0,3(zero)
    32c0:	21000007 	addi	zero,t0,7
    32c4:	03055601 	0x3055601
    32c8:	80001db0 	lb	zero,7600(zero)
    32cc:	05540121 	0x5540121
    32d0:	001e2c03 	sra	a1,s8,0x10
    32d4:	44200080 	0x44200080
    32d8:	ad800012 	sw	zero,18(t4)
    32dc:	f4000003 	sdc1	$f0,3(zero)
    32e0:	21000007 	addi	zero,t0,7
    32e4:	03055601 	0x3055601
    32e8:	80001db0 	lb	zero,7600(zero)
    32ec:	05540121 	0x5540121
    32f0:	001e3403 	sra	a2,s8,0x10
    32f4:	58200080 	blezl	at,34f8 <__isr_vec_space+0x34d8>
    32f8:	ad800012 	sw	zero,18(t4)
    32fc:	14000003 	bnez	zero,330c <__isr_vec_space+0x32ec>
    3300:	21000008 	addi	zero,t0,8
    3304:	03055601 	0x3055601
    3308:	80001db0 	lb	zero,7600(zero)
    330c:	05540121 	0x5540121
    3310:	001e3c03 	sra	a3,s8,0x10
    3314:	6c200080 	0x6c200080
    3318:	ad800012 	sw	zero,18(t4)
    331c:	34000003 	li	zero,0x3
    3320:	21000008 	addi	zero,t0,8
    3324:	03055601 	0x3055601
    3328:	80001d7c 	lb	zero,7548(zero)
    332c:	05540121 	0x5540121
    3330:	001e4403 	sra	t0,s8,0x10
    3334:	80200080 	lb	zero,128(at)
    3338:	ad800012 	sw	zero,18(t4)
    333c:	54000003 	bnezl	zero,334c <__isr_vec_space+0x332c>
    3340:	21000008 	addi	zero,t0,8
    3344:	03055601 	0x3055601
    3348:	80001db0 	lb	zero,7600(zero)
    334c:	05540121 	0x5540121
    3350:	001e4c03 	sra	t1,s8,0x10
    3354:	94200080 	lhu	zero,128(at)
    3358:	ad800012 	sw	zero,18(t4)
    335c:	74000003 	jalx	c <ABIFlags_ases>
    3360:	21000008 	addi	zero,t0,8
    3364:	03055601 	0x3055601
    3368:	80001db0 	lb	zero,7600(zero)
    336c:	05540121 	0x5540121
    3370:	001e5403 	sra	t2,s8,0x10
    3374:	a8200080 	swl	zero,128(at)
    3378:	ad800012 	sw	zero,18(t4)
    337c:	94000003 	lhu	zero,3(zero)
    3380:	21000008 	addi	zero,t0,8
    3384:	03055601 	0x3055601
    3388:	80001db0 	lb	zero,7600(zero)
    338c:	05540121 	0x5540121
    3390:	001e5c03 	sra	t3,s8,0x10
    3394:	bc200080 	cache	0x0,128(at)
    3398:	ad800012 	sw	zero,18(t4)
    339c:	b4000003 	0xb4000003
    33a0:	21000008 	addi	zero,t0,8
    33a4:	03055601 	0x3055601
    33a8:	80001d7c 	lb	zero,7548(zero)
    33ac:	05540121 	0x5540121
    33b0:	001e6403 	sra	t4,s8,0x10
    33b4:	d0200080 	0xd0200080
    33b8:	ad800012 	sw	zero,18(t4)
    33bc:	d4000003 	ldc1	$f0,3(zero)
    33c0:	21000008 	addi	zero,t0,8
    33c4:	03055601 	0x3055601
    33c8:	80001db0 	lb	zero,7600(zero)
    33cc:	05540121 	0x5540121
    33d0:	001e6c03 	sra	t5,s8,0x10
    33d4:	e4200080 	swc1	$f0,128(at)
    33d8:	ad800012 	sw	zero,18(t4)
    33dc:	f4000003 	sdc1	$f0,3(zero)
    33e0:	21000008 	addi	zero,t0,8
    33e4:	03055601 	0x3055601
    33e8:	80001db0 	lb	zero,7600(zero)
    33ec:	05540121 	0x5540121
    33f0:	001e7403 	sra	t6,s8,0x10
    33f4:	f8200080 	sdc2	$0,128(at)
    33f8:	ad800012 	sw	zero,18(t4)
    33fc:	14000003 	bnez	zero,340c <__isr_vec_space+0x33ec>
    3400:	21000009 	addi	zero,t0,9
    3404:	03055601 	0x3055601
    3408:	80001db0 	lb	zero,7600(zero)
    340c:	05540121 	0x5540121
    3410:	001e7c03 	sra	t7,s8,0x10
    3414:	0c200080 	jal	800200 <__memory_size+0x7e0a00>
    3418:	ad800013 	sw	zero,19(t4)
    341c:	34000003 	li	zero,0x3
    3420:	21000009 	addi	zero,t0,9
    3424:	03055601 	0x3055601
    3428:	80001d7c 	lb	zero,7548(zero)
    342c:	05540121 	0x5540121
    3430:	001e8403 	sra	s0,s8,0x10
    3434:	20200080 	addi	zero,at,128
    3438:	ad800013 	sw	zero,19(t4)
    343c:	54000003 	bnezl	zero,344c <__isr_vec_space+0x342c>
    3440:	21000009 	addi	zero,t0,9
    3444:	03055601 	0x3055601
    3448:	80001db0 	lb	zero,7600(zero)
    344c:	05540121 	0x5540121
    3450:	001e8c03 	sra	s1,s8,0x10
    3454:	34200080 	ori	zero,at,0x80
    3458:	ad800013 	sw	zero,19(t4)
    345c:	74000003 	jalx	c <ABIFlags_ases>
    3460:	21000009 	addi	zero,t0,9
    3464:	03055601 	0x3055601
    3468:	80001db0 	lb	zero,7600(zero)
    346c:	05540121 	0x5540121
    3470:	001e9403 	sra	s2,s8,0x10
    3474:	48200080 	0x48200080
    3478:	ad800013 	sw	zero,19(t4)
    347c:	94000003 	lhu	zero,3(zero)
    3480:	21000009 	addi	zero,t0,9
    3484:	03055601 	0x3055601
    3488:	80001db0 	lb	zero,7600(zero)
    348c:	05540121 	0x5540121
    3490:	001e9c03 	sra	s3,s8,0x10
    3494:	5c200080 	bgtzl	at,3698 <__isr_vec_space+0x3678>
    3498:	ad800013 	sw	zero,19(t4)
    349c:	b4000003 	0xb4000003
    34a0:	21000009 	addi	zero,t0,9
    34a4:	03055601 	0x3055601
    34a8:	80001d7c 	lb	zero,7548(zero)
    34ac:	05540121 	0x5540121
    34b0:	001ea403 	sra	s4,s8,0x10
    34b4:	70200080 	0x70200080
    34b8:	ad800013 	sw	zero,19(t4)
    34bc:	d4000003 	ldc1	$f0,3(zero)
    34c0:	21000009 	addi	zero,t0,9
    34c4:	03055601 	0x3055601
    34c8:	80001db0 	lb	zero,7600(zero)
    34cc:	05540121 	0x5540121
    34d0:	001eac03 	sra	s5,s8,0x10
    34d4:	84200080 	lh	zero,128(at)
    34d8:	ad800013 	sw	zero,19(t4)
    34dc:	f4000003 	sdc1	$f0,3(zero)
    34e0:	21000009 	addi	zero,t0,9
    34e4:	03055601 	0x3055601
    34e8:	80001d7c 	lb	zero,7548(zero)
    34ec:	05540121 	0x5540121
    34f0:	001eb403 	sra	s6,s8,0x10
    34f4:	98200080 	lwr	zero,128(at)
    34f8:	ad800013 	sw	zero,19(t4)
    34fc:	14000003 	bnez	zero,350c <__isr_vec_space+0x34ec>
    3500:	2100000a 	addi	zero,t0,10
    3504:	03055601 	0x3055601
    3508:	80001d7c 	lb	zero,7548(zero)
    350c:	05540121 	0x5540121
    3510:	001ebc03 	sra	s7,s8,0x10
    3514:	ac200080 	sw	zero,128(at)
    3518:	ad800013 	sw	zero,19(t4)
    351c:	34000003 	li	zero,0x3
    3520:	2100000a 	addi	zero,t0,10
    3524:	03055601 	0x3055601
    3528:	80001d7c 	lb	zero,7548(zero)
    352c:	05540121 	0x5540121
    3530:	001ec803 	sra	t9,s8,0x0
    3534:	c0200080 	ll	zero,128(at)
    3538:	d4800013 	ldc1	$f0,19(a0)
    353c:	54000002 	bnezl	zero,3548 <__isr_vec_space+0x3528>
    3540:	2100000a 	addi	zero,t0,10
    3544:	03055601 	0x3055601
    3548:	80001d7c 	lb	zero,7548(zero)
    354c:	05540121 	0x5540121
    3550:	001ed403 	sra	k0,s8,0x10
    3554:	d4200080 	ldc1	$f0,128(at)
    3558:	d4800013 	ldc1	$f0,19(a0)
    355c:	74000002 	jalx	8 <ABIFlags_isa_ext>
    3560:	2100000a 	addi	zero,t0,10
    3564:	03055601 	0x3055601
    3568:	80001d7c 	lb	zero,7548(zero)
    356c:	05540121 	0x5540121
    3570:	001ee003 	sra	gp,s8,0x0
    3574:	e8200080 	swc2	$0,128(at)
    3578:	d4800013 	ldc1	$f0,19(a0)
    357c:	94000002 	lhu	zero,2(zero)
    3580:	2100000a 	addi	zero,t0,10
    3584:	03055601 	0x3055601
    3588:	80001d7c 	lb	zero,7548(zero)
    358c:	05540121 	0x5540121
    3590:	001eec03 	sra	sp,s8,0x10
    3594:	fc200080 	sdc3	$0,128(at)
    3598:	d4800013 	ldc1	$f0,19(a0)
    359c:	b4000002 	0xb4000002
    35a0:	2100000a 	addi	zero,t0,10
    35a4:	03055601 	0x3055601
    35a8:	80001d7c 	lb	zero,7548(zero)
    35ac:	05540121 	0x5540121
    35b0:	001ef803 	sra	ra,s8,0x0
    35b4:	08220080 	j	880200 <__memory_size+0x860a00>
    35b8:	5d800014 	bgtzl	t4,360c <__isr_vec_space+0x35ec>
    35bc:	2100000b 	addi	zero,t0,11
    35c0:	30015501 	andi	at,zero,0x5501
    35c4:	02540121 	0x2540121
    35c8:	00000080 	sll	zero,zero,0x2
    35cc:	01aa0405 	0x1aa0405
    35d0:	8f0b0000 	lw	t3,0(t8)
    35d4:	db000000 	ldc2	$0,0(t8)
    35d8:	2d00000a 	sltiu	zero,t0,10
    35dc:	07f92e00 	0x7f92e00
    35e0:	29010000 	slti	at,t0,0
    35e4:	00000ad0 	0xad0
    35e8:	00098d2e 	0x98d2e
    35ec:	d02a0100 	0xd02a0100
    35f0:	2f00000a 	sltiu	zero,t8,10
    35f4:	00000955 	0x955
    35f8:	00212107 	0x212107
    35fc:	0b060000 	j	c180000 <__memory_size+0xc160800>
    3600:	96300000 	lhu	s0,0(s1)
    3604:	00000000 	nop
    3608:	00043f2f 	0x43f2f
    360c:	33bd0800 	andi	sp,sp,0x800
    3610:	25000000 	addiu	zero,t0,0
    3614:	3000000b 	andi	zero,zero,0xb
    3618:	00000033 	tltu	zero,zero
    361c:	0000a130 	tge	zero,zero,0x284
    3620:	00213000 	0x213000
    3624:	31000000 	andi	zero,t0,0x0
    3628:	000008ee 	0x8ee
    362c:	33019206 	andi	at,t8,0x9206
    3630:	3b000000 	xori	zero,t8,0x0
    3634:	3000000b 	andi	zero,zero,0xb
    3638:	00000aca 	0xaca
    363c:	084b3200 	j	12cc800 <__memory_size+0x12ad000>
    3640:	91060000 	lbu	a2,0(t0)
    3644:	00003301 	0x3301
    3648:	09003100 	j	400c400 <__memory_size+0x3fecc00>
    364c:	87060000 	lh	a2,0(t8)
    3650:	00003301 	0x3301
    3654:	000b5d00 	sll	t3,t3,0x14
    3658:	0aca3000 	j	b28c000 <__memory_size+0xb26c800>
    365c:	33000000 	andi	zero,t8,0x0
    3660:	0000097d 	0x97d
    3664:	c0018a06 	ll	at,-30202(zero)
    3668:	30000000 	andi	zero,zero,0x0
    366c:	00000aca 	0xaca
    3670:	0000c030 	tge	zero,zero,0x300
    3674:	ce000000 	pref	0x0,0(s0)
    3678:	02000000 	0x2000000
    367c:	000d5900 	sll	t3,t5,0x4
    3680:	39010400 	xori	at,t0,0x400
    3684:	2800000f 	slti	zero,zero,15
    3688:	dc800014 	ldc3	$0,20(a0)
    368c:	2f800014 	sltiu	zero,gp,20
    3690:	72657375 	q16slr	xr13,xr12,xr5,xr9,9
    3694:	70696d2f 	0x70696d2f
    3698:	74777373 	jalx	1ddcdcc <__memory_size+0x1dbd5cc>
    369c:	7469672f 	jalx	1a59cbc <__memory_size+0x1a3a4bc>
    36a0:	77656e2f 	jalx	d95b8bc <__memory_size+0xd93c0bc>
    36a4:	2f62696c 	sltiu	v0,k1,26988
    36a8:	6762696c 	0x6762696c
    36ac:	73736f6c 	s16ldi	xr13,k1,438,ptn2
    36b0:	70696d2f 	0x70696d2f
    36b4:	61682f73 	0x61682f73
    36b8:	696c2f6c 	0x696c2f6c
    36bc:	696d2f62 	0x696d2f62
    36c0:	6d2f7370 	0x6d2f7370
    36c4:	5f737069 	0x5f737069
    36c8:	70637865 	s8sdi	xr1,v1,-34,ptn0
    36cc:	65725f74 	0x65725f74
    36d0:	74736967 	jalx	1cda59c <__memory_size+0x1cbad9c>
    36d4:	532e7265 	beql	t9,t6,2006c <__memory_size+0x86c>
    36d8:	73752f00 	0x73752f00
    36dc:	6d2f7265 	0x6d2f7265
    36e0:	73737069 	0x73737069
    36e4:	622f7477 	0x622f7477
    36e8:	646c6975 	0x646c6975
    36ec:	3130322d 	andi	s0,t1,0x322d
    36f0:	36302e35 	ori	s0,s1,0x2e35
    36f4:	2f35302d 	sltiu	s5,t9,12333
    36f8:	2d6a626f 	sltiu	t2,t3,25199
    36fc:	736f7263 	s8std	xr9,k1,-36,ptn3
    3700:	696d2d73 	0x696d2d73
    3704:	6d2d7370 	0x6d2d7370
    3708:	652d6974 	0x652d6974
    370c:	6e2f666c 	0x6e2f666c
    3710:	696c7765 	0x696c7765
    3714:	696d2f62 	0x696d2f62
    3718:	6d2d7370 	0x6d2d7370
    371c:	652d6974 	0x652d6974
    3720:	652f666c 	0x652f666c
    3724:	6f732f6c 	0x6f732f6c
    3728:	696c2f66 	0x696c2f66
    372c:	6f6c6762 	0x6f6c6762
    3730:	6d2f7373 	0x6d2f7373
    3734:	00737069 	0x737069
    3738:	20554e47 	addi	s5,v0,20039
    373c:	32205341 	andi	zero,s1,0x5341
    3740:	2e34322e 	sltiu	s4,s1,12846
    3744:	01003039 	0x1003039
    3748:	0000ca80 	sll	t9,zero,0xa
    374c:	6d000200 	0x6d000200
    3750:	0400000d 	bltz	zero,3788 <__isr_vec_space+0x3768>
    3754:	000fd501 	0xfd501
    3758:	0014dc00 	sll	k1,s4,0x10
    375c:	00175880 	sll	t3,s7,0x2
    3760:	73752f80 	0x73752f80
    3764:	6d2f7265 	0x6d2f7265
    3768:	73737069 	0x73737069
    376c:	672f7477 	0x672f7477
    3770:	6e2f7469 	0x6e2f7469
    3774:	696c7765 	0x696c7765
    3778:	696c2f62 	0x696c2f62
    377c:	6f6c6762 	0x6f6c6762
    3780:	6d2f7373 	0x6d2f7373
    3784:	2f737069 	sltiu	s3,k1,28777
    3788:	2f6c6168 	sltiu	t4,k1,24936
    378c:	2f62696c 	sltiu	v0,k1,26988
    3790:	7370696d 	s16sdi	xr5,k1,52,
    3794:	70696d2f 	0x70696d2f
    3798:	78655f73 	0x78655f73
    379c:	5f747063 	0x5f747063
    37a0:	746f6f62 	jalx	1bdbd88 <__memory_size+0x1bbc588>
    37a4:	2f00532e 	sltiu	zero,t8,21294
    37a8:	72657375 	q16slr	xr13,xr12,xr5,xr9,9
    37ac:	70696d2f 	0x70696d2f
    37b0:	74777373 	jalx	1ddcdcc <__memory_size+0x1dbd5cc>
    37b4:	6975622f 	0x6975622f
    37b8:	322d646c 	andi	t5,s1,0x646c
    37bc:	2e353130 	sltiu	s5,s1,12592
    37c0:	302d3630 	andi	t5,at,0x3630
    37c4:	626f2f35 	0x626f2f35
    37c8:	72632d6a 	s16ldd	xr5,s3,406,ptn0
    37cc:	2d73736f 	sltiu	s3,t3,29551
    37d0:	7370696d 	s16sdi	xr5,k1,52,
    37d4:	69746d2d 	0x69746d2d
    37d8:	666c652d 	0x666c652d
    37dc:	77656e2f 	jalx	d95b8bc <__memory_size+0xd93c0bc>
    37e0:	2f62696c 	sltiu	v0,k1,26988
    37e4:	7370696d 	s16sdi	xr5,k1,52,
    37e8:	69746d2d 	0x69746d2d
    37ec:	666c652d 	0x666c652d
    37f0:	2f6c652f 	sltiu	t4,k1,25903
    37f4:	2f666f73 	sltiu	a2,k1,28531
    37f8:	6762696c 	0x6762696c
    37fc:	73736f6c 	s16ldi	xr13,k1,438,ptn2
    3800:	70696d2f 	0x70696d2f
    3804:	4e470073 	c3	0x470073
    3808:	53412055 	beql	k0,at,b960 <__isr_vec_space+0xb940>
    380c:	322e3220 	andi	t6,s1,0x3220
    3810:	30392e34 	andi	t9,at,0x2e34
    3814:	c9800100 	lwc2	$0,256(t4)
    3818:	02000000 	0x2000000
    381c:	000d8100 	sll	s0,t5,0x4
    3820:	e2010400 	sc	at,1024(s0)
    3824:	00000010 	mfhi	zero
    3828:	18800002 	blez	a0,3834 <__isr_vec_space+0x3814>
    382c:	2f800003 	sltiu	zero,gp,3
    3830:	72657375 	q16slr	xr13,xr12,xr5,xr9,9
    3834:	70696d2f 	0x70696d2f
    3838:	74777373 	jalx	1ddcdcc <__memory_size+0x1dbd5cc>
    383c:	7469672f 	jalx	1a59cbc <__memory_size+0x1a3a4bc>
    3840:	77656e2f 	jalx	d95b8bc <__memory_size+0xd93c0bc>
    3844:	2f62696c 	sltiu	v0,k1,26988
    3848:	6762696c 	0x6762696c
    384c:	73736f6c 	s16ldi	xr13,k1,438,ptn2
    3850:	70696d2f 	0x70696d2f
    3854:	61682f73 	0x61682f73
    3858:	696c2f6c 	0x696c2f6c
    385c:	696d2f62 	0x696d2f62
    3860:	6d2f7370 	0x6d2f7370
    3864:	5f737069 	0x5f737069
    3868:	70637865 	s8sdi	xr1,v1,-34,ptn0
    386c:	73695f74 	q16sll	xr13,xr7,xr5,xr10,13
    3870:	00532e72 	tlt	v0,s3,0xb9
    3874:	6573752f 	0x6573752f
    3878:	696d2f72 	0x696d2f72
    387c:	77737370 	jalx	dcdcdc0 <__memory_size+0xdcbd5c0>
    3880:	75622f74 	jalx	588bdd0 <__memory_size+0x586c5d0>
    3884:	2d646c69 	sltiu	a0,t3,27753
    3888:	35313032 	ori	s1,t1,0x3032
    388c:	2d36302e 	sltiu	s6,t1,12334
    3890:	6f2f3530 	0x6f2f3530
    3894:	632d6a62 	0x632d6a62
    3898:	73736f72 	0x73736f72
    389c:	70696d2d 	s16sdi	xr4,v1,182,ptn1
    38a0:	746d2d73 	jalx	1b4b5cc <__memory_size+0x1b2bdcc>
    38a4:	6c652d69 	0x6c652d69
    38a8:	656e2f66 	0x656e2f66
    38ac:	62696c77 	0x62696c77
    38b0:	70696d2f 	0x70696d2f
    38b4:	746d2d73 	jalx	1b4b5cc <__memory_size+0x1b2bdcc>
    38b8:	6c652d69 	0x6c652d69
    38bc:	6c652f66 	0x6c652f66
    38c0:	666f732f 	0x666f732f
    38c4:	62696c2f 	0x62696c2f
    38c8:	736f6c67 	0x736f6c67
    38cc:	696d2f73 	0x696d2f73
    38d0:	47007370 	bz.b	$w0,20694 <__memory_size+0xe94>
    38d4:	4120554e 	0x4120554e
    38d8:	2e322053 	sltiu	s2,s1,8275
    38dc:	392e3432 	xori	t6,t1,0x3432
    38e0:	80010030 	lb	at,48(zero)
    38e4:	0000006a 	0x6a
    38e8:	0d950004 	jal	6540010 <__memory_size+0x6520810>
    38ec:	01040000 	0x1040000
    38f0:	0000018c 	syscall	0x6
    38f4:	000a0f01 	0xa0f01
    38f8:	00117000 	sll	t6,s1,0x0
    38fc:	05040200 	0x5040200
    3900:	00000005 	lsa	zero,zero,zero,0x1
    3904:	6d070402 	0x6d070402
    3908:	03000000 	0x3000000
    390c:	6e690504 	0x6e690504
    3910:	01020074 	teq	t0,v0,0x1
    3914:	00008a06 	0x8a06
    3918:	08010200 	j	40800 <__memory_size+0x21000>
    391c:	00000088 	0x88
    3920:	2b050202 	slti	a1,t8,514
    3924:	02000001 	movf	zero,s0,$fcc0
    3928:	00fa0702 	0xfa0702
    392c:	08020000 	j	80000 <__memory_size+0x60800>
    3930:	00000005 	lsa	zero,zero,zero,0x1
    3934:	07080200 	tgei	t8,512
    3938:	00000068 	0x68
    393c:	72070402 	0x72070402
    3940:	02000000 	0x2000000
    3944:	013f0704 	0x13f0704
    3948:	01020000 	0x1020000
    394c:	00009108 	0x9108
    3950:	017a0000 	0x17a0000
    3954:	00040000 	sll	zero,a0,0x0
    3958:	00000db9 	0xdb9
    395c:	07240104 	0x7240104
    3960:	59010000 	0x59010000
    3964:	7400000a 	jalx	28 <__isr_vec_space+0x8>
    3968:	50800017 	beqzl	a0,39c8 <__isr_vec_space+0x39a8>
    396c:	8d000000 	lw	zero,0(t0)
    3970:	02000011 	mthi	s0
    3974:	008a0601 	0x8a0601
    3978:	01020000 	0x1020000
    397c:	00008808 	0x8808
    3980:	05020200 	bltzl	t0,4184 <__isr_vec_space+0x4164>
    3984:	0000012b 	0x12b
    3988:	fa070202 	sdc2	$7,514(s0)
    398c:	03000000 	0x3000000
    3990:	0000080a 	movz	at,zero,zero
    3994:	00483702 	0x483702
    3998:	04020000 	bltzl	zero,399c <__isr_vec_space+0x397c>
    399c:	00000505 	0x505
    39a0:	09450300 	j	5140c00 <__memory_size+0x5121400>
    39a4:	38020000 	xori	v0,zero,0x0
    39a8:	0000005a 	0x5a
    39ac:	6d070402 	0x6d070402
    39b0:	02000000 	0x2000000
    39b4:	00000508 	0x508
    39b8:	08020000 	j	80000 <__memory_size+0x60800>
    39bc:	00006807 	srav	t5,zero,zero
    39c0:	080c0300 	j	300c00 <__memory_size+0x2e1400>
    39c4:	41030000 	mftc0	zero,c0_entrylo1
    39c8:	0000003d 	0x3d
    39cc:	00094703 	sra	t0,t1,0x1c
    39d0:	4f420300 	lwxc1	$f12,v0(k0)
    39d4:	04000000 	bltz	zero,39d8 <__isr_vec_space+0x39b8>
    39d8:	6e690504 	0x6e690504
    39dc:	04020074 	bltzl	zero,3bb0 <__isr_vec_space+0x3b90>
    39e0:	00007207 	0x7207
    39e4:	06890300 	tgeiu	s4,768
    39e8:	d4040000 	ldc1	$f4,0(zero)
    39ec:	0000005a 	0x5a
    39f0:	3f070402 	0x3f070402
    39f4:	02000001 	movf	zero,s0,$fcc0
    39f8:	00910801 	movt	at,a0,$fcc4
    39fc:	3f050000 	0x3f050000
    3a00:	01000004 	sllv	zero,zero,t0
    3a04:	00008534 	teq	zero,zero,0x214
    3a08:	00177400 	sll	t6,s7,0x10
    3a0c:	00005080 	sll	t2,zero,0x2
    3a10:	609c0100 	0x609c0100
    3a14:	06000001 	bltz	s0,3a1c <__isr_vec_space+0x39fc>
    3a18:	01006466 	0x1006466
    3a1c:	00008534 	teq	zero,zero,0x214
    3a20:	0009f700 	sll	s8,t1,0x1c
    3a24:	75620600 	jalx	5881800 <__memory_size+0x5862000>
    3a28:	34010066 	li	at,0x66
    3a2c:	00000160 	0x160
    3a30:	00000a18 	0xa18
    3a34:	00052f07 	0x52f07
    3a38:	93340100 	lbu	s4,256(t9)
    3a3c:	39000000 	xori	zero,t0,0x0
    3a40:	0800000a 	j	28 <__isr_vec_space+0x8>
    3a44:	00000814 	0x814
    3a48:	006f3601 	0x6f3601
    3a4c:	54010000 	bnel	zero,at,3a50 <__isr_vec_space+0x3a30>
    3a50:	000a5408 	0xa5408
    3a54:	60370100 	0x60370100
    3a58:	01000001 	movf	zero,t0,$fcc0
    3a5c:	0a8c0855 	j	a302154 <__memory_size+0xa2e2954>
    3a60:	38010000 	xori	at,zero,0x0
    3a64:	0000006f 	0x6f
    3a68:	6f095601 	0x6f095601
    3a6c:	39010070 	xori	at,t0,0x70
    3a70:	0000006f 	0x6f
    3a74:	72096901 	0x72096901
    3a78:	01007465 	0x1007465
    3a7c:	00006f3a 	0x6f3a
    3a80:	08520100 	j	1480400 <__memory_size+0x1460c00>
    3a84:	00000a4a 	0xa4a
    3a88:	006f3b01 	0x6f3b01
    3a8c:	53010000 	beql	t8,at,3a90 <__isr_vec_space+0x3a70>
    3a90:	00179c0a 	0x179c0a
    3a94:	00001480 	sll	v0,zero,0x12
    3a98:	0a990800 	j	a642000 <__memory_size+0xa622800>
    3a9c:	47010000 	bz.b	$w1,3aa0 <__isr_vec_space+0x3a80>
    3aa0:	00000167 	0x167
    3aa4:	0b709102 	j	dc24408 <__memory_size+0xdc04c08>
    3aa8:	800017a8 	lb	zero,6056(zero)
    3aac:	0000016c 	0x16c
    3ab0:	040c0000 	teqi	zero,0
    3ab4:	00000166 	0x166
    3ab8:	007a0e0d 	break	0x7a,0x38
    3abc:	910f0000 	lbu	t7,0(t0)
    3ac0:	0500000a 	bltz	t0,3aec <__isr_vec_space+0x3acc>
    3ac4:	0001770f 	0x1770f
    3ac8:	85040c00 	lh	a0,3072(t0)
    3acc:	00000000 	nop
    3ad0:	000002ac 	0x2ac
    3ad4:	0e820004 	jal	a080010 <__memory_size+0xa060810>
    3ad8:	01040000 	0x1040000
    3adc:	00000724 	0x724
    3ae0:	000aa301 	0xaa301
    3ae4:	0017c400 	sll	t8,s7,0x10
    3ae8:	00001480 	sll	v0,zero,0x12
    3aec:	00131900 	sll	v1,s3,0x4
    3af0:	06010200 	bgez	s0,42f4 <__isr_vec_space+0x42d4>
    3af4:	0000008a 	0x8a
    3af8:	88080102 	lwl	t0,258(zero)
    3afc:	02000000 	0x2000000
    3b00:	012b0502 	0x12b0502
    3b04:	02020000 	0x2020000
    3b08:	0000fa07 	0xfa07
    3b0c:	080a0300 	j	280c00 <__memory_size+0x261400>
    3b10:	37020000 	ori	v0,t8,0x0
    3b14:	00000048 	0x48
    3b18:	05050402 	0x5050402
    3b1c:	03000000 	0x3000000
    3b20:	00000945 	0x945
    3b24:	005a3802 	0x5a3802
    3b28:	04020000 	bltzl	zero,3b2c <__isr_vec_space+0x3b0c>
    3b2c:	00006d07 	0x6d07
    3b30:	05080200 	tgei	t0,512
    3b34:	00000000 	nop
    3b38:	68070802 	0x68070802
    3b3c:	03000000 	0x3000000
    3b40:	0000080c 	syscall	0x20
    3b44:	003d4103 	0x3d4103
    3b48:	47030000 	bz.b	$w3,3b4c <__isr_vec_space+0x3b2c>
    3b4c:	03000009 	jalr	zero,t8
    3b50:	00004f42 	srl	t1,zero,0x1d
    3b54:	05040400 	0x5040400
    3b58:	00746e69 	0x746e69
    3b5c:	72070402 	0x72070402
    3b60:	05000000 	bltz	t0,3b64 <__isr_vec_space+0x3b44>
    3b64:	00000977 	0x977
    3b68:	8c038104 	lw	v1,-32508(zero)
    3b6c:	06000000 	bltz	s0,3b70 <__isr_vec_space+0x3b50>
    3b70:	1cec057c 	0x1cec057c
    3b74:	07000001 	bltz	t8,3b7c <__isr_vec_space+0x3b5c>
    3b78:	05007461 	bltz	t0,20d00 <__memory_size+0x1500>
    3b7c:	000093ee 	0x93ee
    3b80:	76070000 	jalx	81c0000 <__memory_size+0x81a0800>
    3b84:	1cef0500 	0x1cef0500
    3b88:	04000001 	bltz	zero,3b90 <__isr_vec_space+0x3b70>
    3b8c:	05006107 	bltz	t0,1bfac <__isr_vec_space+0x1bf8c>
    3b90:	000133f4 	teq	zero,at,0xcf
    3b94:	74070c00 	jalx	1c3000 <__memory_size+0x1a3800>
    3b98:	43f50500 	c0	0x1f50500
    3b9c:	1c000001 	bgtz	zero,3ba4 <__isr_vec_space+0x3b84>
    3ba0:	05007307 	bltz	t0,207c0 <__memory_size+0xfc0>
    3ba4:	000143f7 	0x143f7
    3ba8:	74073c00 	jalx	1cf000 <__memory_size+0x1af800>
    3bac:	f8050032 	sdc2	$5,50(zero)
    3bb0:	0000011c 	0x11c
    3bb4:	006b075c 	0x6b075c
    3bb8:	011cf905 	0x11cf905
    3bbc:	07640000 	0x7640000
    3bc0:	05007067 	bltz	t0,1fd60 <__memory_size+0x560>
    3bc4:	000093fa 	0x93fa
    3bc8:	73076c00 	0x73076c00
    3bcc:	fb050070 	sdc2	$5,112(t8)
    3bd0:	00000093 	0x93
    3bd4:	70660770 	d32sll	xr13,xr1,xr8,xr9,1
    3bd8:	93fc0500 	lbu	gp,1280(ra)
    3bdc:	74000000 	jalx	0 <hardware_exit_hook>
    3be0:	00617207 	0x617207
    3be4:	0093fd05 	0x93fd05
    3be8:	00780000 	0x780000
    3bec:	00009308 	0x9308
    3bf0:	00012c00 	sll	a1,at,0x10
    3bf4:	012c0900 	0x12c0900
    3bf8:	00010000 	sll	zero,at,0x0
    3bfc:	3f070402 	0x3f070402
    3c00:	08000001 	j	4 <ABIFlags_gpr_size>
    3c04:	00000093 	0x93
    3c08:	00000143 	sra	zero,zero,0x5
    3c0c:	00012c09 	0x12c09
    3c10:	08000300 	j	c00 <__isr_vec_space+0xbe0>
    3c14:	00000093 	0x93
    3c18:	00000153 	0x153
    3c1c:	00012c09 	0x12c09
    3c20:	0a000700 	j	8001c00 <__memory_size+0x7fe2400>
    3c24:	6aea057c 	0x6aea057c
    3c28:	0b000001 	j	c000004 <__memory_size+0xbfe0804>
    3c2c:	0000009f 	0x9f
    3c30:	0500720c 	bltz	t0,20464 <__memory_size+0xc64>
    3c34:	00016aff 	0x16aff
    3c38:	93080000 	lbu	t0,0(t8)
    3c3c:	7a000000 	nori.b	$w0,$w0,0x0
    3c40:	09000001 	j	4000004 <__memory_size+0x3fe0804>
    3c44:	0000012c 	0x12c
    3c48:	610d001e 	0x610d001e
    3c4c:	a0000009 	sb	zero,9(zero)
    3c50:	0200e805 	lsa	sp,s0,zero,0x1
    3c54:	530e0000 	beql	t8,t6,3c58 <__isr_vec_space+0x3c38>
    3c58:	00000001 	movf	zero,zero,$fcc0
    3c5c:	6370650f 	0x6370650f
    3c60:	01020500 	0x1020500
    3c64:	00000093 	0x93
    3c68:	0967107c 	j	59c41f0 <__memory_size+0x59a49f0>
    3c6c:	03050000 	0x3050000
    3c70:	00009301 	0x9301
    3c74:	680f8000 	0x680f8000
    3c78:	04050069 	0x4050069
    3c7c:	00009301 	0x9301
    3c80:	6c0f8400 	0x6c0f8400
    3c84:	0505006f 	0x505006f
    3c88:	00009301 	0x9301
    3c8c:	50108800 	beql	zero,s0,fffe5c90 <__entry+0x403e5c90>
    3c90:	05000009 	bltz	t0,3cb8 <__isr_vec_space+0x3c98>
    3c94:	02270107 	0x2270107
    3c98:	108c0000 	beq	a0,t4,3c9c <__isr_vec_space+0x3c7c>
    3c9c:	000009ac 	0x9ac
    3ca0:	7a010a05 	0x7a010a05
    3ca4:	90000000 	lbu	zero,0(zero)
    3ca8:	00090f10 	0x90f10
    3cac:	010c0500 	0x10c0500
    3cb0:	0000007a 	0x7a
    3cb4:	09bd1094 	j	6f44250 <__memory_size+0x6f24a50>
    3cb8:	0d050000 	jal	4140000 <__memory_size+0x4120800>
    3cbc:	00007a01 	0x7a01
    3cc0:	b3109800 	0xb3109800
    3cc4:	05000009 	bltz	t0,3cec <__isr_vec_space+0x3ccc>
    3cc8:	007a010e 	0x7a010e
    3ccc:	009c0000 	0x9c0000
    3cd0:	00093d11 	0x93d11
    3cd4:	11050800 	beq	t0,a1,5cd8 <__isr_vec_space+0x5cb8>
    3cd8:	00022701 	0x22701
    3cdc:	64690f00 	0x64690f00
    3ce0:	01130500 	0x1130500
    3ce4:	00000093 	0x93
    3ce8:	04e21000 	bltzl	a3,7cec <__isr_vec_space+0x7ccc>
    3cec:	14050000 	bne	zero,a1,3cf0 <__isr_vec_space+0x3cd0>
    3cf0:	00022701 	0x22701
    3cf4:	12000400 	beqz	s0,4cf8 <__isr_vec_space+0x4cd8>
    3cf8:	00020004 	sllv	zero,v0,zero
    3cfc:	08010200 	j	40800 <__memory_size+0x21000>
    3d00:	00000091 	0x91
    3d04:	30040802 	andi	a0,zero,0x802
    3d08:	02000009 	jalr	zero,s0
    3d0c:	09700404 	j	5c01010 <__memory_size+0x5be1810>
    3d10:	7d130000 	ext	s3,t0,0x0,0x1
    3d14:	01000009 	jalr	zero,t0
    3d18:	00006f34 	teq	zero,zero,0x1bc
    3d1c:	0017c400 	sll	t8,s7,0x10
    3d20:	00001480 	sll	v0,zero,0x12
    3d24:	a99c0100 	swl	gp,256(t4)
    3d28:	14000002 	bnez	zero,3d34 <__isr_vec_space+0x3d14>
    3d2c:	00787463 	0x787463
    3d30:	02a93401 	0x2a93401
    3d34:	54010000 	bnel	zero,at,3d38 <__isr_vec_space+0x3d18>
    3d38:	69626114 	0x69626114
    3d3c:	6f340100 	0x6f340100
    3d40:	01000000 	0x1000000
    3d44:	08141555 	j	505554 <__memory_size+0x4e5d54>
    3d48:	36010000 	ori	at,s0,0x0
    3d4c:	000002a9 	0x2a9
    3d50:	54155401 	bnel	zero,s5,18d58 <__isr_vec_space+0x18d38>
    3d54:	0100000a 	movz	zero,t0,zero
    3d58:	00006f37 	0x6f37
    3d5c:	16550100 	bne	s2,s5,4160 <__isr_vec_space+0x4140>
    3d60:	0100706f 	0x100706f
    3d64:	00006f38 	0x6f38
    3d68:	16690100 	bne	s3,t1,416c <__isr_vec_space+0x414c>
    3d6c:	00746572 	tlt	v1,s4,0x195
    3d70:	006f3901 	0x6f3901
    3d74:	52010000 	beql	s0,at,3d78 <__isr_vec_space+0x3d58>
    3d78:	7a041200 	nori.b	$w8,$w2,0x4
    3d7c:	00000001 	movf	zero,zero,$fcc0
    3d80:	000002b2 	tlt	zero,zero,0xa
    3d84:	0faa0004 	jal	ea80010 <__memory_size+0xea60810>
    3d88:	01040000 	0x1040000
    3d8c:	00000724 	0x724
    3d90:	000ae901 	0xae901
    3d94:	0017d800 	sll	k1,s7,0x0
    3d98:	00004480 	sll	t0,zero,0x12
    3d9c:	00145100 	sll	t2,s4,0x4
    3da0:	07040200 	0x7040200
    3da4:	0000006d 	0x6d
    3da8:	72070402 	0x72070402
    3dac:	02000000 	0x2000000
    3db0:	00680708 	0x680708
    3db4:	77030000 	jalx	c0c0000 <__memory_size+0xc0a0800>
    3db8:	02000009 	jalr	zero,s0
    3dbc:	00280381 	0x280381
    3dc0:	04040000 	0x4040000
    3dc4:	746e6905 	jalx	1b9a414 <__memory_size+0x1b7ac14>
    3dc8:	06010200 	bgez	s0,45cc <__isr_vec_space+0x45ac>
    3dcc:	0000008a 	0x8a
    3dd0:	88080102 	lwl	t0,258(zero)
    3dd4:	02000000 	0x2000000
    3dd8:	012b0502 	0x12b0502
    3ddc:	02020000 	0x2020000
    3de0:	0000fa07 	0xfa07
    3de4:	05040200 	0x5040200
    3de8:	00000005 	lsa	zero,zero,zero,0x1
    3dec:	00094505 	0x94505
    3df0:	21380300 	addi	t8,t1,768
    3df4:	02000000 	0x2000000
    3df8:	00000508 	0x508
    3dfc:	47050000 	bz.b	$w5,3e00 <__isr_vec_space+0x3de0>
    3e00:	04000009 	bltz	zero,3e28 <__isr_vec_space+0x3e08>
    3e04:	00006c42 	srl	t5,zero,0x11
    3e08:	057c0600 	0x57c0600
    3e0c:	000106ec 	0x106ec
    3e10:	74610700 	jalx	1841c00 <__memory_size+0x1822400>
    3e14:	36ee0500 	ori	t6,s7,0x500
    3e18:	00000000 	nop
    3e1c:	05007607 	bltz	t0,2163c <__memory_size+0x1e3c>
    3e20:	000106ef 	0x106ef
    3e24:	61070400 	0x61070400
    3e28:	1df40500 	0x1df40500
    3e2c:	0c000001 	jal	4 <ABIFlags_gpr_size>
    3e30:	05007407 	bltz	t0,20e50 <__memory_size+0x1650>
    3e34:	00012df5 	0x12df5
    3e38:	73071c00 	0x73071c00
    3e3c:	2df70500 	sltiu	s7,t7,1280
    3e40:	3c000001 	lui	zero,0x1
    3e44:	00327407 	0x327407
    3e48:	0106f805 	lsa	ra,t0,a2,0x1
    3e4c:	075c0000 	0x75c0000
    3e50:	f905006b 	sdc2	$5,107(t0)
    3e54:	00000106 	0x106
    3e58:	70670764 	s8ldi	xr13,v1,-63,ptn1
    3e5c:	36fa0500 	ori	k0,s7,0x500
    3e60:	6c000000 	0x6c000000
    3e64:	00707307 	0x707307
    3e68:	0036fb05 	0x36fb05
    3e6c:	07700000 	bltzal	k1,3e70 <__isr_vec_space+0x3e50>
    3e70:	05007066 	bltz	t0,2000c <__memory_size+0x80c>
    3e74:	000036fc 	0x36fc
    3e78:	72077400 	0x72077400
    3e7c:	fd050061 	sdc3	$5,97(t0)
    3e80:	00000036 	tne	zero,zero
    3e84:	36080078 	ori	t0,s0,0x78
    3e88:	16000000 	bnez	s0,3e8c <__isr_vec_space+0x3e6c>
    3e8c:	09000001 	j	4000004 <__memory_size+0x3fe0804>
    3e90:	00000116 	0x116
    3e94:	04020001 	bltzl	zero,3e9c <__isr_vec_space+0x3e7c>
    3e98:	00013f07 	0x13f07
    3e9c:	00360800 	0x360800
    3ea0:	012d0000 	0x12d0000
    3ea4:	16090000 	bne	s0,t1,3ea8 <__isr_vec_space+0x3e88>
    3ea8:	03000001 	movf	zero,t8,$fcc0
    3eac:	00360800 	0x360800
    3eb0:	013d0000 	0x13d0000
    3eb4:	16090000 	bne	s0,t1,3eb8 <__isr_vec_space+0x3e98>
    3eb8:	07000001 	bltz	t8,3ec0 <__isr_vec_space+0x3ea0>
    3ebc:	057c0a00 	0x57c0a00
    3ec0:	000154ea 	0x154ea
    3ec4:	00890b00 	0x890b00
    3ec8:	720c0000 	madd	s0,t4
    3ecc:	54ff0500 	bnel	a3,ra,52d0 <__isr_vec_space+0x52b0>
    3ed0:	00000001 	movf	zero,zero,$fcc0
    3ed4:	00003608 	0x3608
    3ed8:	00016400 	sll	t4,at,0x10
    3edc:	01160900 	0x1160900
    3ee0:	001e0000 	sll	zero,s8,0x0
    3ee4:	0009610d 	break	0x9,0x184
    3ee8:	e805a000 	swc2	$5,-24576(zero)
    3eec:	000001ea 	0x1ea
    3ef0:	00013d0e 	0x13d0e
    3ef4:	650f0000 	0x650f0000
    3ef8:	05006370 	bltz	t0,1ccbc <__isr_vec_space+0x1cc9c>
    3efc:	00360102 	ror	zero,s6,0x4
    3f00:	107c0000 	beq	v1,gp,3f04 <__isr_vec_space+0x3ee4>
    3f04:	00000967 	0x967
    3f08:	36010305 	ori	at,s0,0x305
    3f0c:	80000000 	lb	zero,0(zero)
    3f10:	0069680f 	0x69680f
    3f14:	36010405 	ori	at,s0,0x405
    3f18:	84000000 	lh	zero,0(zero)
    3f1c:	006f6c0f 	0x6f6c0f
    3f20:	36010505 	ori	at,s0,0x505
    3f24:	88000000 	lwl	zero,0(zero)
    3f28:	00095010 	0x95010
    3f2c:	01070500 	0x1070500
    3f30:	00000211 	0x211
    3f34:	09ac108c 	j	6b04230 <__memory_size+0x6ae4a30>
    3f38:	0a050000 	j	8140000 <__memory_size+0x8120800>
    3f3c:	00007e01 	0x7e01
    3f40:	0f109000 	jal	c424000 <__memory_size+0xc404800>
    3f44:	05000009 	bltz	t0,3f6c <__isr_vec_space+0x3f4c>
    3f48:	007e010c 	syscall	0x1f804
    3f4c:	10940000 	beq	a0,s4,3f50 <__isr_vec_space+0x3f30>
    3f50:	000009bd 	0x9bd
    3f54:	7e010d05 	0x7e010d05
    3f58:	98000000 	lwr	zero,0(zero)
    3f5c:	0009b310 	0x9b310
    3f60:	010e0500 	0x10e0500
    3f64:	0000007e 	0x7e
    3f68:	3d11009c 	0x3d11009c
    3f6c:	08000009 	j	24 <__isr_vec_space+0x4>
    3f70:	11011105 	beq	t0,at,8388 <__isr_vec_space+0x8368>
    3f74:	0f000002 	jal	c000008 <__memory_size+0xbfe0808>
    3f78:	05006469 	bltz	t0,1d120 <__isr_vec_space+0x1d100>
    3f7c:	00360113 	0x360113
    3f80:	10000000 	b	3f84 <__isr_vec_space+0x3f64>
    3f84:	000004e2 	0x4e2
    3f88:	11011405 	beq	t0,at,8fa0 <__isr_vec_space+0x8f80>
    3f8c:	04000002 	bltz	zero,3f98 <__isr_vec_space+0x3f78>
    3f90:	ea041200 	swc2	$4,4608(s0)
    3f94:	02000001 	movf	zero,s0,$fcc0
    3f98:	00910801 	movt	at,a0,$fcc4
    3f9c:	08020000 	j	80000 <__memory_size+0x60800>
    3fa0:	00093004 	sllv	a2,t1,zero
    3fa4:	04040200 	0x4040200
    3fa8:	00000970 	tge	zero,zero,0x25
    3fac:	00090013 	0x90013
    3fb0:	42230100 	c0	0x230100
    3fb4:	d8000000 	ldc2	$0,0(zero)
    3fb8:	44800017 	0x44800017
    3fbc:	01000000 	0x1000000
    3fc0:	0002af9c 	0x2af9c
    3fc4:	74631400 	jalx	18c5000 <__memory_size+0x18a5800>
    3fc8:	23010078 	addi	at,t8,120
    3fcc:	000002af 	0x2af
    3fd0:	00000a5a 	0xa5a
    3fd4:	00081415 	0x81415
    3fd8:	36250100 	ori	a1,s1,0x100
    3fdc:	01000000 	0x1000000
    3fe0:	0a541554 	j	9505550 <__memory_size+0x94e5d50>
    3fe4:	26010000 	addiu	at,s0,0
    3fe8:	00000036 	tne	zero,zero
    3fec:	8c155501 	lw	s5,21761(zero)
    3ff0:	0100000a 	movz	zero,t0,zero
    3ff4:	00003627 	0x3627
    3ff8:	15560100 	bne	t2,s6,43fc <__isr_vec_space+0x43dc>
    3ffc:	00000ae4 	0xae4
    4000:	00362801 	0x362801
    4004:	57010000 	bnel	t8,at,4008 <__isr_vec_space+0x3fe8>
    4008:	00706f16 	0x706f16
    400c:	00362901 	0x362901
    4010:	69010000 	0x69010000
    4014:	000ada15 	0xada15
    4018:	362a0100 	ori	t2,s1,0x100
    401c:	01000000 	0x1000000
    4020:	0adf1552 	j	b7c5548 <__memory_size+0xb7a5d48>
    4024:	2b010000 	slti	at,t8,0
    4028:	00000036 	tne	zero,zero
    402c:	12005301 	beqz	s0,18c34 <__isr_vec_space+0x18c14>
    4030:	00016404 	0x16404
    4034:	08810000 	j	2040000 <__memory_size+0x2020800>
    4038:	00040000 	sll	zero,a0,0x0
    403c:	000010d2 	0x10d2
    4040:	018c0104 	0x18c0104
    4044:	1f010000 	0x1f010000
    4048:	1c00000b 	bgtz	zero,4078 <__isr_vec_space+0x4058>
    404c:	0c800018 	jal	2000060 <__memory_size+0x1fe0860>
    4050:	94000000 	lhu	zero,0(zero)
    4054:	02000015 	0x2000015
    4058:	6e690504 	0x6e690504
    405c:	04030074 	bgezl	zero,4230 <__isr_vec_space+0x4210>
    4060:	00000505 	0x505
    4064:	07040300 	0x7040300
    4068:	0000006d 	0x6d
    406c:	8a060103 	lwl	a2,259(s0)
    4070:	03000000 	0x3000000
    4074:	00880801 	movf	at,a0,$fcc2
    4078:	02030000 	0x2030000
    407c:	00012b05 	0x12b05
    4080:	07020300 	bltzl	t8,4c84 <__isr_vec_space+0x4c64>
    4084:	000000fa 	0xfa
    4088:	00050803 	sra	at,a1,0x0
    408c:	03000000 	0x3000000
    4090:	00680708 	0x680708
    4094:	82040000 	lb	a0,0(s0)
    4098:	02000004 	sllv	zero,zero,s0
    409c:	00002107 	0x2107
    40a0:	04600400 	bltz	v1,50a4 <__isr_vec_space+0x5084>
    40a4:	10030000 	beq	zero,v1,40a8 <__isr_vec_space+0x4088>
    40a8:	00000028 	0x28
    40ac:	00054304 	0x54304
    40b0:	28270300 	slti	a3,at,768
    40b4:	05000000 	bltz	t0,40b8 <__isr_vec_space+0x4098>
    40b8:	0000042f 	0x42f
    40bc:	8d016104 	lw	at,24836(t0)
    40c0:	03000000 	0x3000000
    40c4:	00720704 	0x720704
    40c8:	04060000 	0x4060000
    40cc:	00b34a03 	0xb34a03
    40d0:	29070000 	slti	a3,t0,0
    40d4:	03000004 	sllv	zero,zero,t8
    40d8:	0000814c 	syscall	0x205
    40dc:	03db0700 	0x3db0700
    40e0:	4d030000 	lwxc1	$f0,v1(t0)
    40e4:	000000b3 	tltu	zero,zero,0x2
    40e8:	003d0800 	0x3d0800
    40ec:	00c30000 	0xc30000
    40f0:	c3090000 	ll	t1,0(t8)
    40f4:	03000000 	0x3000000
    40f8:	07040300 	0x7040300
    40fc:	0000013f 	0x13f
    4100:	4703080a 	bz.b	$w3,612c <__isr_vec_space+0x610c>
    4104:	000000eb 	0xeb
    4108:	00052d0b 	0x52d0b
    410c:	21490300 	addi	t1,t2,768
    4110:	00000000 	nop
    4114:	0005350b 	0x5350b
    4118:	944e0300 	lhu	t6,768(v0)
    411c:	04000000 	bltz	zero,4120 <__isr_vec_space+0x4100>
    4120:	04c00400 	bltz	a2,5124 <__isr_vec_space+0x5104>
    4124:	4f030000 	lwxc1	$f0,v1(t8)
    4128:	000000ca 	0xca
    412c:	00039e04 	0x39e04
    4130:	60530300 	0x60530300
    4134:	0c000000 	jal	0 <hardware_exit_hook>
    4138:	057f0404 	synci	1028(t3)
    413c:	16050000 	bne	s0,a1,4140 <__isr_vec_space+0x4120>
    4140:	0000002f 	0x2f
    4144:	0003af0d 	break	0x3,0x2bc
    4148:	2d051800 	sltiu	a1,t0,6144
    414c:	00000161 	0x161
    4150:	0004e10b 	0x4e10b
    4154:	612f0500 	0x612f0500
    4158:	00000001 	movf	zero,zero,$fcc0
    415c:	006b5f0e 	0x6b5f0e
    4160:	00213005 	lsa	a2,at,at,0x1
    4164:	0b040000 	j	c100000 <__memory_size+0xc0e0800>
    4168:	00000518 	0x518
    416c:	00213005 	lsa	a2,at,at,0x1
    4170:	0b080000 	j	c200000 <__memory_size+0xc1e0800>
    4174:	00000398 	0x398
    4178:	00213005 	lsa	a2,at,at,0x1
    417c:	0b0c0000 	j	c300000 <__memory_size+0xc2e0800>
    4180:	000005c6 	0x5c6
    4184:	00213005 	lsa	a2,at,at,0x1
    4188:	0e100000 	jal	8400000 <__memory_size+0x83e0800>
    418c:	0500785f 	bltz	t0,2230c <__memory_size+0x2b0c>
    4190:	00016731 	tgeu	zero,at,0x19c
    4194:	0f001400 	jal	c005000 <__memory_size+0xbfe5800>
    4198:	00010e04 	0x10e04
    419c:	01030800 	0x1030800
    41a0:	01770000 	0x1770000
    41a4:	c3090000 	ll	t1,0(t8)
    41a8:	00000000 	nop
    41ac:	03d60d00 	0x3d60d00
    41b0:	05240000 	0x5240000
    41b4:	0001f035 	0x1f035
    41b8:	02d60b00 	0x2d60b00
    41bc:	37050000 	ori	a1,t8,0x0
    41c0:	00000021 	move	zero,zero
    41c4:	05550b00 	0x5550b00
    41c8:	38050000 	xori	a1,zero,0x0
    41cc:	00000021 	move	zero,zero
    41d0:	02e50b04 	0x2e50b04
    41d4:	39050000 	xori	a1,t0,0x0
    41d8:	00000021 	move	zero,zero
    41dc:	063f0b08 	synci	2824(s1)
    41e0:	3a050000 	xori	a1,s0,0x0
    41e4:	00000021 	move	zero,zero
    41e8:	044c0b0c 	teqi	v0,2828
    41ec:	3b050000 	xori	a1,t8,0x0
    41f0:	00000021 	move	zero,zero
    41f4:	054b0b10 	tltiu	t2,2832
    41f8:	3c050000 	lui	a1,0x0
    41fc:	00000021 	move	zero,zero
    4200:	05cb0b14 	tltiu	t6,2836
    4204:	3d050000 	0x3d050000
    4208:	00000021 	move	zero,zero
    420c:	04a20b18 	bltzl	a1,6e70 <__isr_vec_space+0x6e50>
    4210:	3e050000 	0x3e050000
    4214:	00000021 	move	zero,zero
    4218:	06060b1c 	0x6060b1c
    421c:	3f050000 	0x3f050000
    4220:	00000021 	move	zero,zero
    4224:	f4100020 	sdc1	$f16,32(zero)
    4228:	08000002 	j	8 <ABIFlags_isa_ext>
    422c:	30480501 	andi	t0,v0,0x501
    4230:	0b000002 	j	c000008 <__memory_size+0xbfe0808>
    4234:	00000275 	0x275
    4238:	02304905 	0x2304905
    423c:	0b000000 	j	c000000 <__memory_size+0xbfe0800>
    4240:	00000269 	0x269
    4244:	02304a05 	0x2304a05
    4248:	11800000 	beqz	t4,424c <__isr_vec_space+0x422c>
    424c:	00000571 	tgeu	zero,zero,0x15
    4250:	01034c05 	0x1034c05
    4254:	01000000 	0x1000000
    4258:	00031911 	0x31911
    425c:	034f0500 	0x34f0500
    4260:	04000001 	bltz	zero,4268 <__isr_vec_space+0x4248>
    4264:	01080001 	movf	zero,t0,$fcc2
    4268:	40000001 	mfc0	zero,c0_mvpcontrol
    426c:	09000002 	j	4000008 <__memory_size+0x3fe0808>
    4270:	000000c3 	sra	zero,zero,0x3
    4274:	6110001f 	0x6110001f
    4278:	90000002 	lbu	zero,2(zero)
    427c:	7e5b0501 	0x7e5b0501
    4280:	0b000002 	j	c000008 <__memory_size+0xbfe0808>
    4284:	000004e1 	0x4e1
    4288:	027e5c05 	0x27e5c05
    428c:	0b000000 	j	c000000 <__memory_size+0xbfe0800>
    4290:	000004f9 	0x4f9
    4294:	00215d05 	0x215d05
    4298:	0b040000 	j	c100000 <__memory_size+0xc0e0800>
    429c:	00000393 	0x393
    42a0:	02845f05 	0x2845f05
    42a4:	0b080000 	j	c200000 <__memory_size+0xc1e0800>
    42a8:	000002f4 	teq	zero,zero,0xb
    42ac:	01f06005 	lsa	t4,t7,s0,0x1
    42b0:	00880000 	0x880000
    42b4:	0240040f 	0x240040f
    42b8:	94080000 	lhu	t0,0(zero)
    42bc:	94000002 	lhu	zero,2(zero)
    42c0:	09000002 	j	4000008 <__memory_size+0x3fe0808>
    42c4:	000000c3 	sra	zero,zero,0x3
    42c8:	040f001f 	0x40f001f
    42cc:	0000029a 	0x29a
    42d0:	04ac0d12 	teqi	a1,3346
    42d4:	05080000 	tgei	t0,0
    42d8:	0002c073 	tltu	zero,v0,0x301
    42dc:	08d20b00 	j	3482c00 <__memory_size+0x3463400>
    42e0:	74050000 	jalx	140000 <__memory_size+0x120800>
    42e4:	000002c0 	sll	zero,zero,0xb
    42e8:	08a00b00 	j	2802c00 <__memory_size+0x27e3400>
    42ec:	75050000 	jalx	4140000 <__memory_size+0x4120800>
    42f0:	00000021 	move	zero,zero
    42f4:	040f0004 	0x40f0004
    42f8:	0000003d 	0x3d
    42fc:	0004cb0d 	break	0x4,0x32c
    4300:	b3056800 	0xb3056800
    4304:	000003f0 	tge	zero,zero,0xf
    4308:	00705f0e 	0x705f0e
    430c:	02c0b405 	0x2c0b405
    4310:	0e000000 	jal	8000000 <__memory_size+0x7fe0800>
    4314:	0500725f 	bltz	t0,20c94 <__memory_size+0x1494>
    4318:	000021b5 	0x21b5
    431c:	5f0e0400 	0x5f0e0400
    4320:	b6050077 	0xb6050077
    4324:	00000021 	move	zero,zero
    4328:	03120b08 	0x3120b08
    432c:	b7050000 	0xb7050000
    4330:	00000044 	0x44
    4334:	03f20b0c 	syscall	0xfc82c
    4338:	b8050000 	swr	a1,0(zero)
    433c:	00000044 	0x44
    4340:	625f0e0e 	0x625f0e0e
    4344:	b9050066 	swr	a1,102(t0)
    4348:	0000029b 	0x29b
    434c:	02b00b10 	0x2b00b10
    4350:	ba050000 	swr	a1,0(s0)
    4354:	00000021 	move	zero,zero
    4358:	03020b18 	0x3020b18
    435c:	c1050000 	ll	a1,0(t0)
    4360:	00000101 	0x101
    4364:	03c60b1c 	0x3c60b1c
    4368:	c3050000 	ll	a1,0(t8)
    436c:	00000553 	0x553
    4370:	043e0b20 	0x43e0b20
    4374:	c5050000 	lwc1	$f5,0(t0)
    4378:	00000582 	srl	zero,zero,0x16
    437c:	053d0b24 	0x53d0b24
    4380:	c8050000 	lwc2	$5,0(zero)
    4384:	000005a6 	0x5a6
    4388:	06200b28 	bltz	s1,702c <__isr_vec_space+0x700c>
    438c:	c9050000 	lwc2	$5,0(t0)
    4390:	000005c0 	sll	zero,zero,0x17
    4394:	755f0e2c 	jalx	57c38b0 <__memory_size+0x57a40b0>
    4398:	cc050062 	pref	0x5,98(zero)
    439c:	0000029b 	0x29b
    43a0:	755f0e30 	jalx	57c38c0 <__memory_size+0x57a40c0>
    43a4:	cd050070 	pref	0x5,112(t0)
    43a8:	000002c0 	sll	zero,zero,0xb
    43ac:	755f0e38 	jalx	57c38e0 <__memory_size+0x57a40e0>
    43b0:	ce050072 	pref	0x5,114(s0)
    43b4:	00000021 	move	zero,zero
    43b8:	02df0b3c 	0x2df0b3c
    43bc:	d1050000 	0xd1050000
    43c0:	000005c6 	0x5c6
    43c4:	05f80b40 	0x5f80b40
    43c8:	d2050000 	0xd2050000
    43cc:	000005d6 	0x5d6
    43d0:	6c5f0e43 	0x6c5f0e43
    43d4:	d5050062 	ldc1	$f5,98(t0)
    43d8:	0000029b 	0x29b
    43dc:	03280b44 	0x3280b44
    43e0:	d8050000 	ldc2	$5,0(zero)
    43e4:	00000021 	move	zero,zero
    43e8:	03390b4c 	syscall	0xce42d
    43ec:	d9050000 	ldc2	$5,0(t0)
    43f0:	0000006b 	0x6b
    43f4:	064f0b50 	0x64f0b50
    43f8:	dc050000 	ldc3	$5,0(zero)
    43fc:	0000040e 	0x40e
    4400:	071e0b54 	0x71e0b54
    4404:	e0050000 	sc	a1,0(zero)
    4408:	000000f6 	tne	zero,zero,0x3
    440c:	04d30b58 	bgezall	a2,7170 <__isr_vec_space+0x7150>
    4410:	e2050000 	sc	a1,0(s0)
    4414:	000000eb 	0xeb
    4418:	04360b5c 	0x4360b5c
    441c:	e3050000 	sc	a1,0(t8)
    4420:	00000021 	move	zero,zero
    4424:	21130064 	addi	s3,t0,100
    4428:	0e000000 	jal	8000000 <__memory_size+0x7fe0800>
    442c:	14000004 	bnez	zero,4440 <__isr_vec_space+0x4420>
    4430:	0000040e 	0x40e
    4434:	00010114 	0x10114
    4438:	05461400 	0x5461400
    443c:	21140000 	addi	s4,t0,0
    4440:	00000000 	nop
    4444:	0414040f 	0x414040f
    4448:	20150000 	addi	s5,zero,0
    444c:	28000005 	slti	zero,zero,5
    4450:	02390504 	0x2390504
    4454:	00000546 	0x546
    4458:	000a9216 	0xa9216
    445c:	023b0500 	0x23b0500
    4460:	00000021 	move	zero,zero
    4464:	03211600 	0x3211600
    4468:	40050000 	mfc0	a1,c0_index
    446c:	00062d02 	srl	a1,a2,0x14
    4470:	e2160400 	sc	s6,1024(s0)
    4474:	05000003 	bltz	t0,4484 <__isr_vec_space+0x4464>
    4478:	062d0240 	0x62d0240
    447c:	16080000 	bne	s0,t0,4480 <__isr_vec_space+0x4460>
    4480:	000003a7 	0x3a7
    4484:	2d024005 	sltiu	v0,t0,16389
    4488:	0c000006 	jal	18 <ABIFlags_flags2+0x4>
    448c:	0004f416 	0x4f416
    4490:	02420500 	0x2420500
    4494:	00000021 	move	zero,zero
    4498:	02851610 	0x2851610
    449c:	43050000 	c0	0x1050000
    44a0:	00080f02 	srl	at,t0,0x1c
    44a4:	a7161400 	sh	s6,5120(t8)
    44a8:	05000005 	bltz	t0,44c0 <__isr_vec_space+0x44a0>
    44ac:	00210245 	0x210245
    44b0:	16300000 	bne	s1,s0,44b4 <__isr_vec_space+0x4494>
    44b4:	000004fe 	0x4fe
    44b8:	77024605 	jalx	c091814 <__memory_size+0xc072014>
    44bc:	34000005 	li	zero,0x5
    44c0:	00045516 	0x45516
    44c4:	02480500 	0x2480500
    44c8:	00000021 	move	zero,zero
    44cc:	050e1638 	tnei	t0,5688
    44d0:	4a050000 	c2	0x50000
    44d4:	00082a02 	srl	a1,t0,0x8
    44d8:	21163c00 	addi	s6,t0,15360
    44dc:	05000004 	bltz	t0,44f0 <__isr_vec_space+0x44d0>
    44e0:	0161024d 	break	0x161,0x9
    44e4:	16400000 	bnez	s2,44e8 <__isr_vec_space+0x44c8>
    44e8:	000003cc 	syscall	0xf
    44ec:	21024e05 	addi	v0,t0,19973
    44f0:	44000000 	mfc1	zero,$f0
    44f4:	00063a16 	0x63a16
    44f8:	024f0500 	0x24f0500
    44fc:	00000161 	0x161
    4500:	04781648 	0x4781648
    4504:	50050000 	beql	zero,a1,4508 <__isr_vec_space+0x44e8>
    4508:	00083002 	srl	a2,t0,0x0
    450c:	ea164c00 	swc2	$22,19456(s0)
    4510:	05000003 	bltz	t0,4520 <__isr_vec_space+0x4500>
    4514:	00210253 	0x210253
    4518:	16500000 	bne	s2,s0,451c <__isr_vec_space+0x44fc>
    451c:	00000331 	tgeu	zero,zero,0xc
    4520:	46025405 	c1	0x25405
    4524:	54000005 	bnezl	zero,453c <__isr_vec_space+0x451c>
    4528:	00049416 	0x49416
    452c:	02770500 	0x2770500
    4530:	000007ed 	0x7ed
    4534:	02611758 	0x2611758
    4538:	7b050000 	xori.b	$w0,$w0,0x5
    453c:	00027e02 	srl	t7,v0,0x18
    4540:	17014800 	bne	t8,at,16544 <__isr_vec_space+0x16524>
    4544:	000003ff 	0x3ff
    4548:	40027c05 	0x40027c05
    454c:	4c000002 	mfc3	zero,$0,2
    4550:	05ee1701 	tnei	t7,5889
    4554:	80050000 	lb	a1,0(zero)
    4558:	00084102 	srl	t0,t0,0x4
    455c:	1702dc00 	bne	t8,v0,ffffb560 <__entry+0x403fb560>
    4560:	0000030a 	0x30a
    4564:	f2028505 	0xf2028505
    4568:	e0000005 	sc	zero,5(zero)
    456c:	02ef1702 	0x2ef1702
    4570:	86050000 	lh	a1,0(s0)
    4574:	00084d02 	srl	t1,t0,0x14
    4578:	0002ec00 	sll	sp,v0,0x10
    457c:	054c040f 	teqi	t2,1039
    4580:	01030000 	0x1030000
    4584:	00009108 	0x9108
    4588:	f0040f00 	0xf0040f00
    458c:	13000003 	beqz	t8,459c <__isr_vec_space+0x457c>
    4590:	00000021 	move	zero,zero
    4594:	00000577 	0x577
    4598:	00040e14 	0x40e14
    459c:	01011400 	0x1011400
    45a0:	77140000 	jalx	c500000 <__memory_size+0xc4e0800>
    45a4:	14000005 	bnez	zero,45bc <__isr_vec_space+0x459c>
    45a8:	00000021 	move	zero,zero
    45ac:	7d040f00 	ext	a0,t0,0x1c,0x2
    45b0:	18000005 	blez	zero,45c8 <__isr_vec_space+0x45a8>
    45b4:	0000054c 	syscall	0x15
    45b8:	0559040f 	0x559040f
    45bc:	76130000 	jalx	84c0000 <__memory_size+0x84a0800>
    45c0:	a6000000 	sh	zero,0(s0)
    45c4:	14000005 	bnez	zero,45dc <__isr_vec_space+0x45bc>
    45c8:	0000040e 	0x40e
    45cc:	00010114 	0x10114
    45d0:	00761400 	0x761400
    45d4:	21140000 	addi	s4,t0,0
    45d8:	00000000 	nop
    45dc:	0588040f 	tgei	t4,1039
    45e0:	21130000 	addi	s3,t0,0
    45e4:	c0000000 	ll	zero,0(zero)
    45e8:	14000005 	bnez	zero,4600 <__isr_vec_space+0x45e0>
    45ec:	0000040e 	0x40e
    45f0:	00010114 	0x10114
    45f4:	040f0000 	0x40f0000
    45f8:	000005ac 	0x5ac
    45fc:	00003d08 	0x3d08
    4600:	0005d600 	sll	k0,a1,0x18
    4604:	00c30900 	0xc30900
    4608:	00020000 	sll	zero,v0,0x0
    460c:	00003d08 	0x3d08
    4610:	0005e600 	sll	gp,a1,0x18
    4614:	00c30900 	0xc30900
    4618:	00000000 	nop
    461c:	0004b905 	0x4b905
    4620:	011d0500 	0x11d0500
    4624:	000002c6 	0x2c6
    4628:	0005d519 	0x5d519
    462c:	21050c00 	addi	a1,t0,3072
    4630:	00062701 	0x62701
    4634:	04e11600 	bgez	a3,9e38 <__isr_vec_space+0x9e18>
    4638:	23050000 	addi	a1,t8,0
    463c:	00062701 	0x62701
    4640:	f8160000 	sdc2	$22,0(zero)
    4644:	05000003 	bltz	t0,4654 <__isr_vec_space+0x4634>
    4648:	00210124 	0x210124
    464c:	16040000 	bne	s0,a0,4650 <__isr_vec_space+0x4630>
    4650:	000004b3 	tltu	zero,zero,0x12
    4654:	2d012505 	sltiu	at,t0,9477
    4658:	08000006 	j	18 <ABIFlags_flags2+0x4>
    465c:	f2040f00 	0xf2040f00
    4660:	0f000005 	jal	c000014 <__memory_size+0xbfe0814>
    4664:	0005e604 	0x5e604
    4668:	027d1900 	0x27d1900
    466c:	050e0000 	tnei	t0,0
    4670:	0668013d 	tgei	s3,317
    4674:	27160000 	addiu	s6,t8,0
    4678:	05000005 	bltz	t0,4690 <__isr_vec_space+0x4670>
    467c:	0668013e 	tgei	s3,318
    4680:	16000000 	bnez	s0,4684 <__isr_vec_space+0x4664>
    4684:	0000055e 	0x55e
    4688:	68013f05 	0x68013f05
    468c:	06000006 	bltz	s0,46a8 <__isr_vec_space+0x4688>
    4690:	00057a16 	0x57a16
    4694:	01400500 	0x1400500
    4698:	0000004b 	0x4b
    469c:	4b08000c 	c2	0x108000c
    46a0:	78000000 	andi.b	$w0,$w0,0x0
    46a4:	09000006 	j	4000018 <__memory_size+0x3fe0818>
    46a8:	000000c3 	sra	zero,zero,0x3
    46ac:	d01a0002 	0xd01a0002
    46b0:	79025805 	0x79025805
    46b4:	16000007 	bnez	s0,46d4 <__isr_vec_space+0x46b4>
    46b8:	000005b9 	0x5b9
    46bc:	8d025a05 	lw	v0,23045(t0)
    46c0:	00000000 	nop
    46c4:	00056416 	0x56416
    46c8:	025b0500 	0x25b0500
    46cc:	00000546 	0x546
    46d0:	04141604 	0x4141604
    46d4:	5c050000 	0x5c050000
    46d8:	00077902 	srl	t7,a3,0x4
    46dc:	11160800 	beq	t0,s6,66e0 <__isr_vec_space+0x66c0>
    46e0:	05000006 	bltz	t0,46fc <__isr_vec_space+0x46dc>
    46e4:	0177025d 	0x177025d
    46e8:	16240000 	bne	s1,a0,46ec <__isr_vec_space+0x46cc>
    46ec:	000003b7 	0x3b7
    46f0:	21025e05 	addi	v0,t0,24069
    46f4:	48000000 	mfc2	zero,$0
    46f8:	0004dc16 	0x4dc16
    46fc:	025f0500 	0x25f0500
    4700:	00000059 	0x59
    4704:	06271650 	aclr	0x1,1616(s1)
    4708:	60050000 	0x60050000
    470c:	00063302 	srl	a2,a2,0xc
    4710:	e7165800 	swc1	$f22,22528(t8)
    4714:	05000004 	bltz	t0,4728 <__isr_vec_space+0x4708>
    4718:	00eb0261 	0xeb0261
    471c:	16680000 	bne	s3,t0,4720 <__isr_vec_space+0x4700>
    4720:	0000062c 	0x62c
    4724:	eb026205 	swc2	$2,25093(t8)
    4728:	70000000 	madd	zero,zero
    472c:	0002c816 	0x2c816
    4730:	02630500 	0x2630500
    4734:	000000eb 	0xeb
    4738:	05e41678 	0x5e41678
    473c:	64050000 	0x64050000
    4740:	00078902 	srl	s1,a3,0x4
    4744:	08168000 	j	5a0000 <__memory_size+0x580800>
    4748:	05000004 	bltz	t0,475c <__isr_vec_space+0x473c>
    474c:	07990265 	0x7990265
    4750:	16880000 	bne	s4,t0,4754 <__isr_vec_space+0x4734>
    4754:	00000587 	0x587
    4758:	21026605 	addi	v0,t0,26117
    475c:	a0000000 	sb	zero,0(zero)
    4760:	00035216 	0x35216
    4764:	02670500 	0x2670500
    4768:	000000eb 	0xeb
    476c:	02b916a4 	0x2b916a4
    4770:	68050000 	0x68050000
    4774:	0000eb02 	srl	sp,zero,0xc
    4778:	4116ac00 	0x4116ac00
    477c:	05000003 	bltz	t0,478c <__isr_vec_space+0x476c>
    4780:	00eb0269 	0xeb0269
    4784:	16b40000 	bne	s5,s4,4788 <__isr_vec_space+0x4768>
    4788:	00000290 	0x290
    478c:	eb026a05 	swc2	$2,27141(t8)
    4790:	bc000000 	cache	0x0,0(zero)
    4794:	00029f16 	0x29f16
    4798:	026b0500 	0x26b0500
    479c:	000000eb 	0xeb
    47a0:	049916c4 	0x49916c4
    47a4:	6c050000 	0x6c050000
    47a8:	00002102 	srl	a0,zero,0x4
    47ac:	0800cc00 	j	33000 <__memory_size+0x13800>
    47b0:	0000054c 	syscall	0x15
    47b4:	00000789 	0x789
    47b8:	0000c309 	0xc309
    47bc:	08001900 	j	6400 <__isr_vec_space+0x63e0>
    47c0:	0000054c 	syscall	0x15
    47c4:	00000799 	0x799
    47c8:	0000c309 	0xc309
    47cc:	08000700 	j	1c00 <__isr_vec_space+0x1be0>
    47d0:	0000054c 	syscall	0x15
    47d4:	000007a9 	0x7a9
    47d8:	0000c309 	0xc309
    47dc:	1a001700 	blez	s0,a3e0 <__isr_vec_space+0xa3c0>
    47e0:	027105f0 	tge	s3,s1,0x17
    47e4:	000007cd 	break	0x0,0x1f
    47e8:	00044516 	0x44516
    47ec:	02740500 	0x2740500
    47f0:	000007cd 	break	0x0,0x1f
    47f4:	05db1600 	0x5db1600
    47f8:	75050000 	jalx	4140000 <__memory_size+0x4120800>
    47fc:	0007dd02 	srl	k1,a3,0x14
    4800:	08007800 	j	1e000 <__isr_vec_space+0x1dfe0>
    4804:	000002c0 	sll	zero,zero,0xb
    4808:	000007dd 	0x7dd
    480c:	0000c309 	0xc309
    4810:	08001d00 	j	7400 <__isr_vec_space+0x73e0>
    4814:	0000008d 	break	0x0,0x2
    4818:	000007ed 	0x7ed
    481c:	0000c309 	0xc309
    4820:	1b001d00 	blez	t8,bc24 <__isr_vec_space+0xbc04>
    4824:	025605f0 	tge	s2,s6,0x17
    4828:	0000080f 	0x80f
    482c:	0005201c 	0x5201c
    4830:	026d0500 	0x26d0500
    4834:	00000678 	0x678
    4838:	0005fe1c 	0x5fe1c
    483c:	02760500 	0x2760500
    4840:	000007a9 	0x7a9
    4844:	054c0800 	teqi	t2,2048
    4848:	081f0000 	j	7c0000 <__memory_size+0x7a0800>
    484c:	c3090000 	ll	t1,0(t8)
    4850:	18000000 	blez	zero,4854 <__isr_vec_space+0x4834>
    4854:	082a1d00 	j	a87400 <__memory_size+0xa67c00>
    4858:	0e140000 	jal	8500000 <__memory_size+0x84e0800>
    485c:	00000004 	sllv	zero,zero,zero
    4860:	081f040f 	j	7c103c <__memory_size+0x7a183c>
    4864:	040f0000 	0x40f0000
    4868:	00000161 	0x161
    486c:	0008411d 	0x8411d
    4870:	00211400 	0x211400
    4874:	0f000000 	jal	c000000 <__memory_size+0xbfe0800>
    4878:	00084704 	0x84704
    487c:	36040f00 	ori	a0,s0,0xf00
    4880:	08000008 	j	20 <__isr_vec_space>
    4884:	000005e6 	0x5e6
    4888:	0000085d 	0x85d
    488c:	0000c309 	0xc309
    4890:	1e000200 	bgtz	s0,5094 <__isr_vec_space+0x5074>
    4894:	00000a91 	0xa91
    4898:	08720f06 	j	1c83c18 <__memory_size+0x1c64418>
    489c:	181c0000 	0x181c0000
    48a0:	000c8000 	sll	s0,t4,0x0
    48a4:	9c010000 	0x9c010000
    48a8:	0021040f 	0x21040f
    48ac:	9b1f0000 	lwr	ra,0(t8)
    48b0:	05000005 	bltz	t0,48c8 <__isr_vec_space+0x48a8>
    48b4:	040e02fa 	tnei	zero,762
    48b8:	Address 0x00000000000048b8 is out of bounds.


Disassembly of section .debug_abbrev:

00000000 <.debug_abbrev>:
       0:	10001101 	b	4408 <__isr_vec_space+0x43e8>
       4:	12011106 	beq	s0,at,4420 <__isr_vec_space+0x4400>
       8:	1b080301 	0x1b080301
       c:	13082508 	beq	t8,t0,9430 <__isr_vec_space+0x9410>
      10:	00000005 	lsa	zero,zero,zero,0x1
      14:	10001101 	b	441c <__isr_vec_space+0x43fc>
      18:	12011106 	beq	s0,at,4434 <__isr_vec_space+0x4414>
      1c:	1b080301 	0x1b080301
      20:	13082508 	beq	t8,t0,9444 <__isr_vec_space+0x9424>
      24:	00000005 	lsa	zero,zero,zero,0x1
      28:	25011101 	addiu	at,t0,4353
      2c:	030b130e 	0x30b130e
      30:	110e1b0e 	beq	t0,t6,6c6c <__isr_vec_space+0x6c4c>
      34:	10061201 	beq	zero,a2,483c <__isr_vec_space+0x481c>
      38:	02000017 	0x2000017
      3c:	0b0b0024 	j	c2c0090 <__memory_size+0xc2a0890>
      40:	0e030b3e 	jal	80c2cf8 <__memory_size+0x80a34f8>
      44:	24030000 	li	v1,0
      48:	3e0b0b00 	0x3e0b0b00
      4c:	0008030b 	0x8030b
      50:	000f0400 	sll	zero,t7,0x10
      54:	00000b0b 	0xb0b
      58:	3f012e05 	0x3f012e05
      5c:	3a0e0319 	xori	t6,s0,0x319
      60:	490b3b0b 	bc2tl	$cc2,ec90 <__isr_vec_space+0xec70>
      64:	12011113 	beq	s0,at,44b4 <__isr_vec_space+0x4494>
      68:	97184006 	lhu	t8,16390(t8)
      6c:	13011942 	beq	t8,at,6578 <__isr_vec_space+0x6558>
      70:	34060000 	li	a2,0x0
      74:	3a0e0300 	xori	t6,s0,0x300
      78:	490b3b0b 	bc2tl	$cc2,eca8 <__isr_vec_space+0xec88>
      7c:	000d1c13 	0xd1c13
      80:	000f0700 	sll	zero,t7,0x1c
      84:	13490b0b 	beq	k0,t1,2cb4 <__isr_vec_space+0x2c94>
      88:	35080000 	ori	t0,t0,0x0
      8c:	00134900 	sll	t1,s3,0x4
      90:	012e0900 	0x12e0900
      94:	0e03193f 	jal	80c64fc <__memory_size+0x80a6cfc>
      98:	0b3b0b3a 	j	cec2ce8 <__memory_size+0xcea34e8>
      9c:	01111927 	0x1111927
      a0:	18400612 	blez	v0,18ec <__isr_vec_space+0x18cc>
      a4:	00194297 	0x194297
      a8:	00050a00 	sll	at,a1,0x8
      ac:	0b3a0803 	j	ce8200c <__memory_size+0xce6280c>
      b0:	13490b3b 	beq	k0,t1,2da0 <__isr_vec_space+0x2d80>
      b4:	00001802 	srl	v1,zero,0x0
      b8:	0300050b 	0x300050b
      bc:	3b0b3a0e 	xori	t3,t8,0x3a0e
      c0:	0213490b 	0x213490b
      c4:	00000018 	mult	zero,zero
      c8:	25011101 	addiu	at,t0,4353
      cc:	030b130e 	0x30b130e
      d0:	1201110e 	beq	s0,at,450c <__isr_vec_space+0x44ec>
      d4:	00171006 	srlv	v0,s7,zero
      d8:	00240200 	0x240200
      dc:	0b3e0b0b 	j	cf82c2c <__memory_size+0xcf6342c>
      e0:	00000e03 	sra	at,zero,0x18
      e4:	0b002403 	j	c00900c <__memory_size+0xbfe980c>
      e8:	030b3e0b 	0x30b3e0b
      ec:	04000008 	bltz	zero,110 <__isr_vec_space+0xf0>
      f0:	0b0b000f 	j	c2c003c <__memory_size+0xc2a083c>
      f4:	0f050000 	jal	c140000 <__memory_size+0xc120800>
      f8:	490b0b00 	bc2tl	$cc2,2cfc <__isr_vec_space+0x2cdc>
      fc:	06000013 	bltz	s0,14c <__isr_vec_space+0x12c>
     100:	19270015 	0x19270015
     104:	04070000 	aclr	0x0,0(zero)
     108:	0b0e0301 	j	c380c04 <__memory_size+0xc361404>
     10c:	3b0b3a0b 	xori	t3,t8,0x3a0b
     110:	0013010b 	0x13010b
     114:	00280800 	0x280800
     118:	0d1c0e03 	jal	470380c <__memory_size+0x46e400c>
     11c:	2e090000 	sltiu	t1,s0,0
     120:	03193f01 	0x3193f01
     124:	3b0b3a0e 	xori	t3,t8,0x3a0e
     128:	4919270b 	bc2t	$cc6,9d58 <__isr_vec_space+0x9d38>
     12c:	12011113 	beq	s0,at,457c <__isr_vec_space+0x455c>
     130:	97184006 	lhu	t8,16390(t8)
     134:	13011942 	beq	t8,at,6640 <__isr_vec_space+0x6620>
     138:	050a0000 	tlti	t0,0
     13c:	3a080300 	xori	t0,s0,0x300
     140:	490b3b0b 	bc2tl	$cc2,ed70 <__isr_vec_space+0xed50>
     144:	00170213 	0x170213
     148:	82890b00 	lb	t1,2816(s4)
     14c:	01110101 	0x1110101
     150:	00001331 	tgeu	zero,zero,0x4c
     154:	01828a0c 	syscall	0x60a28
     158:	91180200 	lbu	t8,512(t0)
     15c:	00001842 	srl	v1,zero,0x1
     160:	3f012e0d 	0x3f012e0d
     164:	3a0e0319 	xori	t6,s0,0x319
     168:	270b3b0b 	addiu	t3,t8,15115
     16c:	3c134919 	lui	s3,0x4919
     170:	0e000019 	jal	8000064 <__memory_size+0x7fe0864>
     174:	13490005 	beq	k0,t1,18c <__isr_vec_space+0x16c>
     178:	01000000 	0x1000000
     17c:	0e250111 	jal	8940444 <__memory_size+0x8920c44>
     180:	0e030b13 	jal	80c2c4c <__memory_size+0x80a344c>
     184:	06120111 	bltzall	s0,5cc <__isr_vec_space+0x5ac>
     188:	00001710 	0x1710
     18c:	0b002402 	j	c009008 <__memory_size+0xbfe9808>
     190:	030b3e0b 	0x30b3e0b
     194:	0300000e 	0x300000e
     198:	0b0b0024 	j	c2c0090 <__memory_size+0xc2a0890>
     19c:	08030b3e 	j	c2cf8 <__memory_size+0xa34f8>
     1a0:	16040000 	bne	s0,a0,1a4 <__isr_vec_space+0x184>
     1a4:	3a0e0300 	xori	t6,s0,0x300
     1a8:	490b3b0b 	bc2tl	$cc2,edd8 <__isr_vec_space+0xedb8>
     1ac:	05000013 	bltz	t0,1fc <__isr_vec_space+0x1dc>
     1b0:	0e030016 	jal	80c0058 <__memory_size+0x80a0858>
     1b4:	053b0b3a 	0x53b0b3a
     1b8:	00001349 	0x1349
     1bc:	0b011706 	j	c045c18 <__memory_size+0xc026418>
     1c0:	3b0b3a0b 	xori	t3,t8,0x3a0b
     1c4:	0013010b 	0x13010b
     1c8:	000d0700 	sll	zero,t5,0x1c
     1cc:	0b3a0e03 	j	ce8380c <__memory_size+0xce6400c>
     1d0:	13490b3b 	beq	k0,t1,2ec0 <__isr_vec_space+0x2ea0>
     1d4:	01080000 	0x1080000
     1d8:	01134901 	0x1134901
     1dc:	09000013 	j	400004c <__memory_size+0x3fe084c>
     1e0:	13490021 	beq	k0,t1,268 <__isr_vec_space+0x248>
     1e4:	00000b2f 	0xb2f
     1e8:	0b01130a 	j	c044c28 <__memory_size+0xc025428>
     1ec:	3b0b3a0b 	xori	t3,t8,0x3a0b
     1f0:	0013010b 	0x13010b
     1f4:	000d0b00 	sll	at,t5,0xc
     1f8:	0b3a0e03 	j	ce8380c <__memory_size+0xce6400c>
     1fc:	13490b3b 	beq	k0,t1,2eec <__isr_vec_space+0x2ecc>
     200:	00000b38 	0xb38
     204:	0b000f0c 	j	c003c30 <__memory_size+0xbfe4430>
     208:	0d00000b 	jal	400002c <__memory_size+0x3fe082c>
     20c:	0e030113 	jal	80c044c <__memory_size+0x80a0c4c>
     210:	0b3a0b0b 	j	ce82c2c <__memory_size+0xce6342c>
     214:	13010b3b 	beq	t8,at,2f04 <__isr_vec_space+0x2ee4>
     218:	0d0e0000 	jal	4380000 <__memory_size+0x4360800>
     21c:	3a080300 	xori	t0,s0,0x300
     220:	490b3b0b 	bc2tl	$cc2,ee50 <__isr_vec_space+0xee30>
     224:	000b3813 	0xb3813
     228:	000f0f00 	sll	at,t7,0x1c
     22c:	13490b0b 	beq	k0,t1,2e5c <__isr_vec_space+0x2e3c>
     230:	13100000 	beq	t8,s0,234 <__isr_vec_space+0x214>
     234:	0b0e0301 	j	c380c04 <__memory_size+0xc361404>
     238:	3b0b3a05 	xori	t3,t8,0x3a05
     23c:	0013010b 	0x13010b
     240:	000d1100 	sll	v0,t5,0x4
     244:	0b3a0e03 	j	ce8380c <__memory_size+0xce6400c>
     248:	13490b3b 	beq	k0,t1,2f38 <__isr_vec_space+0x2f18>
     24c:	00000538 	0x538
     250:	27001512 	addiu	zero,t8,5394
     254:	13000019 	beqz	t8,2bc <__isr_vec_space+0x29c>
     258:	19270115 	0x19270115
     25c:	13011349 	beq	t8,at,4f84 <__isr_vec_space+0x4f64>
     260:	05140000 	0x5140000
     264:	00134900 	sll	t1,s3,0x4
     268:	01131500 	0x1131500
     26c:	050b0e03 	tltiu	t0,3587
     270:	053b0b3a 	0x53b0b3a
     274:	00001301 	0x1301
     278:	03000d16 	0x3000d16
     27c:	3b0b3a0e 	xori	t3,t8,0x3a0e
     280:	38134905 	xori	s3,zero,0x4905
     284:	1700000b 	bnez	t8,2b4 <__isr_vec_space+0x294>
     288:	0e03000d 	jal	80c0034 <__memory_size+0x80a0834>
     28c:	053b0b3a 	0x53b0b3a
     290:	05381349 	0x5381349
     294:	26180000 	addiu	t8,s0,0
     298:	00134900 	sll	t1,s3,0x4
     29c:	01131900 	0x1131900
     2a0:	0b0b0e03 	j	c2c380c <__memory_size+0xc2a400c>
     2a4:	053b0b3a 	0x53b0b3a
     2a8:	00001301 	0x1301
     2ac:	0b01131a 	j	c044c68 <__memory_size+0xc025468>
     2b0:	3b0b3a0b 	xori	t3,t8,0x3a0b
     2b4:	00130105 	0x130105
     2b8:	01171b00 	0x1171b00
     2bc:	0b3a0b0b 	j	ce82c2c <__memory_size+0xce6342c>
     2c0:	1301053b 	beq	t8,at,17b0 <__isr_vec_space+0x1790>
     2c4:	0d1c0000 	jal	4700000 <__memory_size+0x46e0800>
     2c8:	3a0e0300 	xori	t6,s0,0x300
     2cc:	49053b0b 	bc2t	$cc1,eefc <__isr_vec_space+0xeedc>
     2d0:	1d000013 	bgtz	t0,320 <__isr_vec_space+0x300>
     2d4:	19270115 	0x19270115
     2d8:	00001301 	0x1301
     2dc:	3f012e1e 	0x3f012e1e
     2e0:	3a0e0319 	xori	t6,s0,0x319
     2e4:	270b3b0b 	addiu	t3,t8,15115
     2e8:	12011119 	beq	s0,at,4750 <__isr_vec_space+0x4730>
     2ec:	96184006 	lhu	t8,16390(s0)
     2f0:	13011942 	beq	t8,at,67fc <__isr_vec_space+0x67dc>
     2f4:	051f0000 	synci	0(t0)
     2f8:	3a0e0300 	xori	t6,s0,0x300
     2fc:	490b3b0b 	bc2tl	$cc2,ef2c <__isr_vec_space+0xef0c>
     300:	00170213 	0x170213
     304:	82892000 	lb	t1,8192(s4)
     308:	01110101 	0x1110101
     30c:	13011331 	beq	t8,at,4fd4 <__isr_vec_space+0x4fb4>
     310:	8a210000 	lwl	at,0(s1)
     314:	02000182 	0x2000182
     318:	18429118 	0x18429118
     31c:	89220000 	lwl	v0,0(t1)
     320:	11010182 	beq	t0,at,92c <__isr_vec_space+0x90c>
     324:	00133101 	0x133101
     328:	00342300 	0x342300
     32c:	0b3a0e03 	j	ce8380c <__memory_size+0xce6400c>
     330:	1349053b 	beq	k0,t1,1820 <__isr_vec_space+0x1800>
     334:	193c193f 	0x193c193f
     338:	2e240000 	sltiu	a0,s1,0
     33c:	03193f01 	0x3193f01
     340:	3b0b3a0e 	xori	t3,t8,0x3a0e
     344:	3c19270b 	lui	t9,0x270b
     348:	00130119 	0x130119
     34c:	012e2500 	0x12e2500
     350:	0e03193f 	jal	80c64fc <__memory_size+0x80a6cfc>
     354:	0b3b0b3a 	j	cec2ce8 <__memory_size+0xcea34e8>
     358:	193c1927 	0x193c1927
     35c:	01000000 	0x1000000
     360:	0e250111 	jal	8940444 <__memory_size+0x8920c44>
     364:	0e030b13 	jal	80c2c4c <__memory_size+0x80a344c>
     368:	00001710 	0x1710
     36c:	0b002402 	j	c009008 <__memory_size+0xbfe9808>
     370:	030b3e0b 	0x30b3e0b
     374:	0300000e 	0x300000e
     378:	0b0b0024 	j	c2c0090 <__memory_size+0xc2a0890>
     37c:	08030b3e 	j	c2cf8 <__memory_size+0xa34f8>
     380:	16040000 	bne	s0,a0,384 <__isr_vec_space+0x364>
     384:	3a0e0300 	xori	t6,s0,0x300
     388:	490b3b0b 	bc2tl	$cc2,efb8 <__isr_vec_space+0xef98>
     38c:	05000013 	bltz	t0,3dc <__isr_vec_space+0x3bc>
     390:	0e030016 	jal	80c0058 <__memory_size+0x80a0858>
     394:	053b0b3a 	0x53b0b3a
     398:	00001349 	0x1349
     39c:	0b011706 	j	c045c18 <__memory_size+0xc026418>
     3a0:	3b0b3a0b 	xori	t3,t8,0x3a0b
     3a4:	0013010b 	0x13010b
     3a8:	000d0700 	sll	zero,t5,0x1c
     3ac:	0b3a0e03 	j	ce8380c <__memory_size+0xce6400c>
     3b0:	13490b3b 	beq	k0,t1,30a0 <__isr_vec_space+0x3080>
     3b4:	01080000 	0x1080000
     3b8:	01134901 	0x1134901
     3bc:	09000013 	j	400004c <__memory_size+0x3fe084c>
     3c0:	13490021 	beq	k0,t1,448 <__isr_vec_space+0x428>
     3c4:	00000b2f 	0xb2f
     3c8:	0b01130a 	j	c044c28 <__memory_size+0xc025428>
     3cc:	3b0b3a0b 	xori	t3,t8,0x3a0b
     3d0:	0013010b 	0x13010b
     3d4:	000d0b00 	sll	at,t5,0xc
     3d8:	0b3a0e03 	j	ce8380c <__memory_size+0xce6400c>
     3dc:	13490b3b 	beq	k0,t1,30cc <__isr_vec_space+0x30ac>
     3e0:	00000b38 	0xb38
     3e4:	0b000f0c 	j	c003c30 <__memory_size+0xbfe4430>
     3e8:	0d00000b 	jal	400002c <__memory_size+0x3fe082c>
     3ec:	0e030113 	jal	80c044c <__memory_size+0x80a0c4c>
     3f0:	0b3a0b0b 	j	ce82c2c <__memory_size+0xce6342c>
     3f4:	13010b3b 	beq	t8,at,30e4 <__isr_vec_space+0x30c4>
     3f8:	0d0e0000 	jal	4380000 <__memory_size+0x4360800>
     3fc:	3a080300 	xori	t0,s0,0x300
     400:	490b3b0b 	bc2tl	$cc2,f030 <__isr_vec_space+0xf010>
     404:	000b3813 	0xb3813
     408:	000f0f00 	sll	at,t7,0x1c
     40c:	13490b0b 	beq	k0,t1,303c <__isr_vec_space+0x301c>
     410:	13100000 	beq	t8,s0,414 <__isr_vec_space+0x3f4>
     414:	0b0e0301 	j	c380c04 <__memory_size+0xc361404>
     418:	3b0b3a05 	xori	t3,t8,0x3a05
     41c:	0013010b 	0x13010b
     420:	000d1100 	sll	v0,t5,0x4
     424:	0b3a0e03 	j	ce8380c <__memory_size+0xce6400c>
     428:	13490b3b 	beq	k0,t1,3118 <__isr_vec_space+0x30f8>
     42c:	00000538 	0x538
     430:	27001512 	addiu	zero,t8,5394
     434:	13000019 	beqz	t8,49c <__isr_vec_space+0x47c>
     438:	19270115 	0x19270115
     43c:	13011349 	beq	t8,at,5164 <__isr_vec_space+0x5144>
     440:	05140000 	0x5140000
     444:	00134900 	sll	t1,s3,0x4
     448:	01131500 	0x1131500
     44c:	050b0e03 	tltiu	t0,3587
     450:	053b0b3a 	0x53b0b3a
     454:	00001301 	0x1301
     458:	03000d16 	0x3000d16
     45c:	3b0b3a0e 	xori	t3,t8,0x3a0e
     460:	38134905 	xori	s3,zero,0x4905
     464:	1700000b 	bnez	t8,494 <__isr_vec_space+0x474>
     468:	0e03000d 	jal	80c0034 <__memory_size+0x80a0834>
     46c:	053b0b3a 	0x53b0b3a
     470:	05381349 	0x5381349
     474:	26180000 	addiu	t8,s0,0
     478:	00134900 	sll	t1,s3,0x4
     47c:	01131900 	0x1131900
     480:	0b0b0e03 	j	c2c380c <__memory_size+0xc2a400c>
     484:	053b0b3a 	0x53b0b3a
     488:	00001301 	0x1301
     48c:	0b01131a 	j	c044c68 <__memory_size+0xc025468>
     490:	3b0b3a0b 	xori	t3,t8,0x3a0b
     494:	00130105 	0x130105
     498:	01171b00 	0x1171b00
     49c:	0b3a0b0b 	j	ce82c2c <__memory_size+0xce6342c>
     4a0:	1301053b 	beq	t8,at,1990 <__isr_vec_space+0x1970>
     4a4:	0d1c0000 	jal	4700000 <__memory_size+0x46e0800>
     4a8:	3a0e0300 	xori	t6,s0,0x300
     4ac:	49053b0b 	bc2t	$cc1,f0dc <__isr_vec_space+0xf0bc>
     4b0:	1d000013 	bgtz	t0,500 <__isr_vec_space+0x4e0>
     4b4:	19270115 	0x19270115
     4b8:	00001301 	0x1301
     4bc:	0300341e 	0x300341e
     4c0:	3b0b3a0e 	xori	t3,t8,0x3a0e
     4c4:	0213490b 	0x213490b
     4c8:	1f000018 	bgtz	t8,52c <__isr_vec_space+0x50c>
     4cc:	0e030034 	jal	80c00d0 <__memory_size+0x80a08d0>
     4d0:	053b0b3a 	0x53b0b3a
     4d4:	193f1349 	0x193f1349
     4d8:	00001802 	srl	v1,zero,0x0
     4dc:	01110100 	0x1110100
     4e0:	0b130e25 	j	c4c3894 <__memory_size+0xc4a4094>
     4e4:	01110e03 	0x1110e03
     4e8:	17100612 	bne	t8,s0,1d34 <__isr_vec_space+0x1d14>
     4ec:	24020000 	li	v0,0
     4f0:	3e0b0b00 	0x3e0b0b00
     4f4:	000e030b 	0xe030b
     4f8:	00160300 	sll	zero,s6,0xc
     4fc:	0b3a0e03 	j	ce8380c <__memory_size+0xce6400c>
     500:	13490b3b 	beq	k0,t1,31f0 <__isr_vec_space+0x31d0>
     504:	24040000 	li	a0,0
     508:	3e0b0b00 	0x3e0b0b00
     50c:	0008030b 	0x8030b
     510:	00160500 	sll	zero,s6,0x14
     514:	0b3a0e03 	j	ce8380c <__memory_size+0xce6400c>
     518:	1349053b 	beq	k0,t1,1a08 <__isr_vec_space+0x19e8>
     51c:	17060000 	bne	t8,a2,520 <__isr_vec_space+0x500>
     520:	3a0b0b01 	xori	t3,s0,0xb01
     524:	010b3b0b 	0x10b3b0b
     528:	07000013 	bltz	t8,578 <__isr_vec_space+0x558>
     52c:	0e03000d 	jal	80c0034 <__memory_size+0x80a0834>
     530:	0b3b0b3a 	j	cec2ce8 <__memory_size+0xcea34e8>
     534:	00001349 	0x1349
     538:	49010108 	bc2t	95c <__isr_vec_space+0x93c>
     53c:	00130113 	0x130113
     540:	00210900 	0x210900
     544:	0b2f1349 	j	cbc4d24 <__memory_size+0xcba5524>
     548:	130a0000 	beq	t8,t2,54c <__isr_vec_space+0x52c>
     54c:	3a0b0b01 	xori	t3,s0,0xb01
     550:	010b3b0b 	0x10b3b0b
     554:	0b000013 	j	c00004c <__memory_size+0xbfe084c>
     558:	0e03000d 	jal	80c0034 <__memory_size+0x80a0834>
     55c:	0b3b0b3a 	j	cec2ce8 <__memory_size+0xcea34e8>
     560:	0b381349 	j	ce04d24 <__memory_size+0xcde5524>
     564:	0f0c0000 	jal	c300000 <__memory_size+0xc2e0800>
     568:	000b0b00 	sll	at,t3,0xc
     56c:	01130d00 	0x1130d00
     570:	0b0b0e03 	j	c2c380c <__memory_size+0xc2a400c>
     574:	0b3b0b3a 	j	cec2ce8 <__memory_size+0xcea34e8>
     578:	00001301 	0x1301
     57c:	03000d0e 	0x3000d0e
     580:	3b0b3a08 	xori	t3,t8,0x3a08
     584:	3813490b 	xori	s3,zero,0x490b
     588:	0f00000b 	jal	c00002c <__memory_size+0xbfe082c>
     58c:	0b0b000f 	j	c2c003c <__memory_size+0xc2a083c>
     590:	00001349 	0x1349
     594:	03011310 	0x3011310
     598:	3a050b0e 	xori	a1,s0,0xb0e
     59c:	010b3b0b 	0x10b3b0b
     5a0:	11000013 	beqz	t0,5f0 <__isr_vec_space+0x5d0>
     5a4:	0e03000d 	jal	80c0034 <__memory_size+0x80a0834>
     5a8:	0b3b0b3a 	j	cec2ce8 <__memory_size+0xcea34e8>
     5ac:	05381349 	0x5381349
     5b0:	15120000 	bne	t0,s2,5b4 <__isr_vec_space+0x594>
     5b4:	00192700 	sll	a0,t9,0x1c
     5b8:	01151300 	0x1151300
     5bc:	13491927 	beq	k0,t1,6a5c <__isr_vec_space+0x6a3c>
     5c0:	00001301 	0x1301
     5c4:	49000514 	bc2f	1a18 <__isr_vec_space+0x19f8>
     5c8:	15000013 	bnez	t0,618 <__isr_vec_space+0x5f8>
     5cc:	0e030113 	jal	80c044c <__memory_size+0x80a0c4c>
     5d0:	0b3a050b 	j	ce8142c <__memory_size+0xce61c2c>
     5d4:	1301053b 	beq	t8,at,1ac4 <__isr_vec_space+0x1aa4>
     5d8:	0d160000 	jal	4580000 <__memory_size+0x4560800>
     5dc:	3a0e0300 	xori	t6,s0,0x300
     5e0:	49053b0b 	bc2t	$cc1,f210 <__isr_vec_space+0xf1f0>
     5e4:	000b3813 	0xb3813
     5e8:	000d1700 	sll	v0,t5,0x1c
     5ec:	0b3a0e03 	j	ce8380c <__memory_size+0xce6400c>
     5f0:	1349053b 	beq	k0,t1,1ae0 <__isr_vec_space+0x1ac0>
     5f4:	00000538 	0x538
     5f8:	49002618 	bc2f	9e5c <__isr_vec_space+0x9e3c>
     5fc:	19000013 	blez	t0,64c <__isr_vec_space+0x62c>
     600:	0e030113 	jal	80c044c <__memory_size+0x80a0c4c>
     604:	0b3a0b0b 	j	ce82c2c <__memory_size+0xce6342c>
     608:	1301053b 	beq	t8,at,1af8 <__isr_vec_space+0x1ad8>
     60c:	131a0000 	beq	t8,k0,610 <__isr_vec_space+0x5f0>
     610:	3a0b0b01 	xori	t3,s0,0xb01
     614:	01053b0b 	0x1053b0b
     618:	1b000013 	blez	t8,668 <__isr_vec_space+0x648>
     61c:	0b0b0117 	j	c2c045c <__memory_size+0xc2a0c5c>
     620:	053b0b3a 	0x53b0b3a
     624:	00001301 	0x1301
     628:	03000d1c 	0x3000d1c
     62c:	3b0b3a0e 	xori	t3,t8,0x3a0e
     630:	00134905 	0x134905
     634:	01151d00 	0x1151d00
     638:	13011927 	beq	t8,at,6ad8 <__isr_vec_space+0x6ab8>
     63c:	041e0000 	0x41e0000
     640:	0b0e0301 	j	c380c04 <__memory_size+0xc361404>
     644:	3b0b3a0b 	xori	t3,t8,0x3a0b
     648:	0013010b 	0x13010b
     64c:	00281f00 	0x281f00
     650:	0d1c0e03 	jal	470380c <__memory_size+0x46e400c>
     654:	2e200000 	sltiu	zero,s1,0
     658:	03193f01 	0x3193f01
     65c:	3b0b3a0e 	xori	t3,t8,0x3a0e
     660:	4919270b 	bc2t	$cc6,a290 <__isr_vec_space+0xa270>
     664:	12011113 	beq	s0,at,4ab4 <__isr_vec_space+0x4a94>
     668:	97184006 	lhu	t8,16390(t8)
     66c:	13011942 	beq	t8,at,6b78 <__isr_vec_space+0x6b58>
     670:	05210000 	bgez	t1,674 <__isr_vec_space+0x654>
     674:	3a0e0300 	xori	t6,s0,0x300
     678:	490b3b0b 	bc2tl	$cc2,f2a8 <__isr_vec_space+0xf288>
     67c:	00170213 	0x170213
     680:	00052200 	sll	a0,a1,0x8
     684:	0b3a0803 	j	ce8200c <__memory_size+0xce6280c>
     688:	13490b3b 	beq	k0,t1,3378 <__isr_vec_space+0x3358>
     68c:	00001702 	srl	v0,zero,0x1c
     690:	03003423 	0x3003423
     694:	3b0b3a0e 	xori	t3,t8,0x3a0e
     698:	0213490b 	0x213490b
     69c:	24000017 	li	zero,23
     6a0:	08030034 	j	c00d0 <__memory_size+0xa08d0>
     6a4:	0b3b0b3a 	j	cec2ce8 <__memory_size+0xcea34e8>
     6a8:	17021349 	bne	t8,v0,53d0 <__isr_vec_space+0x53b0>
     6ac:	89250000 	lwl	a1,0(t1)
     6b0:	11010182 	beq	t0,at,cbc <__isr_vec_space+0xc9c>
     6b4:	00133101 	0x133101
     6b8:	828a2600 	lb	t2,9728(s4)
     6bc:	18020001 	0x18020001
     6c0:	00184291 	0x184291
     6c4:	00342700 	0x342700
     6c8:	0b3a0e03 	j	ce8380c <__memory_size+0xce6400c>
     6cc:	1349053b 	beq	k0,t1,1bbc <__isr_vec_space+0x1b9c>
     6d0:	193c193f 	0x193c193f
     6d4:	2e280000 	sltiu	t0,s1,0
     6d8:	03193f01 	0x3193f01
     6dc:	3b0b3a0e 	xori	t3,t8,0x3a0e
     6e0:	4919270b 	bc2t	$cc6,a310 <__isr_vec_space+0xa2f0>
     6e4:	00193c13 	0x193c13
     6e8:	11010000 	beq	t0,at,6ec <__isr_vec_space+0x6cc>
     6ec:	130e2501 	beq	t8,t6,9af4 <__isr_vec_space+0x9ad4>
     6f0:	110e030b 	beq	t0,t6,1320 <__isr_vec_space+0x1300>
     6f4:	10061201 	beq	zero,a2,4efc <__isr_vec_space+0x4edc>
     6f8:	02000017 	0x2000017
     6fc:	0b0b0024 	j	c2c0090 <__memory_size+0xc2a0890>
     700:	0e030b3e 	jal	80c2cf8 <__memory_size+0x80a34f8>
     704:	24030000 	li	v1,0
     708:	3e0b0b00 	0x3e0b0b00
     70c:	0008030b 	0x8030b
     710:	00160400 	sll	zero,s6,0x10
     714:	0b3a0e03 	j	ce8380c <__memory_size+0xce6400c>
     718:	13490b3b 	beq	k0,t1,3408 <__isr_vec_space+0x33e8>
     71c:	16050000 	bne	s0,a1,720 <__isr_vec_space+0x700>
     720:	3a0e0300 	xori	t6,s0,0x300
     724:	49053b0b 	bc2t	$cc1,f354 <__isr_vec_space+0xf334>
     728:	06000013 	bltz	s0,778 <__isr_vec_space+0x758>
     72c:	0b0b0117 	j	c2c045c <__memory_size+0xc2a0c5c>
     730:	0b3b0b3a 	j	cec2ce8 <__memory_size+0xcea34e8>
     734:	00001301 	0x1301
     738:	03000d07 	0x3000d07
     73c:	3b0b3a0e 	xori	t3,t8,0x3a0e
     740:	0013490b 	0x13490b
     744:	01010800 	0x1010800
     748:	13011349 	beq	t8,at,5470 <__isr_vec_space+0x5450>
     74c:	21090000 	addi	t1,t0,0
     750:	2f134900 	sltiu	s3,t8,18688
     754:	0a00000b 	j	800002c <__memory_size+0x7fe082c>
     758:	0b0b0113 	j	c2c044c <__memory_size+0xc2a0c4c>
     75c:	0b3b0b3a 	j	cec2ce8 <__memory_size+0xcea34e8>
     760:	00001301 	0x1301
     764:	03000d0b 	0x3000d0b
     768:	3b0b3a0e 	xori	t3,t8,0x3a0e
     76c:	3813490b 	xori	s3,zero,0x490b
     770:	0c00000b 	jal	2c <__isr_vec_space+0xc>
     774:	0b0b000f 	j	c2c003c <__memory_size+0xc2a083c>
     778:	130d0000 	beq	t8,t5,77c <__isr_vec_space+0x75c>
     77c:	0b0e0301 	j	c380c04 <__memory_size+0xc361404>
     780:	3b0b3a0b 	xori	t3,t8,0x3a0b
     784:	0013010b 	0x13010b
     788:	000d0e00 	sll	at,t5,0x18
     78c:	0b3a0803 	j	ce8200c <__memory_size+0xce6280c>
     790:	13490b3b 	beq	k0,t1,3480 <__isr_vec_space+0x3460>
     794:	00000b38 	0xb38
     798:	0b000f0f 	j	c003c3c <__memory_size+0xbfe443c>
     79c:	0013490b 	0x13490b
     7a0:	01131000 	0x1131000
     7a4:	050b0e03 	tltiu	t0,3587
     7a8:	0b3b0b3a 	j	cec2ce8 <__memory_size+0xcea34e8>
     7ac:	00001301 	0x1301
     7b0:	03000d11 	0x3000d11
     7b4:	3b0b3a0e 	xori	t3,t8,0x3a0e
     7b8:	3813490b 	xori	s3,zero,0x490b
     7bc:	12000005 	beqz	s0,7d4 <__isr_vec_space+0x7b4>
     7c0:	19270015 	0x19270015
     7c4:	15130000 	bne	t0,s3,7c8 <__isr_vec_space+0x7a8>
     7c8:	49192701 	bc2t	$cc6,a3d0 <__isr_vec_space+0xa3b0>
     7cc:	00130113 	0x130113
     7d0:	00051400 	sll	v0,a1,0x10
     7d4:	00001349 	0x1349
     7d8:	03011315 	0x3011315
     7dc:	3a050b0e 	xori	a1,s0,0xb0e
     7e0:	01053b0b 	0x1053b0b
     7e4:	16000013 	bnez	s0,834 <__isr_vec_space+0x814>
     7e8:	0e03000d 	jal	80c0034 <__memory_size+0x80a0834>
     7ec:	053b0b3a 	0x53b0b3a
     7f0:	0b381349 	j	ce04d24 <__memory_size+0xcde5524>
     7f4:	0d170000 	jal	45c0000 <__memory_size+0x45a0800>
     7f8:	3a0e0300 	xori	t6,s0,0x300
     7fc:	49053b0b 	bc2t	$cc1,f42c <__isr_vec_space+0xf40c>
     800:	00053813 	0x53813
     804:	00261800 	0x261800
     808:	00001349 	0x1349
     80c:	03011319 	0x3011319
     810:	3a0b0b0e 	xori	t3,s0,0xb0e
     814:	01053b0b 	0x1053b0b
     818:	1a000013 	blez	s0,868 <__isr_vec_space+0x848>
     81c:	0b0b0113 	j	c2c044c <__memory_size+0xc2a0c4c>
     820:	053b0b3a 	0x53b0b3a
     824:	00001301 	0x1301
     828:	0b01171b 	j	c045c6c <__memory_size+0xc02646c>
     82c:	3b0b3a0b 	xori	t3,t8,0x3a0b
     830:	00130105 	0x130105
     834:	000d1c00 	sll	v1,t5,0x10
     838:	0b3a0e03 	j	ce8380c <__memory_size+0xce6400c>
     83c:	1349053b 	beq	k0,t1,1d2c <__isr_vec_space+0x1d0c>
     840:	151d0000 	bne	t0,sp,844 <__isr_vec_space+0x824>
     844:	01192701 	0x1192701
     848:	1e000013 	bgtz	s0,898 <__isr_vec_space+0x878>
     84c:	193f012e 	0x193f012e
     850:	0b3a0e03 	j	ce8380c <__memory_size+0xce6400c>
     854:	19270b3b 	0x19270b3b
     858:	06120111 	bltzall	s0,ca0 <__isr_vec_space+0xc80>
     85c:	42961840 	c0	0x961840
     860:	00130119 	0x130119
     864:	00051f00 	sll	v1,a1,0x1c
     868:	0b3a0e03 	j	ce8380c <__memory_size+0xce6400c>
     86c:	13490b3b 	beq	k0,t1,355c <__isr_vec_space+0x353c>
     870:	00001702 	srl	v0,zero,0x1c
     874:	03000520 	0x3000520
     878:	3b0b3a08 	xori	t3,t8,0x3a08
     87c:	0213490b 	0x213490b
     880:	21000017 	addi	zero,t0,23
     884:	08030034 	j	c00d0 <__memory_size+0xa08d0>
     888:	0b3b0b3a 	j	cec2ce8 <__memory_size+0xcea34e8>
     88c:	17021349 	bne	t8,v0,55b4 <__isr_vec_space+0x5594>
     890:	34220000 	ori	v0,at,0x0
     894:	3a0e0300 	xori	t6,s0,0x300
     898:	490b3b0b 	bc2tl	$cc2,f4c8 <__isr_vec_space+0xf4a8>
     89c:	00170213 	0x170213
     8a0:	000a2300 	sll	a0,t2,0xc
     8a4:	0b3a0e03 	j	ce8380c <__memory_size+0xce6400c>
     8a8:	00000b3b 	0xb3b
     8ac:	55010b24 	bnel	t0,at,3540 <__isr_vec_space+0x3520>
     8b0:	00130117 	0x130117
     8b4:	82892500 	lb	t1,9472(s4)
     8b8:	01110101 	0x1110101
     8bc:	8a260000 	lwl	a2,0(s1)
     8c0:	02000182 	0x2000182
     8c4:	18429118 	0x18429118
     8c8:	89270000 	lwl	a3,0(t1)
     8cc:	11010182 	beq	t0,at,ed8 <__isr_vec_space+0xeb8>
     8d0:	00133101 	0x133101
     8d4:	00342800 	0x342800
     8d8:	0b3a0e03 	j	ce8380c <__memory_size+0xce6400c>
     8dc:	13490b3b 	beq	k0,t1,35cc <__isr_vec_space+0x35ac>
     8e0:	00000b1c 	0xb1c
     8e4:	03003429 	0x3003429
     8e8:	3b0b3a0e 	xori	t3,t8,0x3a0e
     8ec:	3f134905 	0x3f134905
     8f0:	00193c19 	0x193c19
     8f4:	012e2a00 	0x12e2a00
     8f8:	0e03193f 	jal	80c64fc <__memory_size+0x80a6cfc>
     8fc:	0b3b0b3a 	j	cec2ce8 <__memory_size+0xcea34e8>
     900:	193c1927 	0x193c1927
     904:	01000000 	0x1000000
     908:	0e250111 	jal	8940444 <__memory_size+0x8920c44>
     90c:	0e030b13 	jal	80c2c4c <__memory_size+0x80a344c>
     910:	06120111 	bltzall	s0,d58 <__isr_vec_space+0xd38>
     914:	00001710 	0x1710
     918:	0b002402 	j	c009008 <__memory_size+0xbfe9808>
     91c:	030b3e0b 	0x30b3e0b
     920:	0300000e 	0x300000e
     924:	0e030016 	jal	80c0058 <__memory_size+0x80a0858>
     928:	0b3b0b3a 	j	cec2ce8 <__memory_size+0xcea34e8>
     92c:	00001349 	0x1349
     930:	0b002404 	j	c009010 <__memory_size+0xbfe9810>
     934:	030b3e0b 	0x30b3e0b
     938:	05000008 	bltz	t0,95c <__isr_vec_space+0x93c>
     93c:	193f012e 	0x193f012e
     940:	0b3a0e03 	j	ce8380c <__memory_size+0xce6400c>
     944:	19270b3b 	0x19270b3b
     948:	06120111 	bltzall	s0,d90 <__isr_vec_space+0xd70>
     94c:	42971840 	c0	0x971840
     950:	00130119 	0x130119
     954:	00050600 	sll	zero,a1,0x18
     958:	0b3a0e03 	j	ce8380c <__memory_size+0xce6400c>
     95c:	13490b3b 	beq	k0,t1,364c <__isr_vec_space+0x362c>
     960:	00001702 	srl	v0,zero,0x1c
     964:	03003407 	0x3003407
     968:	3b0b3a0e 	xori	t3,t8,0x3a0e
     96c:	0213490b 	0x213490b
     970:	08000018 	j	60 <__isr_vec_space+0x40>
     974:	08030034 	j	c00d0 <__memory_size+0xa08d0>
     978:	0b3b0b3a 	j	cec2ce8 <__memory_size+0xcea34e8>
     97c:	18021349 	0x18021349
     980:	89090000 	lwl	t1,0(t0)
     984:	11010182 	beq	t0,at,f90 <__isr_vec_space+0xf70>
     988:	01133101 	0x1133101
     98c:	0a000013 	j	800004c <__memory_size+0x7fe084c>
     990:	0001828a 	0x1828a
     994:	42911802 	c0	0x911802
     998:	0b000018 	j	c000060 <__memory_size+0xbfe0860>
     99c:	00018289 	0x18289
     9a0:	13310111 	beq	t9,s1,de8 <__isr_vec_space+0xdc8>
     9a4:	010c0000 	0x10c0000
     9a8:	01134901 	0x1134901
     9ac:	0d000013 	jal	400004c <__memory_size+0x3fe084c>
     9b0:	00000021 	move	zero,zero
     9b4:	0300340e 	0x300340e
     9b8:	3b0b3a0e 	xori	t3,t8,0x3a0e
     9bc:	3f13490b 	0x3f13490b
     9c0:	00193c19 	0x193c19
     9c4:	012e0f00 	0x12e0f00
     9c8:	0e03193f 	jal	80c64fc <__memory_size+0x80a6cfc>
     9cc:	0b3b0b3a 	j	cec2ce8 <__memory_size+0xcea34e8>
     9d0:	193c1927 	0x193c1927
     9d4:	00001301 	0x1301
     9d8:	49000510 	bc2f	1e1c <__isr_vec_space+0x1dfc>
     9dc:	11000013 	beqz	t0,a2c <__isr_vec_space+0xa0c>
     9e0:	193f002e 	0x193f002e
     9e4:	0b3a0e03 	j	ce8380c <__memory_size+0xce6400c>
     9e8:	19270b3b 	0x19270b3b
     9ec:	193c1349 	0x193c1349
     9f0:	01000000 	0x1000000
     9f4:	06100011 	bltzal	s0,a3c <__isr_vec_space+0xa1c>
     9f8:	01120111 	0x1120111
     9fc:	081b0803 	j	6c200c <__memory_size+0x6a280c>
     a00:	05130825 	bgezall	t0,2a98 <__isr_vec_space+0x2a78>
     a04:	01000000 	0x1000000
     a08:	0e250111 	jal	8940444 <__memory_size+0x8920c44>
     a0c:	0e030b13 	jal	80c2c4c <__memory_size+0x80a344c>
     a10:	06120111 	bltzall	s0,e58 <__isr_vec_space+0xe38>
     a14:	00001710 	0x1710
     a18:	0b002402 	j	c009008 <__memory_size+0xbfe9808>
     a1c:	030b3e0b 	0x30b3e0b
     a20:	0300000e 	0x300000e
     a24:	0e030016 	jal	80c0058 <__memory_size+0x80a0858>
     a28:	0b3b0b3a 	j	cec2ce8 <__memory_size+0xcea34e8>
     a2c:	00001349 	0x1349
     a30:	0b002404 	j	c009010 <__memory_size+0xbfe9810>
     a34:	030b3e0b 	0x30b3e0b
     a38:	05000008 	bltz	t0,a5c <__isr_vec_space+0xa3c>
     a3c:	0b0b000f 	j	c2c003c <__memory_size+0xc2a083c>
     a40:	2e060000 	sltiu	a2,s0,0
     a44:	03193f01 	0x3193f01
     a48:	3b0b3a0e 	xori	t3,t8,0x3a0e
     a4c:	1119270b 	beq	t0,t9,a67c <__isr_vec_space+0xa65c>
     a50:	40061201 	0x40061201
     a54:	19429718 	0x19429718
     a58:	00001301 	0x1301
     a5c:	03000507 	0x3000507
     a60:	3b0b3a0e 	xori	t3,t8,0x3a0e
     a64:	0213490b 	0x213490b
     a68:	08000017 	j	5c <__isr_vec_space+0x3c>
     a6c:	08030034 	j	c00d0 <__memory_size+0xa08d0>
     a70:	0b3b0b3a 	j	cec2ce8 <__memory_size+0xcea34e8>
     a74:	18021349 	0x18021349
     a78:	34090000 	li	t1,0x0
     a7c:	3a0e0300 	xori	t6,s0,0x300
     a80:	490b3b0b 	bc2tl	$cc2,f6b0 <__isr_vec_space+0xf690>
     a84:	00180213 	0x180213
     a88:	000f0a00 	sll	at,t7,0x8
     a8c:	13490b0b 	beq	k0,t1,36bc <__isr_vec_space+0x369c>
     a90:	010b0000 	0x10b0000
     a94:	01134901 	0x1134901
     a98:	0c000013 	jal	4c <__isr_vec_space+0x2c>
     a9c:	00000021 	move	zero,zero
     aa0:	0300340d 	break	0x300,0xd0
     aa4:	3b0b3a0e 	xori	t3,t8,0x3a0e
     aa8:	3f13490b 	0x3f13490b
     aac:	00193c19 	0x193c19
     ab0:	11010000 	beq	t0,at,ab4 <__isr_vec_space+0xa94>
     ab4:	55061000 	bnel	t0,a2,4ab8 <__isr_vec_space+0x4a98>
     ab8:	1b080306 	0x1b080306
     abc:	13082508 	beq	t8,t0,9ee0 <__isr_vec_space+0x9ec0>
     ac0:	00000005 	lsa	zero,zero,zero,0x1
     ac4:	25011101 	addiu	at,t0,4353
     ac8:	030b130e 	0x30b130e
     acc:	1201110e 	beq	s0,at,4f08 <__isr_vec_space+0x4ee8>
     ad0:	00171006 	srlv	v0,s7,zero
     ad4:	00160200 	sll	zero,s6,0x8
     ad8:	0b3a0e03 	j	ce8380c <__memory_size+0xce6400c>
     adc:	13490b3b 	beq	k0,t1,37cc <__isr_vec_space+0x37ac>
     ae0:	24030000 	li	v1,0
     ae4:	3e0b0b00 	0x3e0b0b00
     ae8:	000e030b 	0xe030b
     aec:	00240400 	0x240400
     af0:	0b3e0b0b 	j	cf82c2c <__memory_size+0xcf6342c>
     af4:	00000803 	sra	at,zero,0x0
     af8:	0b000f05 	j	c003c14 <__memory_size+0xbfe4414>
     afc:	0013490b 	0x13490b
     b00:	00260600 	0x260600
     b04:	00001349 	0x1349
     b08:	00002607 	0x2607
     b0c:	00160800 	sll	at,s6,0x0
     b10:	0b3a0e03 	j	ce8380c <__memory_size+0xce6400c>
     b14:	1349053b 	beq	k0,t1,2004 <__isr_vec_space+0x1fe4>
     b18:	13090000 	beq	t8,t1,b1c <__isr_vec_space+0xafc>
     b1c:	3a0b0b01 	xori	t3,s0,0xb01
     b20:	010b3b0b 	0x10b3b0b
     b24:	0a000013 	j	800004c <__memory_size+0x7fe084c>
     b28:	0803000d 	j	c0034 <__memory_size+0xa0834>
     b2c:	0b3b0b3a 	j	cec2ce8 <__memory_size+0xcea34e8>
     b30:	0b381349 	j	ce04d24 <__memory_size+0xcde5524>
     b34:	010b0000 	0x10b0000
     b38:	01134901 	0x1134901
     b3c:	0c000013 	jal	4c <__isr_vec_space+0x2c>
     b40:	13490021 	beq	k0,t1,bc8 <__isr_vec_space+0xba8>
     b44:	00000b2f 	0xb2f
     b48:	0b01170d 	j	c045c34 <__memory_size+0xc026434>
     b4c:	3b0b3a0b 	xori	t3,t8,0x3a0b
     b50:	0013010b 	0x13010b
     b54:	000d0e00 	sll	at,t5,0x18
     b58:	00001349 	0x1349
     b5c:	03000d0f 	0x3000d0f
     b60:	3b0b3a08 	xori	t3,t8,0x3a08
     b64:	0013490b 	0x13490b
     b68:	01131000 	0x1131000
     b6c:	0b0b0e03 	j	c2c380c <__memory_size+0xc2a400c>
     b70:	0b3b0b3a 	j	cec2ce8 <__memory_size+0xcea34e8>
     b74:	00001301 	0x1301
     b78:	49000d11 	bc2f	3fc0 <__isr_vec_space+0x3fa0>
     b7c:	000b3813 	0xb3813
     b80:	000d1200 	sll	v0,t5,0x8
     b84:	0b3a0803 	j	ce8200c <__memory_size+0xce6280c>
     b88:	1349053b 	beq	k0,t1,2078 <__isr_vec_space+0x2058>
     b8c:	00000b38 	0xb38
     b90:	03000d13 	0x3000d13
     b94:	3b0b3a0e 	xori	t3,t8,0x3a0e
     b98:	38134905 	xori	s3,zero,0x4905
     b9c:	1400000b 	bnez	zero,bcc <__isr_vec_space+0xbac>
     ba0:	0e030113 	jal	80c044c <__memory_size+0x80a0c4c>
     ba4:	0b3a0b0b 	j	ce82c2c <__memory_size+0xce6342c>
     ba8:	1301053b 	beq	t8,at,2098 <__isr_vec_space+0x2078>
     bac:	2e150000 	sltiu	s5,s0,0
     bb0:	3a0e0301 	xori	t6,s0,0x301
     bb4:	270b3b0b 	addiu	t3,t8,15115
     bb8:	010b2019 	0x10b2019
     bbc:	16000013 	bnez	s0,c0c <__isr_vec_space+0xbec>
     bc0:	08030005 	j	c0014 <__memory_size+0xa0814>
     bc4:	0b3b0b3a 	j	cec2ce8 <__memory_size+0xcea34e8>
     bc8:	00001349 	0x1349
     bcc:	03000517 	0x3000517
     bd0:	3b0b3a0e 	xori	t3,t8,0x3a0e
     bd4:	0013490b 	0x13490b
     bd8:	00341800 	0x341800
     bdc:	0b3a0803 	j	ce8200c <__memory_size+0xce6280c>
     be0:	13490b3b 	beq	k0,t1,38d0 <__isr_vec_space+0x38b0>
     be4:	34190000 	li	t9,0x0
     be8:	3a0e0300 	xori	t6,s0,0x300
     bec:	490b3b0b 	bc2tl	$cc2,f81c <__isr_vec_space+0xf7fc>
     bf0:	1a000013 	blez	s0,c40 <__isr_vec_space+0xc20>
     bf4:	13490021 	beq	k0,t1,c7c <__isr_vec_space+0xc5c>
     bf8:	2e1b0000 	sltiu	k1,s0,0
     bfc:	11133101 	beq	t0,s3,d004 <__isr_vec_space+0xcfe4>
     c00:	40061201 	0x40061201
     c04:	19429718 	0x19429718
     c08:	00001301 	0x1301
     c0c:	3100051c 	andi	zero,t0,0x51c
     c10:	00170213 	0x170213
     c14:	00341d00 	0x341d00
     c18:	13491331 	beq	k0,t1,58e0 <__isr_vec_space+0x58c0>
     c1c:	00001702 	srl	v0,zero,0x1c
     c20:	3100341e 	andi	zero,t0,0x341e
     c24:	00170213 	0x170213
     c28:	00051f00 	sll	v1,a1,0x1c
     c2c:	0b1c1331 	j	c704cc4 <__memory_size+0xc6e54c4>
     c30:	89200000 	lwl	zero,0(t1)
     c34:	11010182 	beq	t0,at,1240 <__isr_vec_space+0x1220>
     c38:	01133101 	0x1133101
     c3c:	21000013 	addi	zero,t0,19
     c40:	0001828a 	0x1828a
     c44:	42911802 	c0	0x911802
     c48:	22000018 	addi	zero,s0,24
     c4c:	01018289 	0x1018289
     c50:	13310111 	beq	t9,s1,1098 <__isr_vec_space+0x1078>
     c54:	21230000 	addi	v1,t1,0
     c58:	2f134900 	sltiu	s3,t8,18688
     c5c:	24000018 	li	zero,24
     c60:	0e03012e 	jal	80c04b8 <__memory_size+0x80a0cb8>
     c64:	0b3b0b3a 	j	cec2ce8 <__memory_size+0xcea34e8>
     c68:	01111927 	0x1111927
     c6c:	18400612 	blez	v0,24b8 <__isr_vec_space+0x2498>
     c70:	01194297 	0x1194297
     c74:	25000013 	addiu	zero,t0,19
     c78:	08030005 	j	c0014 <__memory_size+0xa0814>
     c7c:	0b3b0b3a 	j	cec2ce8 <__memory_size+0xcea34e8>
     c80:	17021349 	bne	t8,v0,59a8 <__isr_vec_space+0x5988>
     c84:	05260000 	0x5260000
     c88:	3a0e0300 	xori	t6,s0,0x300
     c8c:	490b3b0b 	bc2tl	$cc2,f8bc <__isr_vec_space+0xf89c>
     c90:	00170213 	0x170213
     c94:	82892700 	lb	t1,9984(s4)
     c98:	01110101 	0x1110101
     c9c:	31194295 	andi	t9,t0,0x4295
     ca0:	28000013 	slti	zero,zero,19
     ca4:	193f012e 	0x193f012e
     ca8:	0b3a0e03 	j	ce8380c <__memory_size+0xce6400c>
     cac:	19270b3b 	0x19270b3b
     cb0:	06120111 	bltzall	s0,10f8 <__isr_vec_space+0x10d8>
     cb4:	42971840 	c0	0x971840
     cb8:	00130119 	0x130119
     cbc:	010b2900 	0x10b2900
     cc0:	06120111 	bltzall	s0,1108 <__isr_vec_space+0x10e8>
     cc4:	00001301 	0x1301
     cc8:	0300342a 	0x300342a
     ccc:	3b0b3a08 	xori	t3,t8,0x3a08
     cd0:	0213490b 	0x213490b
     cd4:	2b000017 	slti	zero,t8,23
     cd8:	0111010b 	0x111010b
     cdc:	00000612 	0x612
     ce0:	0182892c 	0x182892c
     ce4:	31011100 	andi	at,t0,0x1100
     ce8:	2d000013 	sltiu	zero,t0,19
     cec:	00000021 	move	zero,zero
     cf0:	0300342e 	0x300342e
     cf4:	3b0b3a0e 	xori	t3,t8,0x3a0e
     cf8:	3f13490b 	0x3f13490b
     cfc:	00193c19 	0x193c19
     d00:	012e2f00 	0x12e2f00
     d04:	0e03193f 	jal	80c64fc <__memory_size+0x80a6cfc>
     d08:	0b3b0b3a 	j	cec2ce8 <__memory_size+0xcea34e8>
     d0c:	13491927 	beq	k0,t1,71ac <__isr_vec_space+0x718c>
     d10:	1301193c 	beq	t8,at,7204 <__isr_vec_space+0x71e4>
     d14:	05300000 	bltzal	t1,d18 <__isr_vec_space+0xcf8>
     d18:	00134900 	sll	t1,s3,0x4
     d1c:	012e3100 	0x12e3100
     d20:	0e03193f 	jal	80c64fc <__memory_size+0x80a6cfc>
     d24:	053b0b3a 	0x53b0b3a
     d28:	13491927 	beq	k0,t1,71c8 <__isr_vec_space+0x71a8>
     d2c:	1301193c 	beq	t8,at,7220 <__isr_vec_space+0x7200>
     d30:	2e320000 	sltiu	s2,s1,0
     d34:	03193f00 	0x3193f00
     d38:	3b0b3a0e 	xori	t3,t8,0x3a0e
     d3c:	49192705 	bc2t	$cc6,a954 <__isr_vec_space+0xa934>
     d40:	00193c13 	0x193c13
     d44:	012e3300 	0x12e3300
     d48:	0e03193f 	jal	80c64fc <__memory_size+0x80a6cfc>
     d4c:	053b0b3a 	0x53b0b3a
     d50:	13491927 	beq	k0,t1,71f0 <__isr_vec_space+0x71d0>
     d54:	0000193c 	0x193c
     d58:	00110100 	sll	zero,s1,0x4
     d5c:	01110610 	0x1110610
     d60:	08030112 	j	c0448 <__memory_size+0xa0c48>
     d64:	0825081b 	j	94206c <__memory_size+0x92286c>
     d68:	00000513 	0x513
     d6c:	00110100 	sll	zero,s1,0x4
     d70:	01110610 	0x1110610
     d74:	08030112 	j	c0448 <__memory_size+0xa0c48>
     d78:	0825081b 	j	94206c <__memory_size+0x92286c>
     d7c:	00000513 	0x513
     d80:	00110100 	sll	zero,s1,0x4
     d84:	01110610 	0x1110610
     d88:	08030112 	j	c0448 <__memory_size+0xa0c48>
     d8c:	0825081b 	j	94206c <__memory_size+0x92286c>
     d90:	00000513 	0x513
     d94:	01110100 	0x1110100
     d98:	0b130e25 	j	c4c3894 <__memory_size+0xc4a4094>
     d9c:	17100e03 	bne	t8,s0,45ac <__isr_vec_space+0x458c>
     da0:	24020000 	li	v0,0
     da4:	3e0b0b00 	0x3e0b0b00
     da8:	000e030b 	0xe030b
     dac:	00240300 	0x240300
     db0:	0b3e0b0b 	j	cf82c2c <__memory_size+0xcf6342c>
     db4:	00000803 	sra	at,zero,0x0
     db8:	01110100 	0x1110100
     dbc:	0b130e25 	j	c4c3894 <__memory_size+0xc4a4094>
     dc0:	01110e03 	0x1110e03
     dc4:	17100612 	bne	t8,s0,2610 <__isr_vec_space+0x25f0>
     dc8:	24020000 	li	v0,0
     dcc:	3e0b0b00 	0x3e0b0b00
     dd0:	000e030b 	0xe030b
     dd4:	00160300 	sll	zero,s6,0xc
     dd8:	0b3a0e03 	j	ce8380c <__memory_size+0xce6400c>
     ddc:	13490b3b 	beq	k0,t1,3acc <__isr_vec_space+0x3aac>
     de0:	24040000 	li	a0,0
     de4:	3e0b0b00 	0x3e0b0b00
     de8:	0008030b 	0x8030b
     dec:	012e0500 	0x12e0500
     df0:	0e03193f 	jal	80c64fc <__memory_size+0x80a6cfc>
     df4:	0b3b0b3a 	j	cec2ce8 <__memory_size+0xcea34e8>
     df8:	13491927 	beq	k0,t1,7298 <__isr_vec_space+0x7278>
     dfc:	06120111 	bltzall	s0,1244 <__isr_vec_space+0x1224>
     e00:	42971840 	c0	0x971840
     e04:	00130119 	0x130119
     e08:	00050600 	sll	zero,a1,0x18
     e0c:	0b3a0803 	j	ce8200c <__memory_size+0xce6280c>
     e10:	13490b3b 	beq	k0,t1,3b00 <__isr_vec_space+0x3ae0>
     e14:	00001702 	srl	v0,zero,0x1c
     e18:	03000507 	0x3000507
     e1c:	3b0b3a0e 	xori	t3,t8,0x3a0e
     e20:	0213490b 	0x213490b
     e24:	08000017 	j	5c <__isr_vec_space+0x3c>
     e28:	0e030034 	jal	80c00d0 <__memory_size+0x80a08d0>
     e2c:	0b3b0b3a 	j	cec2ce8 <__memory_size+0xcea34e8>
     e30:	18021349 	0x18021349
     e34:	34090000 	li	t1,0x0
     e38:	3a080300 	xori	t0,s0,0x300
     e3c:	490b3b0b 	bc2tl	$cc2,fa6c <__isr_vec_space+0xfa4c>
     e40:	00180213 	0x180213
     e44:	010b0a00 	0x10b0a00
     e48:	06120111 	bltzall	s0,1290 <__isr_vec_space+0x1270>
     e4c:	890b0000 	lwl	t3,0(t0)
     e50:	11000182 	beqz	t0,145c <__isr_vec_space+0x143c>
     e54:	00133101 	0x133101
     e58:	000f0c00 	sll	at,t7,0x10
     e5c:	13490b0b 	beq	k0,t1,3a8c <__isr_vec_space+0x3a6c>
     e60:	260d0000 	addiu	t5,s0,0
     e64:	0e000000 	jal	8000000 <__memory_size+0x7fe0800>
     e68:	13490035 	beq	k0,t1,f40 <__isr_vec_space+0xf20>
     e6c:	2e0f0000 	sltiu	t7,s0,0
     e70:	03193f00 	0x3193f00
     e74:	3b0b3a0e 	xori	t3,t8,0x3a0e
     e78:	4919270b 	bc2t	$cc6,aaa8 <__isr_vec_space+0xaa88>
     e7c:	00193c13 	0x193c13
     e80:	11010000 	beq	t0,at,e84 <__isr_vec_space+0xe64>
     e84:	130e2501 	beq	t8,t6,a28c <__isr_vec_space+0xa26c>
     e88:	110e030b 	beq	t0,t6,1ab8 <__isr_vec_space+0x1a98>
     e8c:	10061201 	beq	zero,a2,5694 <__isr_vec_space+0x5674>
     e90:	02000017 	0x2000017
     e94:	0b0b0024 	j	c2c0090 <__memory_size+0xc2a0890>
     e98:	0e030b3e 	jal	80c2cf8 <__memory_size+0x80a34f8>
     e9c:	16030000 	bne	s0,v1,ea0 <__isr_vec_space+0xe80>
     ea0:	3a0e0300 	xori	t6,s0,0x300
     ea4:	490b3b0b 	bc2tl	$cc2,fad4 <__isr_vec_space+0xfab4>
     ea8:	04000013 	bltz	zero,ef8 <__isr_vec_space+0xed8>
     eac:	0b0b0024 	j	c2c0090 <__memory_size+0xc2a0890>
     eb0:	08030b3e 	j	c2cf8 <__memory_size+0xa34f8>
     eb4:	16050000 	bne	s0,a1,eb8 <__isr_vec_space+0xe98>
     eb8:	3a0e0300 	xori	t6,s0,0x300
     ebc:	49053b0b 	bc2t	$cc1,faec <__isr_vec_space+0xfacc>
     ec0:	06000013 	bltz	s0,f10 <__isr_vec_space+0xef0>
     ec4:	0b0b0113 	j	c2c044c <__memory_size+0xc2a0c4c>
     ec8:	0b3b0b3a 	j	cec2ce8 <__memory_size+0xcea34e8>
     ecc:	00001301 	0x1301
     ed0:	03000d07 	0x3000d07
     ed4:	3b0b3a08 	xori	t3,t8,0x3a08
     ed8:	3813490b 	xori	s3,zero,0x490b
     edc:	0800000b 	j	2c <__isr_vec_space+0xc>
     ee0:	13490101 	beq	k0,t1,12e8 <__isr_vec_space+0x12c8>
     ee4:	00001301 	0x1301
     ee8:	49002109 	bc2f	9310 <__isr_vec_space+0x92f0>
     eec:	000b2f13 	0xb2f13
     ef0:	01170a00 	0x1170a00
     ef4:	0b3a0b0b 	j	ce82c2c <__memory_size+0xce6342c>
     ef8:	13010b3b 	beq	t8,at,3be8 <__isr_vec_space+0x3bc8>
     efc:	0d0b0000 	jal	42c0000 <__memory_size+0x42a0800>
     f00:	00134900 	sll	t1,s3,0x4
     f04:	000d0c00 	sll	at,t5,0x10
     f08:	0b3a0803 	j	ce8200c <__memory_size+0xce6280c>
     f0c:	13490b3b 	beq	k0,t1,3bfc <__isr_vec_space+0x3bdc>
     f10:	130d0000 	beq	t8,t5,f14 <__isr_vec_space+0xef4>
     f14:	0b0e0301 	j	c380c04 <__memory_size+0xc361404>
     f18:	3b0b3a0b 	xori	t3,t8,0x3a0b
     f1c:	0013010b 	0x13010b
     f20:	000d0e00 	sll	at,t5,0x18
     f24:	0b381349 	j	ce04d24 <__memory_size+0xcde5524>
     f28:	0d0f0000 	jal	43c0000 <__memory_size+0x43a0800>
     f2c:	3a080300 	xori	t0,s0,0x300
     f30:	49053b0b 	bc2t	$cc1,fb60 <__isr_vec_space+0xfb40>
     f34:	000b3813 	0xb3813
     f38:	000d1000 	sll	v0,t5,0x0
     f3c:	0b3a0e03 	j	ce8380c <__memory_size+0xce6400c>
     f40:	1349053b 	beq	k0,t1,2430 <__isr_vec_space+0x2410>
     f44:	00000b38 	0xb38
     f48:	03011311 	0x3011311
     f4c:	3a0b0b0e 	xori	t3,s0,0xb0e
     f50:	01053b0b 	0x1053b0b
     f54:	12000013 	beqz	s0,fa4 <__isr_vec_space+0xf84>
     f58:	0b0b000f 	j	c2c003c <__memory_size+0xc2a083c>
     f5c:	00001349 	0x1349
     f60:	3f012e13 	0x3f012e13
     f64:	3a0e0319 	xori	t6,s0,0x319
     f68:	270b3b0b 	addiu	t3,t8,15115
     f6c:	11134919 	beq	t0,s3,133d4 <__isr_vec_space+0x133b4>
     f70:	40061201 	0x40061201
     f74:	19429718 	0x19429718
     f78:	00001301 	0x1301
     f7c:	03000514 	0x3000514
     f80:	3b0b3a08 	xori	t3,t8,0x3a08
     f84:	0213490b 	0x213490b
     f88:	15000018 	bnez	t0,fec <__isr_vec_space+0xfcc>
     f8c:	0e030034 	jal	80c00d0 <__memory_size+0x80a08d0>
     f90:	0b3b0b3a 	j	cec2ce8 <__memory_size+0xcea34e8>
     f94:	18021349 	0x18021349
     f98:	34160000 	li	s6,0x0
     f9c:	3a080300 	xori	t0,s0,0x300
     fa0:	490b3b0b 	bc2tl	$cc2,fbd0 <__isr_vec_space+0xfbb0>
     fa4:	00180213 	0x180213
     fa8:	11010000 	beq	t0,at,fac <__isr_vec_space+0xf8c>
     fac:	130e2501 	beq	t8,t6,a3b4 <__isr_vec_space+0xa394>
     fb0:	110e030b 	beq	t0,t6,1be0 <__isr_vec_space+0x1bc0>
     fb4:	10061201 	beq	zero,a2,57bc <__isr_vec_space+0x579c>
     fb8:	02000017 	0x2000017
     fbc:	0b0b0024 	j	c2c0090 <__memory_size+0xc2a0890>
     fc0:	0e030b3e 	jal	80c2cf8 <__memory_size+0x80a34f8>
     fc4:	16030000 	bne	s0,v1,fc8 <__isr_vec_space+0xfa8>
     fc8:	3a0e0300 	xori	t6,s0,0x300
     fcc:	49053b0b 	bc2t	$cc1,fbfc <__isr_vec_space+0xfbdc>
     fd0:	04000013 	bltz	zero,1020 <__isr_vec_space+0x1000>
     fd4:	0b0b0024 	j	c2c0090 <__memory_size+0xc2a0890>
     fd8:	08030b3e 	j	c2cf8 <__memory_size+0xa34f8>
     fdc:	16050000 	bne	s0,a1,fe0 <__isr_vec_space+0xfc0>
     fe0:	3a0e0300 	xori	t6,s0,0x300
     fe4:	490b3b0b 	bc2tl	$cc2,fc14 <__isr_vec_space+0xfbf4>
     fe8:	06000013 	bltz	s0,1038 <__isr_vec_space+0x1018>
     fec:	0b0b0113 	j	c2c044c <__memory_size+0xc2a0c4c>
     ff0:	0b3b0b3a 	j	cec2ce8 <__memory_size+0xcea34e8>
     ff4:	00001301 	0x1301
     ff8:	03000d07 	0x3000d07
     ffc:	3b0b3a08 	xori	t3,t8,0x3a08
    1000:	3813490b 	xori	s3,zero,0x490b
    1004:	0800000b 	j	2c <__isr_vec_space+0xc>
    1008:	13490101 	beq	k0,t1,1410 <__isr_vec_space+0x13f0>
    100c:	00001301 	0x1301
    1010:	49002109 	bc2f	9438 <__isr_vec_space+0x9418>
    1014:	000b2f13 	0xb2f13
    1018:	01170a00 	0x1170a00
    101c:	0b3a0b0b 	j	ce82c2c <__memory_size+0xce6342c>
    1020:	13010b3b 	beq	t8,at,3d10 <__isr_vec_space+0x3cf0>
    1024:	0d0b0000 	jal	42c0000 <__memory_size+0x42a0800>
    1028:	00134900 	sll	t1,s3,0x4
    102c:	000d0c00 	sll	at,t5,0x10
    1030:	0b3a0803 	j	ce8200c <__memory_size+0xce6280c>
    1034:	13490b3b 	beq	k0,t1,3d24 <__isr_vec_space+0x3d04>
    1038:	130d0000 	beq	t8,t5,103c <__isr_vec_space+0x101c>
    103c:	0b0e0301 	j	c380c04 <__memory_size+0xc361404>
    1040:	3b0b3a0b 	xori	t3,t8,0x3a0b
    1044:	0013010b 	0x13010b
    1048:	000d0e00 	sll	at,t5,0x18
    104c:	0b381349 	j	ce04d24 <__memory_size+0xcde5524>
    1050:	0d0f0000 	jal	43c0000 <__memory_size+0x43a0800>
    1054:	3a080300 	xori	t0,s0,0x300
    1058:	49053b0b 	bc2t	$cc1,fc88 <__isr_vec_space+0xfc68>
    105c:	000b3813 	0xb3813
    1060:	000d1000 	sll	v0,t5,0x0
    1064:	0b3a0e03 	j	ce8380c <__memory_size+0xce6400c>
    1068:	1349053b 	beq	k0,t1,2558 <__isr_vec_space+0x2538>
    106c:	00000b38 	0xb38
    1070:	03011311 	0x3011311
    1074:	3a0b0b0e 	xori	t3,s0,0xb0e
    1078:	01053b0b 	0x1053b0b
    107c:	12000013 	beqz	s0,10cc <__isr_vec_space+0x10ac>
    1080:	0b0b000f 	j	c2c003c <__memory_size+0xc2a083c>
    1084:	00001349 	0x1349
    1088:	3f012e13 	0x3f012e13
    108c:	3a0e0319 	xori	t6,s0,0x319
    1090:	270b3b0b 	addiu	t3,t8,15115
    1094:	11134919 	beq	t0,s3,134fc <__isr_vec_space+0x134dc>
    1098:	40061201 	0x40061201
    109c:	19429718 	0x19429718
    10a0:	00001301 	0x1301
    10a4:	03000514 	0x3000514
    10a8:	3b0b3a08 	xori	t3,t8,0x3a08
    10ac:	0213490b 	0x213490b
    10b0:	15000017 	bnez	t0,1110 <__isr_vec_space+0x10f0>
    10b4:	0e030034 	jal	80c00d0 <__memory_size+0x80a08d0>
    10b8:	0b3b0b3a 	j	cec2ce8 <__memory_size+0xcea34e8>
    10bc:	18021349 	0x18021349
    10c0:	34160000 	li	s6,0x0
    10c4:	3a080300 	xori	t0,s0,0x300
    10c8:	490b3b0b 	bc2tl	$cc2,fcf8 <__isr_vec_space+0xfcd8>
    10cc:	00180213 	0x180213
    10d0:	11010000 	beq	t0,at,10d4 <__isr_vec_space+0x10b4>
    10d4:	130e2501 	beq	t8,t6,a4dc <__isr_vec_space+0xa4bc>
    10d8:	110e030b 	beq	t0,t6,1d08 <__isr_vec_space+0x1ce8>
    10dc:	10061201 	beq	zero,a2,58e4 <__isr_vec_space+0x58c4>
    10e0:	02000017 	0x2000017
    10e4:	0b0b0024 	j	c2c0090 <__memory_size+0xc2a0890>
    10e8:	08030b3e 	j	c2cf8 <__memory_size+0xa34f8>
    10ec:	24030000 	li	v1,0
    10f0:	3e0b0b00 	0x3e0b0b00
    10f4:	000e030b 	0xe030b
    10f8:	00160400 	sll	zero,s6,0x10
    10fc:	0b3a0e03 	j	ce8380c <__memory_size+0xce6400c>
    1100:	13490b3b 	beq	k0,t1,3df0 <__isr_vec_space+0x3dd0>
    1104:	16050000 	bne	s0,a1,1108 <__isr_vec_space+0x10e8>
    1108:	3a0e0300 	xori	t6,s0,0x300
    110c:	49053b0b 	bc2t	$cc1,fd3c <__isr_vec_space+0xfd1c>
    1110:	06000013 	bltz	s0,1160 <__isr_vec_space+0x1140>
    1114:	0b0b0117 	j	c2c045c <__memory_size+0xc2a0c5c>
    1118:	0b3b0b3a 	j	cec2ce8 <__memory_size+0xcea34e8>
    111c:	00001301 	0x1301
    1120:	03000d07 	0x3000d07
    1124:	3b0b3a0e 	xori	t3,t8,0x3a0e
    1128:	0013490b 	0x13490b
    112c:	01010800 	0x1010800
    1130:	13011349 	beq	t8,at,5e58 <__isr_vec_space+0x5e38>
    1134:	21090000 	addi	t1,t0,0
    1138:	2f134900 	sltiu	s3,t8,18688
    113c:	0a00000b 	j	800002c <__memory_size+0x7fe082c>
    1140:	0b0b0113 	j	c2c044c <__memory_size+0xc2a0c4c>
    1144:	0b3b0b3a 	j	cec2ce8 <__memory_size+0xcea34e8>
    1148:	00001301 	0x1301
    114c:	03000d0b 	0x3000d0b
    1150:	3b0b3a0e 	xori	t3,t8,0x3a0e
    1154:	3813490b 	xori	s3,zero,0x490b
    1158:	0c00000b 	jal	2c <__isr_vec_space+0xc>
    115c:	0b0b000f 	j	c2c003c <__memory_size+0xc2a083c>
    1160:	130d0000 	beq	t8,t5,1164 <__isr_vec_space+0x1144>
    1164:	0b0e0301 	j	c380c04 <__memory_size+0xc361404>
    1168:	3b0b3a0b 	xori	t3,t8,0x3a0b
    116c:	0013010b 	0x13010b
    1170:	000d0e00 	sll	at,t5,0x18
    1174:	0b3a0803 	j	ce8200c <__memory_size+0xce6280c>
    1178:	13490b3b 	beq	k0,t1,3e68 <__isr_vec_space+0x3e48>
    117c:	00000b38 	0xb38
    1180:	0b000f0f 	j	c003c3c <__memory_size+0xbfe443c>
    1184:	0013490b 	0x13490b
    1188:	01131000 	0x1131000
    118c:	050b0e03 	tltiu	t0,3587
    1190:	0b3b0b3a 	j	cec2ce8 <__memory_size+0xcea34e8>
    1194:	00001301 	0x1301
    1198:	03000d11 	0x3000d11
    119c:	3b0b3a0e 	xori	t3,t8,0x3a0e
    11a0:	3813490b 	xori	s3,zero,0x490b
    11a4:	12000005 	beqz	s0,11bc <__isr_vec_space+0x119c>
    11a8:	19270015 	0x19270015
    11ac:	15130000 	bne	t0,s3,11b0 <__isr_vec_space+0x1190>
    11b0:	49192701 	bc2t	$cc6,adb8 <__isr_vec_space+0xad98>
    11b4:	00130113 	0x130113
    11b8:	00051400 	sll	v0,a1,0x10
    11bc:	00001349 	0x1349
    11c0:	03011315 	0x3011315
    11c4:	3a050b0e 	xori	a1,s0,0xb0e
    11c8:	01053b0b 	0x1053b0b
    11cc:	16000013 	bnez	s0,121c <__isr_vec_space+0x11fc>
    11d0:	0e03000d 	jal	80c0034 <__memory_size+0x80a0834>
    11d4:	053b0b3a 	0x53b0b3a
    11d8:	0b381349 	j	ce04d24 <__memory_size+0xcde5524>
    11dc:	0d170000 	jal	45c0000 <__memory_size+0x45a0800>
    11e0:	3a0e0300 	xori	t6,s0,0x300
    11e4:	49053b0b 	bc2t	$cc1,fe14 <__isr_vec_space+0xfdf4>
    11e8:	00053813 	0x53813
    11ec:	00261800 	0x261800
    11f0:	00001349 	0x1349
    11f4:	03011319 	0x3011319
    11f8:	3a0b0b0e 	xori	t3,s0,0xb0e
    11fc:	01053b0b 	0x1053b0b
    1200:	1a000013 	blez	s0,1250 <__isr_vec_space+0x1230>
    1204:	0b0b0113 	j	c2c044c <__memory_size+0xc2a0c4c>
    1208:	053b0b3a 	0x53b0b3a
    120c:	00001301 	0x1301
    1210:	0b01171b 	j	c045c6c <__memory_size+0xc02646c>
    1214:	3b0b3a0b 	xori	t3,t8,0x3a0b
    1218:	00130105 	0x130105
    121c:	000d1c00 	sll	v1,t5,0x10
    1220:	0b3a0e03 	j	ce8380c <__memory_size+0xce6400c>
    1224:	1349053b 	beq	k0,t1,2714 <__isr_vec_space+0x26f4>
    1228:	151d0000 	bne	t0,sp,122c <__isr_vec_space+0x120c>
    122c:	01192701 	0x1192701
    1230:	1e000013 	bgtz	s0,1280 <__isr_vec_space+0x1260>
    1234:	193f002e 	0x193f002e
    1238:	0b3a0e03 	j	ce8380c <__memory_size+0xce6400c>
    123c:	19270b3b 	0x19270b3b
    1240:	01111349 	0x1111349
    1244:	18400612 	blez	v0,2a90 <__isr_vec_space+0x2a70>
    1248:	00194297 	0x194297
    124c:	00341f00 	0x341f00
    1250:	0b3a0e03 	j	ce8380c <__memory_size+0xce6400c>
    1254:	1349053b 	beq	k0,t1,2744 <__isr_vec_space+0x2724>
    1258:	193c193f 	0x193c193f
    125c:	Address 0x000000000000125c is out of bounds.


Disassembly of section .debug_line:

00000000 <.debug_line>:
       0:	000000da 	0xda
       4:	00440002 	0x440002
       8:	01010000 	0x1010000
       c:	000d0efb 	0xd0efb
      10:	01010101 	0x1010101
      14:	01000000 	0x1000000
      18:	2f010000 	sltiu	at,t8,0
      1c:	72657375 	q16slr	xr13,xr12,xr5,xr9,9
      20:	70696d2f 	0x70696d2f
      24:	74777373 	jalx	1ddcdcc <__memory_size+0x1dbd5cc>
      28:	7469672f 	jalx	1a59cbc <__memory_size+0x1a3a4bc>
      2c:	77656e2f 	jalx	d95b8bc <__memory_size+0xd93c0bc>
      30:	2f62696c 	sltiu	v0,k1,26988
      34:	6762696c 	0x6762696c
      38:	73736f6c 	s16ldi	xr13,k1,438,ptn2
      3c:	70696d2f 	0x70696d2f
      40:	63000073 	0x63000073
      44:	2e307472 	sltiu	s0,s1,29810
      48:	00010053 	0x10053
      4c:	05000000 	bltz	t0,50 <__isr_vec_space+0x30>
      50:	00032002 	srl	a0,v1,0x0
      54:	00d10380 	0xd10380
      58:	4a210301 	c2	0x210301
      5c:	194b4b83 	0x194b4b83
      60:	834b83bb 	lb	t3,-31813(k0)
      64:	504b4b85 	beql	v0,t3,12e7c <__isr_vec_space+0x12e5c>
      68:	854e8383 	lh	t6,-31869(t2)
      6c:	83134b4b 	lb	s3,19275(t8)
      70:	83134c4b 	lb	s3,19531(t8)
      74:	134b4b4d 	beq	k0,t3,12dac <__isr_vec_space+0x12d8c>
      78:	4b4b4d83 	c2	0x14b4d83
      7c:	4b4d8313 	c2	0x14d8313
      80:	4d83134b 	0x4d83134b
      84:	83134b4b 	lb	s3,19275(t8)
      88:	88144d4b 	lwl	s4,19787(zero)
      8c:	834d4b51 	lb	t5,19281(k0)
      90:	84bb5083 	lh	k1,20611(a1)
      94:	bb4a0b03 	swr	t2,2819(k0)
      98:	134b8483 	beq	k0,t3,fffe12a8 <__entry+0x403e12a8>
      9c:	84848385 	lh	a0,-31867(a0)
      a0:	83854b4b 	lb	a1,19275(gp)
      a4:	034b4f4b 	0x34b4f4b
      a8:	83bb010f 	lb	k1,271(sp)
      ac:	84838384 	lh	v1,-31868(a0)
      b0:	820a0383 	lb	t2,899(s0)
      b4:	4b4b8385 	c2	0x14b8385
      b8:	8583834e 	lh	v1,-31922(t4)
      bc:	864b8584 	lh	t3,-31356(s2)
      c0:	85838383 	lh	v1,-31869(t4)
      c4:	4b4b4b4b 	c2	0x14b4b4b
      c8:	0313854d 	break	0x313,0x215
      cc:	03838219 	0x3838219
      d0:	83834a11 	lb	v1,18961(gp)
      d4:	85158386 	lh	s5,-31866(t0)
      d8:	0008024b 	0x8024b
      dc:	01200101 	0x1200101
      e0:	00020000 	sll	zero,v0,0x0
      e4:	0000004a 	0x4a
      e8:	0efb0101 	jal	bec0404 <__memory_size+0xbea0c04>
      ec:	0101000d 	break	0x101
      f0:	00000101 	0x101
      f4:	00000100 	sll	zero,zero,0x4
      f8:	6f620001 	0x6f620001
      fc:	532e746f 	beql	t9,t6,1d2bc <__isr_vec_space+0x1d29c>
     100:	00000000 	nop
     104:	74696e69 	jalx	1a5b9a4 <__memory_size+0x1a3c1a4>
     108:	6361635f 	0x6361635f
     10c:	2e736568 	sltiu	s3,s3,25960
     110:	00000053 	mtlhx	zero
     114:	696e6900 	0x696e6900
     118:	70635f74 	q16sll	xr13,xr7,xr13,xr8,1
     11c:	00532e30 	tge	v0,s3,0xb8
     120:	69000000 	0x69000000
     124:	5f74696e 	0x5f74696e
     128:	2e626c74 	sltiu	v0,s3,27764
     12c:	00000053 	mtlhx	zero
     130:	05000000 	bltz	t0,134 <__isr_vec_space+0x114>
     134:	c0000002 	ll	zero,2(zero)
     138:	00c0039f 	0xc0039f
     13c:	4b4b8301 	c2	0x14b8301
     140:	4b4a0903 	c2	0x14a0903
     144:	504b4b4b 	beql	v0,t3,12e74 <__isr_vec_space+0x12e54>
     148:	834e4b83 	lb	t6,19331(k0)
     14c:	4b834e4b 	c2	0x1834e4b
     150:	4b4b834f 	c2	0x14b834f
     154:	4b834e4b 	c2	0x1834e4b
     158:	834b834e 	lb	t3,-31922(k0)
     15c:	4b504e4b 	c2	0x1504e4b
     160:	b8030204 	swr	v1,516(zero)
     164:	4d4d4a7f 	0x4d4d4a7f
     168:	4c4b4c4b 	0x4c4b4c4b
     16c:	4b4d4b4b 	c2	0x14d4b4b
     170:	4b4d4c4c 	c2	0x14d4c4c
     174:	4b4b4f4c 	c2	0x14b4f4c
     178:	034b4e4b 	0x34b4e4b
     17c:	4d4d4a09 	0x4d4d4a09
     180:	4c4b4c4b 	0x4c4b4c4b
     184:	4b4d4b4b 	c2	0x14d4b4b
     188:	4b4d4c4c 	c2	0x14d4c4c
     18c:	504c4b4b 	beql	v0,t4,12ebc <__isr_vec_space+0x12e9c>
     190:	4d4b4c4b 	0x4d4b4c4b
     194:	4b4b504b 	c2	0x14b504b
     198:	044b4b4b 	tltiu	v0,19275
     19c:	026e0301 	0x26e0301
     1a0:	4b01018c 	c2	0x101018c
     1a4:	4b157c02 	c2	0x1157c02
     1a8:	a0030304 	sb	v1,772(zero)
     1ac:	4d834a7f 	0x4d834a7f
     1b0:	4d4b4b4b 	0x4d4b4b4b
     1b4:	4c4b4c4b 	0x4c4b4c4b
     1b8:	4c4b4c4b 	0x4c4b4c4b
     1bc:	4c4b4c4b 	0x4c4b4c4b
     1c0:	4f4b4c4b 	c3	0x14b4c4b
     1c4:	044b4c4d 	tltiu	v0,19533
     1c8:	f23a0301 	0xf23a0301
     1cc:	0304044b 	0x304044b
     1d0:	4b4a7f9b 	c2	0x14a7f9b
     1d4:	4b4b4b4b 	c2	0x14b4b4b
     1d8:	4b4b4b4e 	c2	0x14b4b4e
     1dc:	4b4d4b4b 	c2	0x14d4b4b
     1e0:	4c4b4b4b 	0x4c4b4b4b
     1e4:	044b4d4b 	tltiu	v0,19787
     1e8:	00d00301 	0xd00301
     1ec:	4b012802 	c2	0x1012802
     1f0:	024b4b4b 	0x24b4b4b
     1f4:	4b1801f0 	c2	0x11801f0
     1f8:	4b4b4b4b 	c2	0x14b4b4b
     1fc:	0004024b 	0x4024b
     200:	00720101 	0x720101
     204:	00020000 	sll	zero,v0,0x0
     208:	0000001d 	0x1d
     20c:	0efb0101 	jal	bec0404 <__memory_size+0xbea0c04>
     210:	0101000d 	break	0x101
     214:	00000101 	0x101
     218:	00000100 	sll	zero,zero,0x4
     21c:	616d0001 	0x616d0001
     220:	632e6e69 	0x632e6e69
     224:	00000000 	nop
     228:	02050000 	0x2050000
     22c:	8000075c 	lb	zero,1884(zero)
     230:	1a010c03 	0x1a010c03
     234:	4c4c4bbc 	0x4c4c4bbc
     238:	01040200 	0x1040200
     23c:	004a7903 	0x4a7903
     240:	4b010402 	c2	0x1010402
     244:	01040200 	0x1040200
     248:	0402004b 	bltzl	zero,378 <__isr_vec_space+0x358>
     24c:	02004b01 	0x2004b01
     250:	00bb0104 	0xbb0104
     254:	83010402 	lb	at,1026(t8)
     258:	01040200 	0x1040200
     25c:	0402004b 	bltzl	zero,38c <__isr_vec_space+0x36c>
     260:	02004b01 	0x2004b01
     264:	004b0104 	0x4b0104
     268:	83010402 	lb	at,1026(t8)
     26c:	02001586 	0x2001586
     270:	02bb0104 	0x2bb0104
     274:	01010008 	0x1010008
     278:	000000a9 	0xa9
     27c:	00900002 	0x900002
     280:	01010000 	0x1010000
     284:	000d0efb 	0xd0efb
     288:	01010101 	0x1010101
     28c:	01000000 	0x1000000
     290:	2f010000 	sltiu	at,t8,0
     294:	72657375 	q16slr	xr13,xr12,xr5,xr9,9
     298:	70696d2f 	0x70696d2f
     29c:	74777373 	jalx	1ddcdcc <__memory_size+0x1dbd5cc>
     2a0:	7469672f 	jalx	1a59cbc <__memory_size+0x1a3a4bc>
     2a4:	77656e2f 	jalx	d95b8bc <__memory_size+0xd93c0bc>
     2a8:	2f62696c 	sltiu	v0,k1,26988
     2ac:	6c77656e 	0x6c77656e
     2b0:	6c2f6269 	0x6c2f6269
     2b4:	2f636269 	sltiu	v1,k1,25193
     2b8:	6c647473 	0x6c647473
     2bc:	2f006269 	sltiu	zero,t8,25193
     2c0:	72657375 	q16slr	xr13,xr12,xr5,xr9,9
     2c4:	70696d2f 	0x70696d2f
     2c8:	74777373 	jalx	1ddcdcc <__memory_size+0x1dbd5cc>
     2cc:	7469672f 	jalx	1a59cbc <__memory_size+0x1a3a4bc>
     2d0:	77656e2f 	jalx	d95b8bc <__memory_size+0xd93c0bc>
     2d4:	2f62696c 	sltiu	v0,k1,26988
     2d8:	6c77656e 	0x6c77656e
     2dc:	6c2f6269 	0x6c2f6269
     2e0:	2f636269 	sltiu	v1,k1,25193
     2e4:	6c636e69 	0x6c636e69
     2e8:	00656475 	0x656475
     2ec:	65746100 	0x65746100
     2f0:	2e746978 	sltiu	s4,s3,27000
     2f4:	00010063 	0x10063
     2f8:	65746100 	0x65746100
     2fc:	2e746978 	sltiu	s4,s3,27000
     300:	00010068 	0x10068
     304:	64747300 	0x64747300
     308:	2e62696c 	sltiu	v0,s3,26988
     30c:	00020068 	0x20068
     310:	05000000 	bltz	t0,314 <__isr_vec_space+0x2f4>
     314:	00081002 	srl	v0,t0,0x0
     318:	013f0380 	0x13f0380
     31c:	bb4b4983 	swr	t3,18819(k0)
     320:	01000c02 	0x1000c02
     324:	00016d01 	0x16d01
     328:	4f000200 	lwxc1	$f8,zero(t8)
     32c:	01000001 	movf	zero,t0,$fcc0
     330:	0d0efb01 	jal	43bec04 <__memory_size+0x439f404>
     334:	01010100 	0x1010100
     338:	00000001 	movf	zero,zero,$fcc0
     33c:	01000001 	movf	zero,t0,$fcc0
     340:	6573752f 	0x6573752f
     344:	696d2f72 	0x696d2f72
     348:	77737370 	jalx	dcdcdc0 <__memory_size+0xdcbd5c0>
     34c:	69672f74 	0x69672f74
     350:	656e2f74 	0x656e2f74
     354:	62696c77 	0x62696c77
     358:	77656e2f 	jalx	d95b8bc <__memory_size+0xd93c0bc>
     35c:	2f62696c 	sltiu	v0,k1,26988
     360:	6362696c 	0x6362696c
     364:	6474732f 	0x6474732f
     368:	0062696c 	0x62696c
     36c:	6573752f 	0x6573752f
     370:	696d2f72 	0x696d2f72
     374:	77737370 	jalx	dcdcdc0 <__memory_size+0xdcbd5c0>
     378:	69672f74 	0x69672f74
     37c:	656e2f74 	0x656e2f74
     380:	62696c77 	0x62696c77
     384:	77656e2f 	jalx	d95b8bc <__memory_size+0xd93c0bc>
     388:	2f62696c 	sltiu	v0,k1,26988
     38c:	6362696c 	0x6362696c
     390:	636e692f 	0x636e692f
     394:	6564756c 	0x6564756c
     398:	7379732f 	0x7379732f
     39c:	73752f00 	0x73752f00
     3a0:	6d2f7265 	0x6d2f7265
     3a4:	73737069 	0x73737069
     3a8:	622f7477 	0x622f7477
     3ac:	646c6975 	0x646c6975
     3b0:	3130322d 	andi	s0,t1,0x322d
     3b4:	36302e35 	ori	s0,s1,0x2e35
     3b8:	2f35302d 	sltiu	s5,t9,12333
     3bc:	74736e69 	jalx	1cdb9a4 <__memory_size+0x1cbc1a4>
     3c0:	2d6c6c61 	sltiu	t4,t3,27745
     3c4:	7370696d 	s16sdi	xr5,k1,52,
     3c8:	69746d2d 	0x69746d2d
     3cc:	666c652d 	0x666c652d
     3d0:	62696c2f 	0x62696c2f
     3d4:	6363672f 	0x6363672f
     3d8:	70696d2f 	0x70696d2f
     3dc:	746d2d73 	jalx	1b4b5cc <__memory_size+0x1b2bdcc>
     3e0:	6c652d69 	0x6c652d69
     3e4:	2e342f66 	sltiu	s4,s1,12134
     3e8:	2f322e39 	sltiu	s2,t9,11833
     3ec:	6c636e69 	0x6c636e69
     3f0:	00656475 	0x656475
     3f4:	6573752f 	0x6573752f
     3f8:	696d2f72 	0x696d2f72
     3fc:	77737370 	jalx	dcdcdc0 <__memory_size+0xdcbd5c0>
     400:	69672f74 	0x69672f74
     404:	656e2f74 	0x656e2f74
     408:	62696c77 	0x62696c77
     40c:	77656e2f 	jalx	d95b8bc <__memory_size+0xd93c0bc>
     410:	2f62696c 	sltiu	v0,k1,26988
     414:	6362696c 	0x6362696c
     418:	636e692f 	0x636e692f
     41c:	6564756c 	0x6564756c
     420:	78650000 	andi.b	$w0,$w0,0x65
     424:	632e7469 	0x632e7469
     428:	00000100 	sll	zero,zero,0x4
     42c:	6b636f6c 	0x6b636f6c
     430:	0200682e 	0x200682e
     434:	745f0000 	jalx	17c0000 <__memory_size+0x17a0800>
     438:	73657079 	0x73657079
     43c:	0200682e 	0x200682e
     440:	74730000 	jalx	1cc0000 <__memory_size+0x1ca0800>
     444:	66656464 	0x66656464
     448:	0300682e 	0x300682e
     44c:	65720000 	0x65720000
     450:	2e746e65 	sltiu	s4,s3,28261
     454:	00020068 	0x20068
     458:	64747300 	0x64747300
     45c:	2e62696c 	sltiu	v0,s3,26988
     460:	00040068 	0x40068
     464:	65746100 	0x65746100
     468:	2e746978 	sltiu	s4,s3,27000
     46c:	00010068 	0x10068
     470:	696e7500 	0x696e7500
     474:	2e647473 	sltiu	a0,s3,29811
     478:	00020068 	0x20068
     47c:	05000000 	bltz	t0,480 <__isr_vec_space+0x460>
     480:	00083802 	srl	a3,t0,0x0
     484:	013b0380 	0x13b0380
     488:	4a7a0350 	c2	0x7a0350
     48c:	3d088488 	0x3d088488
     490:	00080283 	sra	zero,t0,0xa
     494:	01050101 	0x1050101
     498:	00020000 	sll	zero,v0,0x0
     49c:	000000ff 	0xff
     4a0:	0efb0101 	jal	bec0404 <__memory_size+0xbea0c04>
     4a4:	0101000d 	break	0x101
     4a8:	00000101 	0x101
     4ac:	00000100 	sll	zero,zero,0x4
     4b0:	73752f01 	0x73752f01
     4b4:	6d2f7265 	0x6d2f7265
     4b8:	73737069 	0x73737069
     4bc:	672f7477 	0x672f7477
     4c0:	6e2f7469 	0x6e2f7469
     4c4:	696c7765 	0x696c7765
     4c8:	656e2f62 	0x656e2f62
     4cc:	62696c77 	0x62696c77
     4d0:	62696c2f 	0x62696c2f
     4d4:	6e692f63 	0x6e692f63
     4d8:	64756c63 	0x64756c63
     4dc:	79732f65 	st.h	$w29,742(a1)
     4e0:	752f0073 	jalx	4bc01cc <__memory_size+0x4ba09cc>
     4e4:	2f726573 	sltiu	s2,k1,25971
     4e8:	7370696d 	s16sdi	xr5,k1,52,
     4ec:	2f747773 	sltiu	s4,k1,30579
     4f0:	6c697562 	0x6c697562
     4f4:	30322d64 	andi	s2,at,0x2d64
     4f8:	302e3531 	andi	t6,at,0x3531
     4fc:	35302d36 	ori	s0,t1,0x2d36
     500:	736e692f 	0x736e692f
     504:	6c6c6174 	0x6c6c6174
     508:	70696d2d 	s16sdi	xr4,v1,182,ptn1
     50c:	746d2d73 	jalx	1b4b5cc <__memory_size+0x1b2bdcc>
     510:	6c652d69 	0x6c652d69
     514:	696c2f66 	0x696c2f66
     518:	63672f62 	0x63672f62
     51c:	696d2f63 	0x696d2f63
     520:	6d2d7370 	0x6d2d7370
     524:	652d6974 	0x652d6974
     528:	342f666c 	ori	t7,at,0x666c
     52c:	322e392e 	andi	t6,s1,0x392e
     530:	636e692f 	0x636e692f
     534:	6564756c 	0x6564756c
     538:	73752f00 	0x73752f00
     53c:	6d2f7265 	0x6d2f7265
     540:	73737069 	0x73737069
     544:	672f7477 	0x672f7477
     548:	6e2f7469 	0x6e2f7469
     54c:	696c7765 	0x696c7765
     550:	656e2f62 	0x656e2f62
     554:	62696c77 	0x62696c77
     558:	62696c2f 	0x62696c2f
     55c:	65722f63 	0x65722f63
     560:	00746e65 	0x746e65
     564:	636f6c00 	0x636f6c00
     568:	00682e6b 	0x682e6b
     56c:	5f000001 	bgtzl	t8,574 <__isr_vec_space+0x554>
     570:	65707974 	0x65707974
     574:	00682e73 	tltu	v1,t0,0xb9
     578:	73000001 	maddu	t8,zero
     57c:	65646474 	0x65646474
     580:	00682e66 	0x682e66
     584:	72000002 	mul	zero,s0,zero
     588:	746e6565 	jalx	1b99594 <__memory_size+0x1b79d94>
     58c:	0100682e 	0x100682e
     590:	6d690000 	0x6d690000
     594:	65727570 	0x65727570
     598:	0300632e 	0x300632e
     59c:	80000000 	lb	zero,0(zero)
     5a0:	02000001 	movf	zero,s0,$fcc0
     5a4:	00014700 	sll	t0,at,0x1c
     5a8:	fb010100 	sdc2	$1,256(t8)
     5ac:	01000d0e 	0x1000d0e
     5b0:	00010101 	0x10101
     5b4:	00010000 	sll	zero,at,0x0
     5b8:	752f0100 	jalx	4bc0400 <__memory_size+0x4ba0c00>
     5bc:	2f726573 	sltiu	s2,k1,25971
     5c0:	7370696d 	s16sdi	xr5,k1,52,
     5c4:	2f747773 	sltiu	s4,k1,30579
     5c8:	2f746967 	sltiu	s4,k1,26983
     5cc:	6c77656e 	0x6c77656e
     5d0:	6e2f6269 	0x6e2f6269
     5d4:	696c7765 	0x696c7765
     5d8:	696c2f62 	0x696c2f62
     5dc:	732f6362 	s8ldd	xr13,t9,-40,ptn3
     5e0:	696c6474 	0x696c6474
     5e4:	752f0062 	jalx	4bc0188 <__memory_size+0x4ba0988>
     5e8:	2f726573 	sltiu	s2,k1,25971
     5ec:	7370696d 	s16sdi	xr5,k1,52,
     5f0:	2f747773 	sltiu	s4,k1,30579
     5f4:	6c697562 	0x6c697562
     5f8:	30322d64 	andi	s2,at,0x2d64
     5fc:	302e3531 	andi	t6,at,0x3531
     600:	35302d36 	ori	s0,t1,0x2d36
     604:	736e692f 	0x736e692f
     608:	6c6c6174 	0x6c6c6174
     60c:	70696d2d 	s16sdi	xr4,v1,182,ptn1
     610:	746d2d73 	jalx	1b4b5cc <__memory_size+0x1b2bdcc>
     614:	6c652d69 	0x6c652d69
     618:	696c2f66 	0x696c2f66
     61c:	63672f62 	0x63672f62
     620:	696d2f63 	0x696d2f63
     624:	6d2d7370 	0x6d2d7370
     628:	652d6974 	0x652d6974
     62c:	342f666c 	ori	t7,at,0x666c
     630:	322e392e 	andi	t6,s1,0x392e
     634:	636e692f 	0x636e692f
     638:	6564756c 	0x6564756c
     63c:	73752f00 	0x73752f00
     640:	6d2f7265 	0x6d2f7265
     644:	73737069 	0x73737069
     648:	672f7477 	0x672f7477
     64c:	6e2f7469 	0x6e2f7469
     650:	696c7765 	0x696c7765
     654:	656e2f62 	0x656e2f62
     658:	62696c77 	0x62696c77
     65c:	62696c2f 	0x62696c2f
     660:	6e692f63 	0x6e692f63
     664:	64756c63 	0x64756c63
     668:	79732f65 	st.h	$w29,742(a1)
     66c:	752f0073 	jalx	4bc01cc <__memory_size+0x4ba09cc>
     670:	2f726573 	sltiu	s2,k1,25971
     674:	7370696d 	s16sdi	xr5,k1,52,
     678:	2f747773 	sltiu	s4,k1,30579
     67c:	2f746967 	sltiu	s4,k1,26983
     680:	6c77656e 	0x6c77656e
     684:	6e2f6269 	0x6e2f6269
     688:	696c7765 	0x696c7765
     68c:	696c2f62 	0x696c2f62
     690:	692f6362 	0x692f6362
     694:	756c636e 	jalx	5b18db8 <__memory_size+0x5af95b8>
     698:	00006564 	0x6564
     69c:	74615f5f 	jalx	1857d7c <__memory_size+0x183857c>
     6a0:	74697865 	jalx	1a5e194 <__memory_size+0x1a3e994>
     6a4:	0100632e 	0x100632e
     6a8:	74730000 	jalx	1cc0000 <__memory_size+0x1ca0800>
     6ac:	66656464 	0x66656464
     6b0:	0200682e 	0x200682e
     6b4:	6f6c0000 	0x6f6c0000
     6b8:	682e6b63 	0x682e6b63
     6bc:	00000300 	sll	zero,zero,0xc
     6c0:	7079745f 	udi15	v1,t9,t6,0x11
     6c4:	682e7365 	0x682e7365
     6c8:	00000300 	sll	zero,zero,0xc
     6cc:	6e656572 	0x6e656572
     6d0:	00682e74 	teq	v1,t0,0xb9
     6d4:	61000003 	0x61000003
     6d8:	69786574 	0x69786574
     6dc:	00682e74 	teq	v1,t0,0xb9
     6e0:	73000001 	maddu	t8,zero
     6e4:	696c6474 	0x696c6474
     6e8:	00682e62 	0x682e62
     6ec:	00000004 	sllv	zero,zero,zero
     6f0:	74020500 	jalx	81400 <__memory_size+0x61c00>
     6f4:	03800008 	jr	gp
     6f8:	1a0100c7 	0x1a0100c7
     6fc:	8a4a7803 	lwl	t2,30723(s2)
     700:	084a7803 	j	129e00c <__memory_size+0x127e80c>
     704:	83834bec 	lb	v1,19436(gp)
     708:	8a83f5f9 	lwl	v1,-2567(s4)
     70c:	4c4b4b49 	0x4c4b4b49
     710:	1803514b 	0x1803514b
     714:	484db9ba 	0x484db9ba
     718:	08bc83bc 	j	2f20ef0 <__memory_size+0x2f016f0>
     71c:	20024b78 	addi	v0,zero,19320
     720:	bb010100 	swr	at,256(t8)
     724:	02000001 	movf	zero,s0,$fcc0
     728:	00014000 	sll	t0,at,0x0
     72c:	fb010100 	sdc2	$1,256(t8)
     730:	01000d0e 	0x1000d0e
     734:	00010101 	0x10101
     738:	00010000 	sll	zero,at,0x0
     73c:	752f0100 	jalx	4bc0400 <__memory_size+0x4ba0c00>
     740:	2f726573 	sltiu	s2,k1,25971
     744:	7370696d 	s16sdi	xr5,k1,52,
     748:	2f747773 	sltiu	s4,k1,30579
     74c:	2f746967 	sltiu	s4,k1,26983
     750:	6c77656e 	0x6c77656e
     754:	6e2f6269 	0x6e2f6269
     758:	696c7765 	0x696c7765
     75c:	696c2f62 	0x696c2f62
     760:	732f6362 	s8ldd	xr13,t9,-40,ptn3
     764:	696c6474 	0x696c6474
     768:	752f0062 	jalx	4bc0188 <__memory_size+0x4ba0988>
     76c:	2f726573 	sltiu	s2,k1,25971
     770:	7370696d 	s16sdi	xr5,k1,52,
     774:	2f747773 	sltiu	s4,k1,30579
     778:	2f746967 	sltiu	s4,k1,26983
     77c:	6c77656e 	0x6c77656e
     780:	6e2f6269 	0x6e2f6269
     784:	696c7765 	0x696c7765
     788:	696c2f62 	0x696c2f62
     78c:	692f6362 	0x692f6362
     790:	756c636e 	jalx	5b18db8 <__memory_size+0x5af95b8>
     794:	732f6564 	s8ldi	xr5,t9,-39,ptn3
     798:	2f007379 	sltiu	zero,t8,29561
     79c:	72657375 	q16slr	xr13,xr12,xr5,xr9,9
     7a0:	70696d2f 	0x70696d2f
     7a4:	74777373 	jalx	1ddcdcc <__memory_size+0x1dbd5cc>
     7a8:	6975622f 	0x6975622f
     7ac:	322d646c 	andi	t5,s1,0x646c
     7b0:	2e353130 	sltiu	s5,s1,12592
     7b4:	302d3630 	andi	t5,at,0x3630
     7b8:	6e692f35 	0x6e692f35
     7bc:	6c617473 	0x6c617473
     7c0:	696d2d6c 	0x696d2d6c
     7c4:	6d2d7370 	0x6d2d7370
     7c8:	652d6974 	0x652d6974
     7cc:	6c2f666c 	0x6c2f666c
     7d0:	672f6269 	0x672f6269
     7d4:	6d2f6363 	0x6d2f6363
     7d8:	2d737069 	sltiu	s3,t3,28777
     7dc:	2d69746d 	sltiu	t1,t3,29805
     7e0:	2f666c65 	sltiu	a2,k1,27749
     7e4:	2e392e34 	sltiu	t9,s1,11828
     7e8:	6e692f32 	0x6e692f32
     7ec:	64756c63 	0x64756c63
     7f0:	752f0065 	jalx	4bc0194 <__memory_size+0x4ba0994>
     7f4:	2f726573 	sltiu	s2,k1,25971
     7f8:	7370696d 	s16sdi	xr5,k1,52,
     7fc:	2f747773 	sltiu	s4,k1,30579
     800:	2f746967 	sltiu	s4,k1,26983
     804:	6c77656e 	0x6c77656e
     808:	6e2f6269 	0x6e2f6269
     80c:	696c7765 	0x696c7765
     810:	696c2f62 	0x696c2f62
     814:	692f6362 	0x692f6362
     818:	756c636e 	jalx	5b18db8 <__memory_size+0x5af95b8>
     81c:	00006564 	0x6564
     820:	61635f5f 	0x61635f5f
     824:	615f6c6c 	0x615f6c6c
     828:	69786574 	0x69786574
     82c:	00632e74 	teq	v1,v1,0xb9
     830:	6c000001 	0x6c000001
     834:	2e6b636f 	sltiu	t3,s3,25455
     838:	00020068 	0x20068
     83c:	79745f00 	ori.b	$w28,$w11,0x74
     840:	2e736570 	sltiu	s3,s3,25968
     844:	00020068 	0x20068
     848:	64747300 	0x64747300
     84c:	2e666564 	sltiu	a2,s3,25956
     850:	00030068 	0x30068
     854:	65657200 	0x65657200
     858:	682e746e 	0x682e746e
     85c:	00000200 	sll	zero,zero,0x8
     860:	6c647473 	0x6c647473
     864:	682e6269 	0x682e6269
     868:	00000400 	sll	zero,zero,0x10
     86c:	02050000 	0x2050000
     870:	8000097c 	lb	zero,2428(zero)
     874:	0100c303 	0x100c303
     878:	03010f03 	0x3010f03
     87c:	0f034a71 	jal	c0d29c4 <__memory_size+0xc0b31c4>
     880:	4a71034a 	c2	0x71034a
     884:	4a00c403 	c2	0xc403
     888:	4a7fbc03 	c2	0x7fbc03
     88c:	034a1c03 	0x34a1c03
     890:	bc034a28 	cache	0x3,18984(zero)
     894:	0f034a7f 	jal	c0d29fc <__memory_size+0xc0b31fc>
     898:	83012802 	lb	at,10242(t8)
     89c:	00894c49 	0x894c49
     8a0:	06010402 	bgez	s0,18ac <__isr_vec_space+0x188c>
     8a4:	008906f2 	tlt	a0,t1,0x1b
     8a8:	06020402 	bltzl	s0,18b4 <__isr_vec_space+0x1894>
     8ac:	08c00682 	j	3001a08 <__memory_size+0x2fe2208>
     8b0:	f3884d77 	0xf3884d77
     8b4:	00820903 	0x820903
     8b8:	06010402 	bgez	s0,18c4 <__isr_vec_space+0x18a4>
     8bc:	040200ba 	bltzl	zero,ba8 <__isr_vec_space+0xb88>
     8c0:	5d030602 	0x5d030602
     8c4:	ba2c03ba 	swr	t4,954(s1)
     8c8:	04020087 	bltzl	zero,ae8 <__isr_vec_space+0xac8>
     8cc:	06ba0601 	0x6ba0601
     8d0:	4b86838a 	c2	0x186838a
     8d4:	f3825c03 	0xf3825c03
     8d8:	240387f4 	li	v1,-30732
     8dc:	002c0282 	ror	zero,t4,0xa
     8e0:	010d0101 	0x10d0101
     8e4:	00020000 	sll	zero,v0,0x0
     8e8:	000000ca 	0xca
     8ec:	0efb0101 	jal	bec0404 <__memory_size+0xbea0c04>
     8f0:	0101000d 	break	0x101
     8f4:	00000101 	0x101
     8f8:	00000100 	sll	zero,zero,0x4
     8fc:	73752f01 	0x73752f01
     900:	6d2f7265 	0x6d2f7265
     904:	73737069 	0x73737069
     908:	672f7477 	0x672f7477
     90c:	6e2f7469 	0x6e2f7469
     910:	696c7765 	0x696c7765
     914:	696c2f62 	0x696c2f62
     918:	6f6c6762 	0x6f6c6762
     91c:	6d2f7373 	0x6d2f7373
     920:	00737069 	0x737069
     924:	6573752f 	0x6573752f
     928:	696d2f72 	0x696d2f72
     92c:	77737370 	jalx	dcdcdc0 <__memory_size+0xdcbd5c0>
     930:	69672f74 	0x69672f74
     934:	656e2f74 	0x656e2f74
     938:	62696c77 	0x62696c77
     93c:	77656e2f 	jalx	d95b8bc <__memory_size+0xd93c0bc>
     940:	2f62696c 	sltiu	v0,k1,26988
     944:	6362696c 	0x6362696c
     948:	636e692f 	0x636e692f
     94c:	6564756c 	0x6564756c
     950:	63616d2f 	0x63616d2f
     954:	656e6968 	0x656e6968
     958:	73752f00 	0x73752f00
     95c:	6d2f7265 	0x6d2f7265
     960:	73737069 	0x73737069
     964:	672f7477 	0x672f7477
     968:	6e2f7469 	0x6e2f7469
     96c:	696c7765 	0x696c7765
     970:	656e2f62 	0x656e2f62
     974:	62696c77 	0x62696c77
     978:	62696c2f 	0x62696c2f
     97c:	6e692f63 	0x6e692f63
     980:	64756c63 	0x64756c63
     984:	75000065 	jalx	4000194 <__memory_size+0x3fe0994>
     988:	655f6968 	0x655f6968
     98c:	2e746978 	sltiu	s4,s3,27000
     990:	00010063 	0x10063
     994:	65645f00 	0x65645f00
     998:	6c756166 	0x6c756166
     99c:	79745f74 	0x79745f74
     9a0:	2e736570 	sltiu	s3,s3,25968
     9a4:	00020068 	0x20068
     9a8:	64747300 	0x64747300
     9ac:	2e746e69 	sltiu	s4,s3,28265
     9b0:	00030068 	0x30068
     9b4:	05000000 	bltz	t0,9b8 <__isr_vec_space+0x998>
     9b8:	000afc02 	srl	ra,t2,0x10
     9bc:	013c0380 	0x13c0380
     9c0:	03821603 	0x3821603
     9c4:	14034a6a 	bne	zero,v1,13370 <__isr_vec_space+0x13350>
     9c8:	4a6c034a 	c2	0x6c034a
     9cc:	4c4a1203 	0x4c4a1203
     9d0:	034a6c03 	0x34a6c03
     9d4:	6e034a12 	0x6e034a12
     9d8:	4a16034a 	c2	0x16034a
     9dc:	4b4a6a03 	c2	0x14a6a03
     9e0:	034c4b4b 	0x34c4b4b
     9e4:	83be4a0d 	lb	s8,18957(sp)
     9e8:	0383837e 	0x383837e
     9ec:	0802f26d 	j	bc9b4 <__memory_size+0x9d1b4>
     9f0:	87010100 	lh	at,256(t8)
     9f4:	02000000 	0x2000000
     9f8:	00004b00 	sll	t1,zero,0xc
     9fc:	fb010100 	sdc2	$1,256(t8)
     a00:	01000d0e 	0x1000d0e
     a04:	00010101 	0x10101
     a08:	00010000 	sll	zero,at,0x0
     a0c:	752f0100 	jalx	4bc0400 <__memory_size+0x4ba0c00>
     a10:	2f726573 	sltiu	s2,k1,25971
     a14:	7370696d 	s16sdi	xr5,k1,52,
     a18:	2f747773 	sltiu	s4,k1,30579
     a1c:	2f746967 	sltiu	s4,k1,26983
     a20:	6c77656e 	0x6c77656e
     a24:	6c2f6269 	0x6c2f6269
     a28:	6c676269 	0x6c676269
     a2c:	2f73736f 	sltiu	s3,k1,29551
     a30:	7370696d 	s16sdi	xr5,k1,52,
     a34:	68750000 	0x68750000
     a38:	65675f69 	0x65675f69
     a3c:	67726174 	0x67726174
     a40:	00532e73 	tltu	v0,s3,0xb9
     a44:	00000001 	movf	zero,zero,$fcc0
     a48:	84020500 	lh	v0,1280(zero)
     a4c:	0380000b 	movn	zero,gp,zero
     a50:	4c4b012a 	0x4c4b012a
     a54:	844d4c4b 	lh	t5,19531(v0)
     a58:	834b4b4b 	lb	t3,19275(k0)
     a5c:	4b4e4b4b 	c2	0x14e4b4b
     a60:	844c4c4b 	lh	t4,19531(v0)
     a64:	4b834b4b 	c2	0x1834b4b
     a68:	4b4c4b4b 	c2	0x14c4b4b
     a6c:	4c4c4b4b 	0x4c4c4b4b
     a70:	854b4b84 	lh	t3,19332(t2)
     a74:	4b4b4e4b 	c2	0x14b4e4b
     a78:	00080214 	0x80214
     a7c:	00f40101 	0xf40101
     a80:	00020000 	sll	zero,v0,0x0
     a84:	000000d3 	0xd3
     a88:	0efb0101 	jal	bec0404 <__memory_size+0xbea0c04>
     a8c:	0101000d 	break	0x101
     a90:	00000101 	0x101
     a94:	00000100 	sll	zero,zero,0x4
     a98:	73752f01 	0x73752f01
     a9c:	6d2f7265 	0x6d2f7265
     aa0:	73737069 	0x73737069
     aa4:	672f7477 	0x672f7477
     aa8:	6e2f7469 	0x6e2f7469
     aac:	696c7765 	0x696c7765
     ab0:	696c2f62 	0x696c2f62
     ab4:	6f6c6762 	0x6f6c6762
     ab8:	6d2f7373 	0x6d2f7373
     abc:	00737069 	0x737069
     ac0:	6573752f 	0x6573752f
     ac4:	696d2f72 	0x696d2f72
     ac8:	77737370 	jalx	dcdcdc0 <__memory_size+0xdcbd5c0>
     acc:	69672f74 	0x69672f74
     ad0:	656e2f74 	0x656e2f74
     ad4:	62696c77 	0x62696c77
     ad8:	77656e2f 	jalx	d95b8bc <__memory_size+0xd93c0bc>
     adc:	2f62696c 	sltiu	v0,k1,26988
     ae0:	6362696c 	0x6362696c
     ae4:	636e692f 	0x636e692f
     ae8:	6564756c 	0x6564756c
     aec:	63616d2f 	0x63616d2f
     af0:	656e6968 	0x656e6968
     af4:	73752f00 	0x73752f00
     af8:	6d2f7265 	0x6d2f7265
     afc:	73737069 	0x73737069
     b00:	672f7477 	0x672f7477
     b04:	6e2f7469 	0x6e2f7469
     b08:	696c7765 	0x696c7765
     b0c:	656e2f62 	0x656e2f62
     b10:	62696c77 	0x62696c77
     b14:	62696c2f 	0x62696c2f
     b18:	6e692f63 	0x6e692f63
     b1c:	64756c63 	0x64756c63
     b20:	75000065 	jalx	4000194 <__memory_size+0x3fe0994>
     b24:	675f6968 	0x675f6968
     b28:	725f7465 	s8sdi	xr1,s2,-35,
     b2c:	725f6d61 	0x725f6d61
     b30:	65676e61 	0x65676e61
     b34:	0100632e 	0x100632e
     b38:	645f0000 	0x645f0000
     b3c:	75616665 	jalx	5859994 <__memory_size+0x583a194>
     b40:	745f746c 	jalx	17dd1b0 <__memory_size+0x17bd9b0>
     b44:	73657079 	0x73657079
     b48:	0200682e 	0x200682e
     b4c:	74730000 	jalx	1cc0000 <__memory_size+0x1ca0800>
     b50:	746e6964 	jalx	1b9a590 <__memory_size+0x1b7ad90>
     b54:	0300682e 	0x300682e
     b58:	00000000 	nop
     b5c:	0c3c0205 	jal	f00814 <__memory_size+0xee1014>
     b60:	27038000 	addiu	v1,t8,-32768
     b64:	4f451701 	c3	0x1451701
     b68:	bc4e4b45 	cache	0xe,19269(v0)
     b6c:	50864c83 	beql	a0,a2,13d7c <__isr_vec_space+0x13d5c>
     b70:	00080284 	0x80284
     b74:	01040101 	0x1040101
     b78:	00020000 	sll	zero,v0,0x0
     b7c:	0000005d 	0x5d
     b80:	0efb0101 	jal	bec0404 <__memory_size+0xbea0c04>
     b84:	0101000d 	break	0x101
     b88:	00000101 	0x101
     b8c:	00000100 	sll	zero,zero,0x4
     b90:	73752f01 	0x73752f01
     b94:	6d2f7265 	0x6d2f7265
     b98:	73737069 	0x73737069
     b9c:	672f7477 	0x672f7477
     ba0:	6e2f7469 	0x6e2f7469
     ba4:	696c7765 	0x696c7765
     ba8:	696c2f62 	0x696c2f62
     bac:	6f6c6762 	0x6f6c6762
     bb0:	6d2f7373 	0x6d2f7373
     bb4:	2f737069 	sltiu	s3,k1,28777
     bb8:	2f6c6168 	sltiu	t4,k1,24936
     bbc:	2f62696c 	sltiu	v0,k1,26988
     bc0:	7370696d 	s16sdi	xr5,k1,52,
     bc4:	696d0000 	0x696d0000
     bc8:	655f7370 	0x655f7370
     bcc:	74706378 	jalx	1c18de0 <__memory_size+0x1bf95e0>
     bd0:	746e655f 	jalx	1b9957c <__memory_size+0x1b79d7c>
     bd4:	532e7972 	beql	t9,t6,1f1a0 <__isr_vec_space+0x1f180>
     bd8:	00000100 	sll	zero,zero,0x4
     bdc:	02050000 	0x2050000
     be0:	80000000 	lb	zero,0(zero)
     be4:	0100c203 	0x100c203
     be8:	84854b83 	lh	a1,19331(a0)
     bec:	54028383 	bnel	zero,v0,fffe19fc <__entry+0x403e19fc>
     bf0:	02838318 	0x2838318
     bf4:	83831770 	lb	v1,6000(gp)
     bf8:	4d167002 	0x4d167002
     bfc:	00080283 	sra	zero,t0,0xa
     c00:	05000101 	bltz	t0,1008 <__isr_vec_space+0xfe8>
     c04:	00182802 	srl	a1,t8,0x0
     c08:	00f20380 	0xf20380
     c0c:	4b4d4c01 	c2	0x14d4c01
     c10:	4b4b4b4b 	c2	0x14b4b4b
     c14:	4b4b4b4b 	c2	0x14b4b4b
     c18:	4b4b4b4b 	c2	0x14b4b4b
     c1c:	4b4b4b4b 	c2	0x14b4b4b
     c20:	4b4b4b4b 	c2	0x14b4b4b
     c24:	4b4b4b4b 	c2	0x14b4b4b
     c28:	4b4b4b4c 	c2	0x14b4b4c
     c2c:	4b4b4d4b 	c2	0x14b4d4b
     c30:	4b4b4f4b 	c2	0x14b4f4b
     c34:	4c4b4b4d 	0x4c4b4b4d
     c38:	4b4b4b4b 	c2	0x14b4b4b
     c3c:	834b4c83 	lb	t3,19587(k0)
     c40:	4d4d4b4c 	0x4d4d4b4c
     c44:	4b4b4b4b 	c2	0x14b4b4b
     c48:	4d844d4b 	0x4d844d4b
     c4c:	88834e4d 	lwl	v1,20045(a0)
     c50:	4d4b4b4b 	0x4d4b4b4b
     c54:	4b4b4b4b 	c2	0x14b4b4b
     c58:	4b4b4b4b 	c2	0x14b4b4b
     c5c:	4b4b4b4b 	c2	0x14b4b4b
     c60:	4b4b4b4b 	c2	0x14b4b4b
     c64:	4b4b4b4b 	c2	0x14b4b4b
     c68:	4b4b4b4b 	c2	0x14b4b4b
     c6c:	4b4b4c4c 	c2	0x14b4c4c
     c70:	4b4b4b4b 	c2	0x14b4b4b
     c74:	4b4b4b4b 	c2	0x14b4b4b
     c78:	0004024c 	syscall	0x1009
     c7c:	02b70101 	0x2b70101
     c80:	00020000 	sll	zero,v0,0x0
     c84:	000001d9 	0x1d9
     c88:	0efb0101 	jal	bec0404 <__memory_size+0xbea0c04>
     c8c:	0101000d 	break	0x101
     c90:	00000101 	0x101
     c94:	00000100 	sll	zero,zero,0x4
     c98:	73752f01 	0x73752f01
     c9c:	6d2f7265 	0x6d2f7265
     ca0:	73737069 	0x73737069
     ca4:	672f7477 	0x672f7477
     ca8:	6e2f7469 	0x6e2f7469
     cac:	696c7765 	0x696c7765
     cb0:	696c2f62 	0x696c2f62
     cb4:	6f6c6762 	0x6f6c6762
     cb8:	6d2f7373 	0x6d2f7373
     cbc:	2f737069 	sltiu	s3,k1,28777
     cc0:	2f6c6168 	sltiu	t4,k1,24936
     cc4:	2f62696c 	sltiu	v0,k1,26988
     cc8:	7370696d 	s16sdi	xr5,k1,52,
     ccc:	73752f00 	0x73752f00
     cd0:	6d2f7265 	0x6d2f7265
     cd4:	73737069 	0x73737069
     cd8:	622f7477 	0x622f7477
     cdc:	646c6975 	0x646c6975
     ce0:	3130322d 	andi	s0,t1,0x322d
     ce4:	36302e35 	ori	s0,s1,0x2e35
     ce8:	2f35302d 	sltiu	s5,t9,12333
     cec:	74736e69 	jalx	1cdb9a4 <__memory_size+0x1cbc1a4>
     cf0:	2d6c6c61 	sltiu	t4,t3,27745
     cf4:	7370696d 	s16sdi	xr5,k1,52,
     cf8:	69746d2d 	0x69746d2d
     cfc:	666c652d 	0x666c652d
     d00:	62696c2f 	0x62696c2f
     d04:	6363672f 	0x6363672f
     d08:	70696d2f 	0x70696d2f
     d0c:	746d2d73 	jalx	1b4b5cc <__memory_size+0x1b2bdcc>
     d10:	6c652d69 	0x6c652d69
     d14:	2e342f66 	sltiu	s4,s1,12134
     d18:	2f322e39 	sltiu	s2,t9,11833
     d1c:	6c636e69 	0x6c636e69
     d20:	00656475 	0x656475
     d24:	6573752f 	0x6573752f
     d28:	696d2f72 	0x696d2f72
     d2c:	77737370 	jalx	dcdcdc0 <__memory_size+0xdcbd5c0>
     d30:	69672f74 	0x69672f74
     d34:	656e2f74 	0x656e2f74
     d38:	62696c77 	0x62696c77
     d3c:	77656e2f 	jalx	d95b8bc <__memory_size+0xd93c0bc>
     d40:	2f62696c 	sltiu	v0,k1,26988
     d44:	6362696c 	0x6362696c
     d48:	636e692f 	0x636e692f
     d4c:	6564756c 	0x6564756c
     d50:	63616d2f 	0x63616d2f
     d54:	656e6968 	0x656e6968
     d58:	73752f00 	0x73752f00
     d5c:	6d2f7265 	0x6d2f7265
     d60:	73737069 	0x73737069
     d64:	672f7477 	0x672f7477
     d68:	6e2f7469 	0x6e2f7469
     d6c:	696c7765 	0x696c7765
     d70:	696c2f62 	0x696c2f62
     d74:	6f6c6762 	0x6f6c6762
     d78:	6d2f7373 	0x6d2f7373
     d7c:	2f737069 	sltiu	s3,k1,28777
     d80:	2f6c6168 	sltiu	t4,k1,24936
     d84:	6c636e69 	0x6c636e69
     d88:	2f656475 	sltiu	a1,k1,25717
     d8c:	7370696d 	s16sdi	xr5,k1,52,
     d90:	73752f00 	0x73752f00
     d94:	6d2f7265 	0x6d2f7265
     d98:	73737069 	0x73737069
     d9c:	672f7477 	0x672f7477
     da0:	6e2f7469 	0x6e2f7469
     da4:	696c7765 	0x696c7765
     da8:	656e2f62 	0x656e2f62
     dac:	62696c77 	0x62696c77
     db0:	62696c2f 	0x62696c2f
     db4:	6e692f63 	0x6e692f63
     db8:	64756c63 	0x64756c63
     dbc:	752f0065 	jalx	4bc0194 <__memory_size+0x4ba0994>
     dc0:	2f726573 	sltiu	s2,k1,25971
     dc4:	7370696d 	s16sdi	xr5,k1,52,
     dc8:	2f747773 	sltiu	s4,k1,30579
     dcc:	2f746967 	sltiu	s4,k1,26983
     dd0:	6c77656e 	0x6c77656e
     dd4:	6e2f6269 	0x6e2f6269
     dd8:	696c7765 	0x696c7765
     ddc:	696c2f62 	0x696c2f62
     de0:	692f6362 	0x692f6362
     de4:	756c636e 	jalx	5b18db8 <__memory_size+0x5af95b8>
     de8:	732f6564 	s8ldi	xr5,t9,-39,ptn3
     dec:	00007379 	0x7379
     df0:	7370696d 	s16sdi	xr5,k1,52,
     df4:	6378655f 	0x6378655f
     df8:	685f7470 	0x685f7470
     dfc:	6c646e61 	0x6c646e61
     e00:	632e7265 	0x632e7265
     e04:	00000100 	sll	zero,zero,0x4
     e08:	64647473 	0x64647473
     e0c:	682e6665 	0x682e6665
     e10:	00000200 	sll	zero,zero,0x8
     e14:	6665645f 	0x6665645f
     e18:	746c7561 	jalx	1b1d584 <__memory_size+0x1afdd84>
     e1c:	7079745f 	udi15	v1,t9,t6,0x11
     e20:	682e7365 	0x682e7365
     e24:	00000300 	sll	zero,zero,0xc
     e28:	6332336d 	0x6332336d
     e2c:	00682e30 	tge	v1,t0,0xb8
     e30:	73000004 	msub	t8,zero
     e34:	6e696474 	0x6e696474
     e38:	00682e74 	teq	v1,t0,0xb9
     e3c:	68000005 	0x68000005
     e40:	682e6c61 	0x682e6c61
     e44:	00000400 	sll	zero,zero,0x10
     e48:	69727473 	0x69727473
     e4c:	682e676e 	0x682e676e
     e50:	00000500 	sll	zero,zero,0x14
     e54:	73696e75 	q16slr	xr9,xr11,xr5,xr10,13
     e58:	682e6474 	0x682e6474
     e5c:	00000600 	sll	zero,zero,0x18
     e60:	02050000 	0x2050000
     e64:	80000c84 	lb	zero,3204(zero)
     e68:	08013003 	j	4c00c <__memory_size+0x2c80c>
     e6c:	770883b2 	jalx	c220ec8 <__memory_size+0xc2016c8>
     e70:	034a7603 	0x34a7603
     e74:	f3494a0a 	0xf3494a0a
     e78:	bc84ab08 	cache	0x4,-21752(a0)
     e7c:	08750883 	j	1d4220c <__memory_size+0x1d22a0c>
     e80:	19031378 	0x19031378
     e84:	4b491382 	c2	0x1491382
     e88:	2402f349 	li	v0,-3255
     e8c:	bebef515 	cache	0x1e,-2795(s5)
     e90:	bebd3d08 	cache	0x1d,15624(s5)
     e94:	03847508 	0x3847508
     e98:	f43c080b 	sdc1	$f28,2059(at)
     e9c:	4108f5f5 	0x4108f5f5
     ea0:	f6854bbc 	sdc1	$f5,19388(s4)
     ea4:	bb83edf4 	swr	v1,-4620(gp)
     ea8:	019603f7 	0x19603f7
     eac:	7eed0382 	0x7eed0382
     eb0:	bdbdbd82 	cache	0x1d,-17022(t5)
     eb4:	40083f08 	0x40083f08
     eb8:	3e08f3f3 	0x3e08f3f3
     ebc:	4b4bbb4b 	c2	0x14bbb4b
     ec0:	f3f3f785 	0xf3f3f785
     ec4:	bb4b3e08 	swr	t3,15880(k0)
     ec8:	f5844c4b 	sdc1	$f4,19531(t4)
     ecc:	083f08f5 	j	fc23d4 <__memory_size+0xfa2bd4>
     ed0:	083f083f 	j	fc20fc <__memory_size+0xfa28fc>
     ed4:	f5bdbd3f 	sdc1	$f29,-17089(t5)
     ed8:	3f083f08 	0x3f083f08
     edc:	3f083f08 	0x3f083f08
     ee0:	ad084008 	sw	t0,16392(t0)
     ee4:	3d083d08 	0x3d083d08
     ee8:	3d083e08 	0x3d083e08
     eec:	3d083d08 	0x3d083d08
     ef0:	3d083e08 	0x3d083e08
     ef4:	3d083d08 	0x3d083d08
     ef8:	3d083e08 	0x3d083e08
     efc:	3d083d08 	0x3d083d08
     f00:	3d083e08 	0x3d083e08
     f04:	3d083d08 	0x3d083d08
     f08:	3d083e08 	0x3d083e08
     f0c:	3d083d08 	0x3d083d08
     f10:	3d083e08 	0x3d083e08
     f14:	3d083d08 	0x3d083d08
     f18:	3d083e08 	0x3d083e08
     f1c:	3d083d08 	0x3d083d08
     f20:	3d083f08 	0x3d083f08
     f24:	3d083f08 	0x3d083f08
     f28:	3d083e08 	0x3d083e08
     f2c:	3d083d08 	0x3d083d08
     f30:	43083f08 	c0	0x1083f08
     f34:	01001802 	0x1001802
     f38:	00009801 	movf	s3,zero,$fcc0
     f3c:	60000200 	0x60000200
     f40:	01000000 	0x1000000
     f44:	0d0efb01 	jal	43bec04 <__memory_size+0x439f404>
     f48:	01010100 	0x1010100
     f4c:	00000001 	movf	zero,zero,$fcc0
     f50:	01000001 	movf	zero,t0,$fcc0
     f54:	6573752f 	0x6573752f
     f58:	696d2f72 	0x696d2f72
     f5c:	77737370 	jalx	dcdcdc0 <__memory_size+0xdcbd5c0>
     f60:	69672f74 	0x69672f74
     f64:	656e2f74 	0x656e2f74
     f68:	62696c77 	0x62696c77
     f6c:	62696c2f 	0x62696c2f
     f70:	736f6c67 	0x736f6c67
     f74:	696d2f73 	0x696d2f73
     f78:	682f7370 	0x682f7370
     f7c:	6c2f6c61 	0x6c2f6c61
     f80:	6d2f6269 	0x6d2f6269
     f84:	00737069 	0x737069
     f88:	70696d00 	0x70696d00
     f8c:	78655f73 	0x78655f73
     f90:	5f747063 	0x5f747063
     f94:	69676572 	0x69676572
     f98:	72657473 	d32sar	xr1,xr13,xr5,xr9,9
     f9c:	0100532e 	0x100532e
     fa0:	00000000 	nop
     fa4:	142c0205 	bne	at,t4,17bc <__isr_vec_space+0x179c>
     fa8:	35038000 	ori	v1,t0,0x8000
     fac:	4b4b4f01 	c2	0x14b4f01
     fb0:	4b838352 	c2	0x1838352
     fb4:	844b4d83 	lh	t3,19843(v0)
     fb8:	864a0903 	lh	t2,2307(s2)
     fbc:	4d4d4b4b 	0x4d4d4b4b
     fc0:	4c4b4b85 	0x4c4b4b85
     fc4:	134b4b85 	beq	k0,t3,13ddc <__isr_vec_space+0x13dbc>
     fc8:	4b4b8586 	c2	0x14b8586
     fcc:	4c854b4d 	0x4c854b4d
     fd0:	01000802 	0x1000802
     fd4:	00010901 	0x10901
     fd8:	5c000200 	bgtzl	zero,17dc <__isr_vec_space+0x17bc>
     fdc:	01000000 	0x1000000
     fe0:	0d0efb01 	jal	43bec04 <__memory_size+0x439f404>
     fe4:	01010100 	0x1010100
     fe8:	00000001 	movf	zero,zero,$fcc0
     fec:	01000001 	movf	zero,t0,$fcc0
     ff0:	6573752f 	0x6573752f
     ff4:	696d2f72 	0x696d2f72
     ff8:	77737370 	jalx	dcdcdc0 <__memory_size+0xdcbd5c0>
     ffc:	69672f74 	0x69672f74
    1000:	656e2f74 	0x656e2f74
    1004:	62696c77 	0x62696c77
    1008:	62696c2f 	0x62696c2f
    100c:	736f6c67 	0x736f6c67
    1010:	696d2f73 	0x696d2f73
    1014:	682f7370 	0x682f7370
    1018:	6c2f6c61 	0x6c2f6c61
    101c:	6d2f6269 	0x6d2f6269
    1020:	00737069 	0x737069
    1024:	70696d00 	0x70696d00
    1028:	78655f73 	0x78655f73
    102c:	5f747063 	0x5f747063
    1030:	746f6f62 	jalx	1bdbd88 <__memory_size+0x1bbc588>
    1034:	0100532e 	0x100532e
    1038:	00000000 	nop
    103c:	14dc0205 	bne	a2,gp,1854 <__isr_vec_space+0x1834>
    1040:	cf038000 	pref	0x3,-32768(t8)
    1044:	4b830100 	c2	0x1830100
    1048:	4b4b4b4c 	c2	0x14b4b4c
    104c:	4b4b4b4b 	c2	0x14b4b4b
    1050:	4b4b4b4b 	c2	0x14b4b4b
    1054:	4b4f4c4b 	c2	0x14f4c4b
    1058:	4b4d4b4d 	c2	0x14d4b4d
    105c:	4d4b874b 	0x4d4b874b
    1060:	0e03134d 	jal	80c4d34 <__memory_size+0x80a5534>
    1064:	4b4c4b82 	c2	0x14c4b82
    1068:	4d4b4b4b 	0x4d4b4b4b
    106c:	4c4b4c83 	0x4c4b4c83
    1070:	4d4b854b 	0x4d4b854b
    1074:	4b4b4b83 	c2	0x14b4b83
    1078:	4b4b4b4b 	c2	0x14b4b4b
    107c:	4b4b4b4b 	c2	0x14b4b4b
    1080:	4b524b4b 	c2	0x1524b4b
    1084:	4d4b4d4c 	0x4d4b4d4c
    1088:	82100313 	lb	s0,787(s0)
    108c:	4b4b4b4d 	c2	0x14b4b4d
    1090:	4b4b8315 	c2	0x14b8315
    1094:	4b4b4d4b 	c2	0x14b4d4b
    1098:	4b4b4b4b 	c2	0x14b4b4b
    109c:	4b4b4b4b 	c2	0x14b4b4b
    10a0:	4b4b4b4b 	c2	0x14b4b4b
    10a4:	4b4b4b4b 	c2	0x14b4b4b
    10a8:	4b4b4b4b 	c2	0x14b4b4b
    10ac:	4b4b4b4b 	c2	0x14b4b4b
    10b0:	4b834d4b 	c2	0x1834d4b
    10b4:	4b4a1503 	c2	0x14a1503
    10b8:	820f034d 	lb	t7,845(s0)
    10bc:	134b4b83 	beq	k0,t3,13ecc <__isr_vec_space+0x13eac>
    10c0:	85821103 	lh	v0,4355(t4)
    10c4:	854b4b83 	lh	t3,19331(t2)
    10c8:	844b4b4b 	lh	t3,19275(v0)
    10cc:	4e4b4b4b 	c3	0x4b4b4b
    10d0:	8483524b 	lh	v1,21067(a0)
    10d4:	4b4b4c84 	c2	0x14b4c84
    10d8:	4c4b844b 	0x4c4b844b
    10dc:	0008024c 	syscall	0x2009
    10e0:	008a0101 	0x8a0101
    10e4:	00020000 	sll	zero,v0,0x0
    10e8:	0000005b 	0x5b
    10ec:	0efb0101 	jal	bec0404 <__memory_size+0xbea0c04>
    10f0:	0101000d 	break	0x101
    10f4:	00000101 	0x101
    10f8:	00000100 	sll	zero,zero,0x4
    10fc:	73752f01 	0x73752f01
    1100:	6d2f7265 	0x6d2f7265
    1104:	73737069 	0x73737069
    1108:	672f7477 	0x672f7477
    110c:	6e2f7469 	0x6e2f7469
    1110:	696c7765 	0x696c7765
    1114:	696c2f62 	0x696c2f62
    1118:	6f6c6762 	0x6f6c6762
    111c:	6d2f7373 	0x6d2f7373
    1120:	2f737069 	sltiu	s3,k1,28777
    1124:	2f6c6168 	sltiu	t4,k1,24936
    1128:	2f62696c 	sltiu	v0,k1,26988
    112c:	7370696d 	s16sdi	xr5,k1,52,
    1130:	696d0000 	0x696d0000
    1134:	655f7370 	0x655f7370
    1138:	74706378 	jalx	1c18de0 <__memory_size+0x1bf95e0>
    113c:	7273695f 	udi15	s3,s3,t5,0x5
    1140:	0100532e 	0x100532e
    1144:	00000000 	nop
    1148:	02000205 	0x2000205
    114c:	2d038000 	sltiu	v1,t0,-32768
    1150:	f6838301 	sdc1	$f3,-31999(s4)
    1154:	83f68383 	lb	s6,-31869(ra)
    1158:	8383f683 	lb	v1,-2429(gp)
    115c:	f68383f6 	sdc1	$f3,-31754(s4)
    1160:	83f68383 	lb	s6,-31869(ra)
    1164:	8383f683 	lb	v1,-2429(gp)
    1168:	028383f7 	0x28383f7
    116c:	01010008 	0x1010008
    1170:	00000019 	multu	zero,zero
    1174:	00130002 	srl	zero,s3,0x0
    1178:	01010000 	0x1010000
    117c:	000d0efb 	0xd0efb
    1180:	01010101 	0x1010101
    1184:	01000000 	0x1000000
    1188:	00010000 	sll	zero,at,0x0
    118c:	00018800 	sll	s1,at,0x0
    1190:	6a000200 	0x6a000200
    1194:	01000001 	movf	zero,t0,$fcc0
    1198:	0d0efb01 	jal	43bec04 <__memory_size+0x439f404>
    119c:	01010100 	0x1010100
    11a0:	00000001 	movf	zero,zero,$fcc0
    11a4:	01000001 	movf	zero,t0,$fcc0
    11a8:	6573752f 	0x6573752f
    11ac:	696d2f72 	0x696d2f72
    11b0:	77737370 	jalx	dcdcdc0 <__memory_size+0xdcbd5c0>
    11b4:	69672f74 	0x69672f74
    11b8:	656e2f74 	0x656e2f74
    11bc:	62696c77 	0x62696c77
    11c0:	62696c2f 	0x62696c2f
    11c4:	736f6c67 	0x736f6c67
    11c8:	696d2f73 	0x696d2f73
    11cc:	2f007370 	sltiu	zero,t8,29552
    11d0:	72657375 	q16slr	xr13,xr12,xr5,xr9,9
    11d4:	70696d2f 	0x70696d2f
    11d8:	74777373 	jalx	1ddcdcc <__memory_size+0x1dbd5cc>
    11dc:	7469672f 	jalx	1a59cbc <__memory_size+0x1a3a4bc>
    11e0:	77656e2f 	jalx	d95b8bc <__memory_size+0xd93c0bc>
    11e4:	2f62696c 	sltiu	v0,k1,26988
    11e8:	6c77656e 	0x6c77656e
    11ec:	6c2f6269 	0x6c2f6269
    11f0:	2f636269 	sltiu	v1,k1,25193
    11f4:	6c636e69 	0x6c636e69
    11f8:	2f656475 	sltiu	a1,k1,25717
    11fc:	6863616d 	0x6863616d
    1200:	00656e69 	0x656e69
    1204:	6573752f 	0x6573752f
    1208:	696d2f72 	0x696d2f72
    120c:	77737370 	jalx	dcdcdc0 <__memory_size+0xdcbd5c0>
    1210:	69672f74 	0x69672f74
    1214:	656e2f74 	0x656e2f74
    1218:	62696c77 	0x62696c77
    121c:	77656e2f 	jalx	d95b8bc <__memory_size+0xd93c0bc>
    1220:	2f62696c 	sltiu	v0,k1,26988
    1224:	6362696c 	0x6362696c
    1228:	636e692f 	0x636e692f
    122c:	6564756c 	0x6564756c
    1230:	73752f00 	0x73752f00
    1234:	6d2f7265 	0x6d2f7265
    1238:	73737069 	0x73737069
    123c:	622f7477 	0x622f7477
    1240:	646c6975 	0x646c6975
    1244:	3130322d 	andi	s0,t1,0x322d
    1248:	36302e35 	ori	s0,s1,0x2e35
    124c:	2f35302d 	sltiu	s5,t9,12333
    1250:	74736e69 	jalx	1cdb9a4 <__memory_size+0x1cbc1a4>
    1254:	2d6c6c61 	sltiu	t4,t3,27745
    1258:	7370696d 	s16sdi	xr5,k1,52,
    125c:	69746d2d 	0x69746d2d
    1260:	666c652d 	0x666c652d
    1264:	62696c2f 	0x62696c2f
    1268:	6363672f 	0x6363672f
    126c:	70696d2f 	0x70696d2f
    1270:	746d2d73 	jalx	1b4b5cc <__memory_size+0x1b2bdcc>
    1274:	6c652d69 	0x6c652d69
    1278:	2e342f66 	sltiu	s4,s1,12134
    127c:	2f322e39 	sltiu	s2,t9,11833
    1280:	6c636e69 	0x6c636e69
    1284:	00656475 	0x656475
    1288:	6573752f 	0x6573752f
    128c:	696d2f72 	0x696d2f72
    1290:	77737370 	jalx	dcdcdc0 <__memory_size+0xdcbd5c0>
    1294:	69672f74 	0x69672f74
    1298:	656e2f74 	0x656e2f74
    129c:	62696c77 	0x62696c77
    12a0:	77656e2f 	jalx	d95b8bc <__memory_size+0xd93c0bc>
    12a4:	2f62696c 	sltiu	v0,k1,26988
    12a8:	6362696c 	0x6362696c
    12ac:	636e692f 	0x636e692f
    12b0:	6564756c 	0x6564756c
    12b4:	7379732f 	0x7379732f
    12b8:	68750000 	0x68750000
    12bc:	72775f69 	0x72775f69
    12c0:	2e657469 	sltiu	a1,s3,29801
    12c4:	00010063 	0x10063
    12c8:	65645f00 	0x65645f00
    12cc:	6c756166 	0x6c756166
    12d0:	79745f74 	0x79745f74
    12d4:	2e736570 	sltiu	s3,s3,25968
    12d8:	00020068 	0x20068
    12dc:	64747300 	0x64747300
    12e0:	2e746e69 	sltiu	s4,s3,28265
    12e4:	00030068 	0x30068
    12e8:	64747300 	0x64747300
    12ec:	2e666564 	sltiu	a2,s3,25956
    12f0:	00040068 	0x40068
    12f4:	72726500 	0x72726500
    12f8:	682e6f6e 	0x682e6f6e
    12fc:	00000500 	sll	zero,zero,0x14
    1300:	02050000 	0x2050000
    1304:	80001774 	lb	zero,6004(zero)
    1308:	4e013403 	c3	0x13403
    130c:	52454f46 	beql	s2,a1,15028 <__isr_vec_space+0x15008>
    1310:	f64bf650 	sdc1	$f11,-2480(s2)
    1314:	01001402 	0x1001402
    1318:	00013401 	0x13401
    131c:	1b000200 	blez	t8,1b20 <__isr_vec_space+0x1b00>
    1320:	01000001 	movf	zero,t0,$fcc0
    1324:	0d0efb01 	jal	43bec04 <__memory_size+0x439f404>
    1328:	01010100 	0x1010100
    132c:	00000001 	movf	zero,zero,$fcc0
    1330:	01000001 	movf	zero,t0,$fcc0
    1334:	6573752f 	0x6573752f
    1338:	696d2f72 	0x696d2f72
    133c:	77737370 	jalx	dcdcdc0 <__memory_size+0xdcbd5c0>
    1340:	69672f74 	0x69672f74
    1344:	656e2f74 	0x656e2f74
    1348:	62696c77 	0x62696c77
    134c:	62696c2f 	0x62696c2f
    1350:	736f6c67 	0x736f6c67
    1354:	696d2f73 	0x696d2f73
    1358:	2f007370 	sltiu	zero,t8,29552
    135c:	72657375 	q16slr	xr13,xr12,xr5,xr9,9
    1360:	70696d2f 	0x70696d2f
    1364:	74777373 	jalx	1ddcdcc <__memory_size+0x1dbd5cc>
    1368:	7469672f 	jalx	1a59cbc <__memory_size+0x1a3a4bc>
    136c:	77656e2f 	jalx	d95b8bc <__memory_size+0xd93c0bc>
    1370:	2f62696c 	sltiu	v0,k1,26988
    1374:	6c77656e 	0x6c77656e
    1378:	6c2f6269 	0x6c2f6269
    137c:	2f636269 	sltiu	v1,k1,25193
    1380:	6c636e69 	0x6c636e69
    1384:	2f656475 	sltiu	a1,k1,25717
    1388:	6863616d 	0x6863616d
    138c:	00656e69 	0x656e69
    1390:	6573752f 	0x6573752f
    1394:	696d2f72 	0x696d2f72
    1398:	77737370 	jalx	dcdcdc0 <__memory_size+0xdcbd5c0>
    139c:	69672f74 	0x69672f74
    13a0:	656e2f74 	0x656e2f74
    13a4:	62696c77 	0x62696c77
    13a8:	77656e2f 	jalx	d95b8bc <__memory_size+0xd93c0bc>
    13ac:	2f62696c 	sltiu	v0,k1,26988
    13b0:	6362696c 	0x6362696c
    13b4:	636e692f 	0x636e692f
    13b8:	6564756c 	0x6564756c
    13bc:	73752f00 	0x73752f00
    13c0:	6d2f7265 	0x6d2f7265
    13c4:	73737069 	0x73737069
    13c8:	672f7477 	0x672f7477
    13cc:	6e2f7469 	0x6e2f7469
    13d0:	696c7765 	0x696c7765
    13d4:	696c2f62 	0x696c2f62
    13d8:	6f6c6762 	0x6f6c6762
    13dc:	6d2f7373 	0x6d2f7373
    13e0:	2f737069 	sltiu	s3,k1,28777
    13e4:	2f6c6168 	sltiu	t4,k1,24936
    13e8:	6c636e69 	0x6c636e69
    13ec:	2f656475 	sltiu	a1,k1,25717
    13f0:	7370696d 	s16sdi	xr5,k1,52,
    13f4:	68750000 	0x68750000
    13f8:	78655f69 	0x78655f69
    13fc:	74706563 	jalx	1c1958c <__memory_size+0x1bf9d8c>
    1400:	2e6e6f69 	sltiu	t6,s3,28521
    1404:	00010063 	0x10063
    1408:	65645f00 	0x65645f00
    140c:	6c756166 	0x6c756166
    1410:	79745f74 	0x79745f74
    1414:	2e736570 	sltiu	s3,s3,25968
    1418:	00020068 	0x20068
    141c:	64747300 	0x64747300
    1420:	2e746e69 	sltiu	s4,s3,28265
    1424:	00030068 	0x30068
    1428:	32336d00 	andi	s3,s1,0x6d00
    142c:	682e3063 	0x682e3063
    1430:	00000400 	sll	zero,zero,0x10
    1434:	2e6c6168 	sltiu	t4,s3,24936
    1438:	00040068 	0x40068
    143c:	05000000 	bltz	t0,1440 <__isr_vec_space+0x1420>
    1440:	0017c402 	srl	t8,s7,0x10
    1444:	01340380 	0x1340380
    1448:	504c4b15 	beql	v0,t4,140a0 <__isr_vec_space+0x14080>
    144c:	01000802 	0x1000802
    1450:	00013f01 	0x13f01
    1454:	1a000200 	blez	s0,1c58 <__isr_vec_space+0x1c38>
    1458:	01000001 	movf	zero,t0,$fcc0
    145c:	0d0efb01 	jal	43bec04 <__memory_size+0x439f404>
    1460:	01010100 	0x1010100
    1464:	00000001 	movf	zero,zero,$fcc0
    1468:	01000001 	movf	zero,t0,$fcc0
    146c:	6573752f 	0x6573752f
    1470:	696d2f72 	0x696d2f72
    1474:	77737370 	jalx	dcdcdc0 <__memory_size+0xdcbd5c0>
    1478:	69672f74 	0x69672f74
    147c:	656e2f74 	0x656e2f74
    1480:	62696c77 	0x62696c77
    1484:	62696c2f 	0x62696c2f
    1488:	736f6c67 	0x736f6c67
    148c:	696d2f73 	0x696d2f73
    1490:	2f007370 	sltiu	zero,t8,29552
    1494:	72657375 	q16slr	xr13,xr12,xr5,xr9,9
    1498:	70696d2f 	0x70696d2f
    149c:	74777373 	jalx	1ddcdcc <__memory_size+0x1dbd5cc>
    14a0:	7469672f 	jalx	1a59cbc <__memory_size+0x1a3a4bc>
    14a4:	77656e2f 	jalx	d95b8bc <__memory_size+0xd93c0bc>
    14a8:	2f62696c 	sltiu	v0,k1,26988
    14ac:	6762696c 	0x6762696c
    14b0:	73736f6c 	s16ldi	xr13,k1,438,ptn2
    14b4:	70696d2f 	0x70696d2f
    14b8:	61682f73 	0x61682f73
    14bc:	6e692f6c 	0x6e692f6c
    14c0:	64756c63 	0x64756c63
    14c4:	696d2f65 	0x696d2f65
    14c8:	2f007370 	sltiu	zero,t8,29552
    14cc:	72657375 	q16slr	xr13,xr12,xr5,xr9,9
    14d0:	70696d2f 	0x70696d2f
    14d4:	74777373 	jalx	1ddcdcc <__memory_size+0x1dbd5cc>
    14d8:	7469672f 	jalx	1a59cbc <__memory_size+0x1a3a4bc>
    14dc:	77656e2f 	jalx	d95b8bc <__memory_size+0xd93c0bc>
    14e0:	2f62696c 	sltiu	v0,k1,26988
    14e4:	6c77656e 	0x6c77656e
    14e8:	6c2f6269 	0x6c2f6269
    14ec:	2f636269 	sltiu	v1,k1,25193
    14f0:	6c636e69 	0x6c636e69
    14f4:	2f656475 	sltiu	a1,k1,25717
    14f8:	6863616d 	0x6863616d
    14fc:	00656e69 	0x656e69
    1500:	6573752f 	0x6573752f
    1504:	696d2f72 	0x696d2f72
    1508:	77737370 	jalx	dcdcdc0 <__memory_size+0xdcbd5c0>
    150c:	69672f74 	0x69672f74
    1510:	656e2f74 	0x656e2f74
    1514:	62696c77 	0x62696c77
    1518:	77656e2f 	jalx	d95b8bc <__memory_size+0xd93c0bc>
    151c:	2f62696c 	sltiu	v0,k1,26988
    1520:	6362696c 	0x6362696c
    1524:	636e692f 	0x636e692f
    1528:	6564756c 	0x6564756c
    152c:	68750000 	0x68750000
    1530:	6e695f69 	0x6e695f69
    1534:	65726964 	0x65726964
    1538:	632e7463 	0x632e7463
    153c:	00000100 	sll	zero,zero,0x4
    1540:	6332336d 	0x6332336d
    1544:	00682e30 	tge	v1,t0,0xb8
    1548:	5f000002 	bgtzl	t8,1554 <__isr_vec_space+0x1534>
    154c:	61666564 	0x61666564
    1550:	5f746c75 	0x5f746c75
    1554:	65707974 	0x65707974
    1558:	00682e73 	tltu	v1,t0,0xb9
    155c:	73000003 	0x73000003
    1560:	6e696474 	0x6e696474
    1564:	00682e74 	teq	v1,t0,0xb9
    1568:	68000004 	0x68000004
    156c:	682e6c61 	0x682e6c61
    1570:	00000200 	sll	zero,zero,0x8
    1574:	02050000 	0x2050000
    1578:	800017d8 	lb	zero,6104(zero)
    157c:	01012303 	0x1012303
    1580:	4b464f4b 	c2	0x1464f4b
    1584:	4f4e4b4b 	c3	0x14e4b4b
    1588:	4d4b464f 	0x4d4b464f
    158c:	024d4c48 	0x24d4c48
    1590:	01010008 	0x1010008
    1594:	0000011f 	0x11f
    1598:	01090002 	0x1090002
    159c:	01010000 	0x1010000
    15a0:	000d0efb 	0xd0efb
    15a4:	01010101 	0x1010101
    15a8:	01000000 	0x1000000
    15ac:	2f010000 	sltiu	at,t8,0
    15b0:	72657375 	q16slr	xr13,xr12,xr5,xr9,9
    15b4:	70696d2f 	0x70696d2f
    15b8:	74777373 	jalx	1ddcdcc <__memory_size+0x1dbd5cc>
    15bc:	7469672f 	jalx	1a59cbc <__memory_size+0x1a3a4bc>
    15c0:	77656e2f 	jalx	d95b8bc <__memory_size+0xd93c0bc>
    15c4:	2f62696c 	sltiu	v0,k1,26988
    15c8:	6c77656e 	0x6c77656e
    15cc:	6c2f6269 	0x6c2f6269
    15d0:	2f636269 	sltiu	v1,k1,25193
    15d4:	6e727265 	0x6e727265
    15d8:	752f006f 	jalx	4bc01bc <__memory_size+0x4ba09bc>
    15dc:	2f726573 	sltiu	s2,k1,25971
    15e0:	7370696d 	s16sdi	xr5,k1,52,
    15e4:	2f747773 	sltiu	s4,k1,30579
    15e8:	2f746967 	sltiu	s4,k1,26983
    15ec:	6c77656e 	0x6c77656e
    15f0:	6e2f6269 	0x6e2f6269
    15f4:	696c7765 	0x696c7765
    15f8:	696c2f62 	0x696c2f62
    15fc:	692f6362 	0x692f6362
    1600:	756c636e 	jalx	5b18db8 <__memory_size+0x5af95b8>
    1604:	732f6564 	s8ldi	xr5,t9,-39,ptn3
    1608:	2f007379 	sltiu	zero,t8,29561
    160c:	72657375 	q16slr	xr13,xr12,xr5,xr9,9
    1610:	70696d2f 	0x70696d2f
    1614:	74777373 	jalx	1ddcdcc <__memory_size+0x1dbd5cc>
    1618:	6975622f 	0x6975622f
    161c:	322d646c 	andi	t5,s1,0x646c
    1620:	2e353130 	sltiu	s5,s1,12592
    1624:	302d3630 	andi	t5,at,0x3630
    1628:	6e692f35 	0x6e692f35
    162c:	6c617473 	0x6c617473
    1630:	696d2d6c 	0x696d2d6c
    1634:	6d2d7370 	0x6d2d7370
    1638:	652d6974 	0x652d6974
    163c:	6c2f666c 	0x6c2f666c
    1640:	672f6269 	0x672f6269
    1644:	6d2f6363 	0x6d2f6363
    1648:	2d737069 	sltiu	s3,t3,28777
    164c:	2d69746d 	sltiu	t1,t3,29805
    1650:	2f666c65 	sltiu	a2,k1,27749
    1654:	2e392e34 	sltiu	t9,s1,11828
    1658:	6e692f32 	0x6e692f32
    165c:	64756c63 	0x64756c63
    1660:	65000065 	0x65000065
    1664:	6f6e7272 	0x6f6e7272
    1668:	0100632e 	0x100632e
    166c:	6f6c0000 	0x6f6c0000
    1670:	682e6b63 	0x682e6b63
    1674:	00000200 	sll	zero,zero,0x8
    1678:	7079745f 	udi15	v1,t9,t6,0x11
    167c:	682e7365 	0x682e7365
    1680:	00000200 	sll	zero,zero,0x8
    1684:	64647473 	0x64647473
    1688:	682e6665 	0x682e6665
    168c:	00000300 	sll	zero,zero,0xc
    1690:	6e656572 	0x6e656572
    1694:	00682e74 	teq	v1,t0,0xb9
    1698:	65000002 	0x65000002
    169c:	6f6e7272 	0x6f6e7272
    16a0:	0200682e 	0x200682e
    16a4:	00000000 	nop
    16a8:	181c0205 	0x181c0205
    16ac:	0b038000 	j	c0e0000 <__memory_size+0xc0c0800>
    16b0:	0c021401 	jal	85004 <__memory_size+0x65804>
    16b4:	Address 0x00000000000016b4 is out of bounds.


Disassembly of section .debug_frame:

00000000 <.debug_frame>:
   0:	0000000c 	syscall
   4:	ffffffff 	sdc3	$31,-1(ra)
   8:	7c010001 	0x7c010001
   c:	001d0d1f 	0x1d0d1f
  10:	0000000c 	syscall
  14:	00000000 	nop
  18:	8000075c 	lb	zero,1884(zero)
  1c:	00000058 	0x58
  20:	0000000c 	syscall
  24:	00000000 	nop
  28:	800007b4 	lb	zero,1972(zero)
  2c:	00000014 	0x14
  30:	0000000c 	syscall
  34:	ffffffff 	sdc3	$31,-1(ra)
  38:	7c010001 	0x7c010001
  3c:	001d0d1f 	0x1d0d1f
  40:	00000018 	mult	zero,zero
  44:	00000030 	tge	zero,zero
  48:	80000810 	lb	zero,2064(zero)
  4c:	00000028 	0x28
  50:	4c180e44 	0x4c180e44
  54:	0e58019f 	jal	960067c <__memory_size+0x95e0e7c>
  58:	0000df00 	sll	k1,zero,0x1c
  5c:	0000000c 	syscall
  60:	ffffffff 	sdc3	$31,-1(ra)
  64:	7c010001 	0x7c010001
  68:	001d0d1f 	0x1d0d1f
  6c:	00000014 	0x14
  70:	0000005c 	0x5c
  74:	80000838 	lb	zero,2104(zero)
  78:	0000003c 	0x3c
  7c:	4c180e44 	0x4c180e44
  80:	019f0290 	0x19f0290
  84:	0000000c 	syscall
  88:	ffffffff 	sdc3	$31,-1(ra)
  8c:	7c010001 	0x7c010001
  90:	001d0d1f 	0x1d0d1f
  94:	0000002c 	0x2c
  98:	00000084 	0x84
  9c:	80000874 	lb	zero,2164(zero)
  a0:	00000108 	0x108
  a4:	44280e48 	0x44280e48
  a8:	94480690 	lhu	t0,1680(v0)
  ac:	03934802 	0x3934802
  b0:	4c049248 	0x4c049248
  b4:	019f0591 	0x19f0591
  b8:	000ed802 	srl	k1,t6,0x0
  bc:	d3d2d1d0 	0xd3d2d1d0
  c0:	0000dfd4 	0xdfd4
  c4:	0000000c 	syscall
  c8:	ffffffff 	sdc3	$31,-1(ra)
  cc:	7c010001 	0x7c010001
  d0:	001d0d1f 	0x1d0d1f
  d4:	00000038 	0x38
  d8:	000000c4 	0xc4
  dc:	8000097c 	lb	zero,2428(zero)
  e0:	00000180 	sll	zero,zero,0x6
  e4:	48400e48 	0x48400e48
  e8:	97480793 	lhu	t0,1939(k0)
  ec:	04965003 	0x4965003
  f0:	9f600694 	0x9f600694
  f4:	95029e01 	lhu	v0,-25087(t0)
  f8:	91089205 	lbu	t0,-28155(t0)
  fc:	030a9009 	0x30a9009
 100:	000e0138 	0xe0138
 104:	d3d2d1d0 	0xd3d2d1d0
 108:	d7d6d5d4 	ldc1	$f22,-10796(s8)
 10c:	0000dfde 	0xdfde
 110:	0000000c 	syscall
 114:	ffffffff 	sdc3	$31,-1(ra)
 118:	7c010001 	0x7c010001
 11c:	001d0d1f 	0x1d0d1f
 120:	00000020 	add	zero,zero,zero
 124:	00000110 	0x110
 128:	80000afc 	lb	zero,2812(zero)
 12c:	00000088 	0x88
 130:	44280e44 	0x44280e44
 134:	91480392 	lbu	t0,914(t2)
 138:	05904804 	bltzal	t4,1214c <__isr_vec_space+0x1212c>
 13c:	9f029354 	0x9f029354
 140:	00000001 	movf	zero,zero,$fcc0
 144:	0000000c 	syscall
 148:	ffffffff 	sdc3	$31,-1(ra)
 14c:	7c010001 	0x7c010001
 150:	001d0d1f 	0x1d0d1f
 154:	0000000c 	syscall
 158:	00000144 	0x144
 15c:	80000c3c 	lb	zero,3132(zero)
 160:	00000048 	0x48
 164:	0000000c 	syscall
 168:	ffffffff 	sdc3	$31,-1(ra)
 16c:	7c010001 	0x7c010001
 170:	001d0d1f 	0x1d0d1f
 174:	00000024 	and	zero,zero,zero
 178:	00000164 	0x164
 17c:	80000c84 	lb	zero,3204(zero)
 180:	000000c0 	ehb
 184:	44280e44 	0x44280e44
 188:	91480292 	lbu	t0,658(t2)
 18c:	04904803 	bltzal	a0,1219c <__isr_vec_space+0x1217c>
 190:	02019f4c 	syscall	0x8067d
 194:	d0000e9c 	0xd0000e9c
 198:	00dfd2d1 	0xdfd2d1
 19c:	0000000c 	syscall
 1a0:	00000164 	0x164
 1a4:	80000d44 	lb	zero,3396(zero)
 1a8:	00000008 	jr	zero
 1ac:	00000024 	and	zero,zero,zero
 1b0:	00000164 	0x164
 1b4:	80000d4c 	lb	zero,3404(zero)
 1b8:	000006dc 	0x6dc
 1bc:	48200e48 	0x48200e48
 1c0:	9f4c0490 	0x9f4c0490
 1c4:	48029201 	0x48029201
 1c8:	b8030391 	swr	v1,913(zero)
 1cc:	d0000e06 	0xd0000e06
 1d0:	00dfd2d1 	0xdfd2d1
 1d4:	0000000c 	syscall
 1d8:	ffffffff 	sdc3	$31,-1(ra)
 1dc:	7c010001 	0x7c010001
 1e0:	001d0d1f 	0x1d0d1f
 1e4:	0000001c 	0x1c
 1e8:	000001d4 	0x1d4
 1ec:	80001774 	lb	zero,6004(zero)
 1f0:	00000050 	0x50
 1f4:	50200e44 	beqzl	at,3b08 <__isr_vec_space+0x3ae8>
 1f8:	0290019f 	0x290019f
 1fc:	d0000e7c 	0xd0000e7c
 200:	000000df 	0xdf
 204:	0000000c 	syscall
 208:	ffffffff 	sdc3	$31,-1(ra)
 20c:	7c010001 	0x7c010001
 210:	001d0d1f 	0x1d0d1f
 214:	0000000c 	syscall
 218:	00000204 	0x204
 21c:	800017c4 	lb	zero,6084(zero)
 220:	00000014 	0x14
 224:	0000000c 	syscall
 228:	ffffffff 	sdc3	$31,-1(ra)
 22c:	7c010001 	0x7c010001
 230:	001d0d1f 	0x1d0d1f
 234:	0000000c 	syscall
 238:	00000224 	0x224
 23c:	800017d8 	lb	zero,6104(zero)
 240:	00000044 	0x44
 244:	0000000c 	syscall
 248:	ffffffff 	sdc3	$31,-1(ra)
 24c:	7c010001 	0x7c010001
 250:	001d0d1f 	0x1d0d1f
 254:	0000000c 	syscall
 258:	00000244 	0x244
 25c:	8000181c 	lb	zero,6172(zero)
 260:	0000000c 	syscall

Disassembly of section .debug_str:

00000000 <.debug_str>:
   0:	676e6f6c 	0x676e6f6c
   4:	6e6f6c20 	0x6e6f6c20
   8:	6e692067 	0x6e692067
   c:	616d0074 	0x616d0074
  10:	632e6e69 	0x632e6e69
  14:	554e4700 	bnel	t2,t6,11c18 <__isr_vec_space+0x11bf8>
  18:	34204320 	ori	zero,at,0x4320
  1c:	322e392e 	andi	t6,s1,0x392e
  20:	656d2d20 	0x656d2d20
  24:	6d2d206c 	0x6d2d206c
  28:	74666f73 	jalx	199bdcc <__memory_size+0x197c5cc>
  2c:	6f6c662d 	0x6f6c662d
  30:	2d207461 	sltiu	zero,t1,29793
  34:	6372616d 	0x6372616d
  38:	316d3d68 	andi	t5,t3,0x3d68
  3c:	20636b34 	addi	v1,v1,27444
  40:	6c706d2d 	0x6c706d2d
  44:	6d2d2074 	0x6d2d2074
  48:	33737069 	andi	s3,k1,0x7069
  4c:	20327232 	addi	s2,at,29234
  50:	79736d2d 	0x79736d2d
  54:	2069636e 	addi	t1,v1,25454
  58:	62616d2d 	0x62616d2d
  5c:	32333d69 	andi	s3,s1,0x3d69
  60:	20672d20 	addi	a3,v1,11552
  64:	00314f2d 	0x314f2d
  68:	676e6f6c 	0x676e6f6c
  6c:	6e6f6c20 	0x6e6f6c20
  70:	6e752067 	0x6e752067
  74:	6e676973 	0x6e676973
  78:	69206465 	0x69206465
  7c:	4400746e 	0x4400746e
  80:	535f414d 	beql	k0,ra,105b8 <__isr_vec_space+0x10598>
  84:	00455a49 	0x455a49
  88:	69736e75 	0x69736e75
  8c:	64656e67 	0x64656e67
  90:	61686320 	0x61686320
  94:	616d0072 	0x616d0072
  98:	44006e69 	0x44006e69
  9c:	535f414d 	beql	k0,ra,105d4 <__isr_vec_space+0x105b4>
  a0:	43004352 	c0	0x1004352
  a4:	73555c3a 	0x73555c3a
  a8:	5c737265 	0x5c737265
  ac:	6976614a 	0x6976614a
  b0:	445c7265 	0x445c7265
  b4:	746b7365 	jalx	1adcd94 <__memory_size+0x1abd594>
  b8:	415c706f 	0x415c706f
  bc:	616d656c 	0x616d656c
  c0:	5c61696e 	0x5c61696e
  c4:	636f7250 	0x636f7250
  c8:	6f737365 	0x6f737365
  cc:	475c7372 	bz.w	$w28,1ce98 <__isr_vec_space+0x1ce78>
  d0:	5f414550 	0x5f414550
  d4:	5c414d44 	0x5c414d44
  d8:	676f7250 	0x676f7250
  dc:	736d6172 	0x736d6172
  e0:	7845435c 	fcor.w	$w13,$w8,$w5
  e4:	6c706d61 	0x6c706d61
  e8:	4d440065 	0x4d440065
  ec:	53445f41 	beql	k0,a0,17df4 <__isr_vec_space+0x17dd4>
  f0:	4f490054 	c3	0x1490054
  f4:	44454c5f 	0x44454c5f
  f8:	68730052 	0x68730052
  fc:	2074726f 	addi	s4,v1,29295
 100:	69736e75 	0x69736e75
 104:	64656e67 	0x64656e67
 108:	746e6920 	jalx	1b9a480 <__memory_size+0x1b7ac80>
 10c:	696d5f00 	0x696d5f00
 110:	685f7370 	0x685f7370
 114:	6c646e61 	0x6c646e61
 118:	78655f65 	st.h	$w29,202(t3)
 11c:	74706563 	jalx	1c1958c <__memory_size+0x1bf9d8c>
 120:	006e6f69 	0x6e6f69
 124:	73616572 	0x73616572
 128:	73006e6f 	0x73006e6f
 12c:	74726f68 	jalx	1c9bda0 <__memory_size+0x1c7c5a0>
 130:	746e6920 	jalx	1b9a480 <__memory_size+0x1b7ac80>
 134:	414d4400 	0x414d4400
 138:	4154535f 	0x4154535f
 13c:	73005452 	udi2	t8,zero,t2,0x11
 140:	74657a69 	jalx	195e9a4 <__memory_size+0x193f1a4>
 144:	00657079 	0x657079
 148:	74615f5f 	jalx	1857d7c <__memory_size+0x183857c>
 14c:	74697865 	jalx	1a5e194 <__memory_size+0x1a3e994>
 150:	7079745f 	udi15	v1,t9,t6,0x11
 154:	2f007365 	sltiu	zero,t8,29541
 158:	72657375 	q16slr	xr13,xr12,xr5,xr9,9
 15c:	70696d2f 	0x70696d2f
 160:	74777373 	jalx	1ddcdcc <__memory_size+0x1dbd5cc>
 164:	7469672f 	jalx	1a59cbc <__memory_size+0x1a3a4bc>
 168:	77656e2f 	jalx	d95b8bc <__memory_size+0xd93c0bc>
 16c:	2f62696c 	sltiu	v0,k1,26988
 170:	6c77656e 	0x6c77656e
 174:	6c2f6269 	0x6c2f6269
 178:	2f636269 	sltiu	v1,k1,25193
 17c:	6c647473 	0x6c647473
 180:	612f6269 	0x612f6269
 184:	69786574 	0x69786574
 188:	00632e74 	teq	v1,v1,0xb9
 18c:	20554e47 	addi	s5,v0,20039
 190:	2e342043 	sltiu	s4,s1,8259
 194:	20322e39 	addi	s2,at,11833
 198:	6c656d2d 	0x6c656d2d
 19c:	736d2d20 	0x736d2d20
 1a0:	2d74666f 	sltiu	s4,t3,26223
 1a4:	616f6c66 	0x616f6c66
 1a8:	6d2d2074 	0x6d2d2074
 1ac:	65746e69 	0x65746e69
 1b0:	6e696c72 	0x6e696c72
 1b4:	696d2d6b 	0x696d2d6b
 1b8:	36317370 	ori	s1,s1,0x7370
 1bc:	636d2d20 	0x636d2d20
 1c0:	2d65646f 	sltiu	a1,t3,25711
 1c4:	64616572 	0x64616572
 1c8:	656c6261 	0x656c6261
 1cc:	7263703d 	0x7263703d
 1d0:	2d206c65 	sltiu	zero,t1,27749
 1d4:	2d6f6e6d 	sltiu	t7,t3,28269
 1d8:	706f7067 	0x706f7067
 1dc:	6d2d2074 	0x6d2d2074
 1e0:	74666f73 	jalx	199bdcc <__memory_size+0x197c5cc>
 1e4:	6f6c662d 	0x6f6c662d
 1e8:	2d207461 	sltiu	zero,t1,29793
 1ec:	6372616d 	0x6372616d
 1f0:	696d3d68 	0x696d3d68
 1f4:	32337370 	andi	s3,s1,0x7370
 1f8:	2d203272 	sltiu	zero,t1,12914
 1fc:	746c706d 	jalx	1b1c1b4 <__memory_size+0x1afc9b4>
 200:	696d2d20 	0x696d2d20
 204:	32337370 	andi	s3,s1,0x7370
 208:	2d203272 	sltiu	zero,t1,12914
 20c:	6e79736d 	0x6e79736d
 210:	2d206963 	sltiu	zero,t1,26979
 214:	6962616d 	0x6962616d
 218:	2032333d 	addi	s2,at,13117
 21c:	2d20672d 	sltiu	zero,t1,26413
 220:	2d20324f 	sltiu	zero,t1,12879
 224:	2d20734f 	sltiu	zero,t1,29519
 228:	2d6f6e66 	sltiu	t7,t3,28262
 22c:	6c697562 	0x6c697562
 230:	006e6974 	teq	v1,t6,0x1a5
 234:	65725f5f 	0x65725f5f
 238:	74736967 	jalx	1cda59c <__memory_size+0x1cbad9c>
 23c:	655f7265 	0x655f7265
 240:	70746978 	0x70746978
 244:	00636f72 	tlt	v1,v1,0x1bd
 248:	74655f5f 	jalx	1957d7c <__memory_size+0x193857c>
 24c:	656e6f5f 	0x656e6f5f
 250:	00746978 	0x746978
 254:	74655f5f 	jalx	1957d7c <__memory_size+0x193857c>
 258:	6178635f 	0x6178635f
 25c:	655f5f00 	0x655f5f00
 260:	74615f74 	jalx	1857dd0 <__memory_size+0x18385d0>
 264:	74697865 	jalx	1a5e194 <__memory_size+0x1a3e994>
 268:	73645f00 	0x73645f00
 26c:	61685f6f 	0x61685f6f
 270:	656c646e 	0x656c646e
 274:	6e665f00 	0x6e665f00
 278:	73677261 	0x73677261
 27c:	61725f00 	0x61725f00
 280:	3834646e 	xori	s4,at,0x646e
 284:	6d655f00 	0x6d655f00
 288:	65677265 	0x65677265
 28c:	0079636e 	0x79636e
 290:	7263775f 	udi15	s3,v1,t6,0x1d
 294:	626d6f74 	0x626d6f74
 298:	6174735f 	0x6174735f
 29c:	5f006574 	bgtzl	t8,19870 <__isr_vec_space+0x19850>
 2a0:	72736377 	q16sar	xr13,xr8,xr13,xr12,9
 2a4:	626d6f74 	0x626d6f74
 2a8:	74735f73 	jalx	1cd7dcc <__memory_size+0x1cb85cc>
 2ac:	00657461 	0x657461
 2b0:	66626c5f 	0x66626c5f
 2b4:	657a6973 	0x657a6973
 2b8:	626d5f00 	0x626d5f00
 2bc:	776f7472 	jalx	dbdd1c8 <__memory_size+0xdbbd9c8>
 2c0:	74735f63 	jalx	1cd7d8c <__memory_size+0x1cb858c>
 2c4:	00657461 	0x657461
 2c8:	7463775f 	jalx	18ddd7c <__memory_size+0x18be57c>
 2cc:	5f626d6f 	0x5f626d6f
 2d0:	74617473 	jalx	185d1cc <__memory_size+0x183d9cc>
 2d4:	5f5f0065 	0x5f5f0065
 2d8:	735f6d74 	q16sll	xr5,xr11,xr13,xr7,13
 2dc:	5f006365 	bgtzl	t8,19074 <__isr_vec_space+0x19054>
 2e0:	66756275 	0x66756275
 2e4:	745f5f00 	jalx	17d7c00 <__memory_size+0x17b8400>
 2e8:	6f685f6d 	0x6f685f6d
 2ec:	5f007275 	bgtzl	t8,1ccc4 <__isr_vec_space+0x1cca4>
 2f0:	0066735f 	0x66735f
 2f4:	5f6e6f5f 	0x5f6e6f5f
 2f8:	74697865 	jalx	1a5e194 <__memory_size+0x1a3e994>
 2fc:	6772615f 	0x6772615f
 300:	635f0073 	0x635f0073
 304:	696b6f6f 	0x696b6f6f
 308:	5f5f0065 	0x5f5f0065
 30c:	756c6773 	jalx	5b19dcc <__memory_size+0x5afa5cc>
 310:	665f0065 	0x665f0065
 314:	7367616c 	s16ldi	xr5,k1,-80,ptn0
 318:	73695f00 	0x73695f00
 31c:	6178635f 	0x6178635f
 320:	74735f00 	jalx	1cd7c00 <__memory_size+0x1cb8400>
 324:	006e6964 	0x6e6964
 328:	6b6c625f 	0x6b6c625f
 32c:	657a6973 	0x657a6973
 330:	76635f00 	jalx	98d7c00 <__memory_size+0x98b8400>
 334:	66756274 	0x66756274
 338:	666f5f00 	0x666f5f00
 33c:	74657366 	jalx	195cd98 <__memory_size+0x193d598>
 340:	626d5f00 	0x626d5f00
 344:	6f747273 	0x6f747273
 348:	5f736377 	0x5f736377
 34c:	74617473 	jalx	185d1cc <__memory_size+0x183d9cc>
 350:	6d5f0065 	0x6d5f0065
 354:	656c7262 	0x656c7262
 358:	74735f6e 	jalx	1cd7db8 <__memory_size+0x1cb85b8>
 35c:	00657461 	0x657461
 360:	6573752f 	0x6573752f
 364:	696d2f72 	0x696d2f72
 368:	77737370 	jalx	dcdcdc0 <__memory_size+0xdcbd5c0>
 36c:	69672f74 	0x69672f74
 370:	656e2f74 	0x656e2f74
 374:	62696c77 	0x62696c77
 378:	77656e2f 	jalx	d95b8bc <__memory_size+0xd93c0bc>
 37c:	2f62696c 	sltiu	v0,k1,26988
 380:	6362696c 	0x6362696c
 384:	6474732f 	0x6474732f
 388:	2f62696c 	sltiu	v0,k1,26988
 38c:	74697865 	jalx	1a5e194 <__memory_size+0x1a3e994>
 390:	5f00632e 	bgtzl	t8,1904c <__isr_vec_space+0x1902c>
 394:	00736e66 	0x736e66
 398:	6769735f 	0x6769735f
 39c:	665f006e 	0x665f006e
 3a0:	6b636f6c 	0x6b636f6c
 3a4:	5f00745f 	bgtzl	t8,1d524 <__isr_vec_space+0x1d504>
 3a8:	65647473 	0x65647473
 3ac:	5f007272 	bgtzl	t8,1cd78 <__isr_vec_space+0x1cd58>
 3b0:	69676942 	0x69676942
 3b4:	5f00746e 	bgtzl	t8,1d570 <__isr_vec_space+0x1d550>
 3b8:	6d6d6167 	0x6d6d6167
 3bc:	69735f61 	0x69735f61
 3c0:	61676e67 	0x61676e67
 3c4:	725f006d 	s16sdi	xr1,s2,-128,
 3c8:	00646165 	0x646165
 3cc:	7365725f 	udi15	k1,a1,t6,0x9
 3d0:	5f746c75 	0x5f746c75
 3d4:	5f5f006b 	0x5f5f006b
 3d8:	5f006d74 	bgtzl	t8,1b9ac <__isr_vec_space+0x1b98c>
 3dc:	6863775f 	0x6863775f
 3e0:	735f0062 	s8ldd	xr1,k0,-64,ptn7
 3e4:	756f6474 	jalx	5bd91d0 <__memory_size+0x5bb99d0>
 3e8:	635f0074 	0x635f0074
 3ec:	656c7476 	0x656c7476
 3f0:	665f006e 	0x665f006e
 3f4:	00656c69 	0x656c69
 3f8:	6f696e5f 	0x6f696e5f
 3fc:	5f007362 	bgtzl	t8,1d188 <__isr_vec_space+0x1d168>
 400:	78657461 	ld.h	$w17,202(t6)
 404:	00307469 	0x307469
 408:	6769735f 	0x6769735f
 40c:	5f6c616e 	0x5f6c616e
 410:	00667562 	0x667562
 414:	6373615f 	0x6373615f
 418:	656d6974 	0x656d6974
 41c:	6675625f 	0x6675625f
 420:	65725f00 	0x65725f00
 424:	746c7573 	jalx	1b1d5cc <__memory_size+0x1afddcc>
 428:	775f5f00 	jalx	d7d7c00 <__memory_size+0xd7b8400>
 42c:	77006863 	jalx	c01a18c <__memory_size+0xbffa98c>
 430:	5f746e69 	0x5f746e69
 434:	665f0074 	0x665f0074
 438:	7367616c 	s16ldi	xr5,k1,-80,ptn0
 43c:	775f0032 	jalx	d7c00c8 <__memory_size+0xd7a08c8>
 440:	65746972 	0x65746972
 444:	656e5f00 	0x656e5f00
 448:	00667478 	0x667478
 44c:	6d745f5f 	0x6d745f5f
 450:	6e6f6d5f 	0x6e6f6d5f
 454:	735f5f00 	0x735f5f00
 458:	69646964 	0x69646964
 45c:	0074696e 	0x74696e
 460:	66666f5f 	0x66666f5f
 464:	5f00745f 	bgtzl	t8,1d5e4 <__isr_vec_space+0x1d5c4>
 468:	6c61635f 	0x6c61635f
 46c:	78655f6c 	0x78655f6c
 470:	72707469 	0x72707469
 474:	0073636f 	0x73636f
 478:	6572665f 	0x6572665f
 47c:	73696c65 	s8sdi	xr1,k1,91,ptn2
 480:	4c5f0074 	0x4c5f0074
 484:	5f4b434f 	0x5f4b434f
 488:	55434552 	bnel	t2,v1,119d4 <__isr_vec_space+0x119b4>
 48c:	56495352 	bnel	s2,t1,151d8 <__isr_vec_space+0x151b8>
 490:	00545f45 	0x545f45
 494:	77656e5f 	jalx	d95b97c <__memory_size+0xd93c17c>
 498:	5f685f00 	0x5f685f00
 49c:	6e727265 	0x6e727265
 4a0:	5f5f006f 	0x5f5f006f
 4a4:	795f6d74 	0x795f6d74
 4a8:	00796164 	0x796164
 4ac:	62735f5f 	0x62735f5f
 4b0:	5f006675 	bgtzl	t8,19e88 <__isr_vec_space+0x19e68>
 4b4:	73626f69 	0x73626f69
 4b8:	465f5f00 	c1	0x5f5f00
 4bc:	00454c49 	0x454c49
 4c0:	73626d5f 	udi15	k1,v0,t5,0x15
 4c4:	65746174 	0x65746174
 4c8:	5f00745f 	bgtzl	t8,1d648 <__isr_vec_space+0x1d628>
 4cc:	4946735f 	0x4946735f
 4d0:	5f00454c 	bgtzl	t8,11a04 <__isr_vec_space+0x119e4>
 4d4:	7473626d 	jalx	1cd89b4 <__memory_size+0x1cb91b4>
 4d8:	00657461 	0x657461
 4dc:	6e61725f 	0x6e61725f
 4e0:	656e5f64 	0x656e5f64
 4e4:	5f007478 	bgtzl	t8,1d6c8 <__isr_vec_space+0x1d6a8>
 4e8:	656c626d 	0x656c626d
 4ec:	74735f6e 	jalx	1cd7db8 <__memory_size+0x1cb85b8>
 4f0:	00657461 	0x657461
 4f4:	636e695f 	0x636e695f
 4f8:	6e695f00 	0x6e695f00
 4fc:	635f0064 	0x635f0064
 500:	65727275 	0x65727275
 504:	6c5f746e 	0x6c5f746e
 508:	6c61636f 	0x6c61636f
 50c:	5f5f0065 	0x5f5f0065
 510:	61656c63 	0x61656c63
 514:	0070756e 	0x70756e
 518:	78616d5f 	0x78616d5f
 51c:	00736477 	0x736477
 520:	6565725f 	0x6565725f
 524:	5f00746e 	bgtzl	t8,1d6e0 <__isr_vec_space+0x1d6c0>
 528:	64656573 	0x64656573
 52c:	635f5f00 	0x635f5f00
 530:	746e756f 	jalx	1b9d5bc <__memory_size+0x1b7ddbc>
 534:	765f5f00 	jalx	97d7c00 <__memory_size+0x97b8400>
 538:	65756c61 	0x65756c61
 53c:	65735f00 	0x65735f00
 540:	5f006b65 	bgtzl	t8,1b2d8 <__isr_vec_space+0x1b2b8>
 544:	736f7066 	s32mulu	xr1,xr12,k1,t7
 548:	5f00745f 	bgtzl	t8,1d6c8 <__isr_vec_space+0x1d6a8>
 54c:	5f6d745f 	0x5f6d745f
 550:	72616579 	0x72616579
 554:	745f5f00 	jalx	17d7c00 <__memory_size+0x17b8400>
 558:	696d5f6d 	0x696d5f6d
 55c:	6d5f006e 	0x6d5f006e
 560:	00746c75 	0x746c75
 564:	7274735f 	udi15	s3,s4,t6,0xd
 568:	5f6b6f74 	0x5f6b6f74
 56c:	7473616c 	jalx	1cd85b0 <__memory_size+0x1cb8db0>
 570:	6e665f00 	0x6e665f00
 574:	65707974 	0x65707974
 578:	615f0073 	0x615f0073
 57c:	5f006464 	bgtzl	t8,19710 <__isr_vec_space+0x196f0>
 580:	6f4c555f 	0x6f4c555f
 584:	5f00676e 	bgtzl	t8,1a340 <__isr_vec_space+0x1a320>
 588:	64746567 	0x64746567
 58c:	5f657461 	0x5f657461
 590:	00727265 	0x727265
 594:	6f6c675f 	0x6f6c675f
 598:	5f6c6162 	0x5f6c6162
 59c:	75706d69 	jalx	5c1b5a4 <__memory_size+0x5bfbda4>
 5a0:	705f6572 	0x705f6572
 5a4:	5f007274 	bgtzl	t8,1cf78 <__isr_vec_space+0x1cf58>
 5a8:	72727563 	s8std	xr5,s3,-99,
 5ac:	5f746e65 	0x5f746e65
 5b0:	65746163 	0x65746163
 5b4:	79726f67 	st.d	$w29,2960(t5)
 5b8:	6e755f00 	0x6e755f00
 5bc:	64657375 	0x64657375
 5c0:	6e61725f 	0x6e61725f
 5c4:	775f0064 	jalx	d7c0190 <__memory_size+0xd7a0990>
 5c8:	5f007364 	bgtzl	t8,1d35c <__isr_vec_space+0x1d33c>
 5cc:	5f6d745f 	0x5f6d745f
 5d0:	79616477 	0x79616477
 5d4:	6c675f00 	0x6c675f00
 5d8:	5f006575 	bgtzl	t8,19bb0 <__isr_vec_space+0x19b90>
 5dc:	6c616d6e 	0x6c616d6e
 5e0:	00636f6c 	0x636f6c
 5e4:	34366c5f 	ori	s6,at,0x6c5f
 5e8:	75625f61 	jalx	5897d84 <__memory_size+0x5878584>
 5ec:	735f0066 	s32mul	xr1,xr0,k0,ra
 5f0:	665f6769 	0x665f6769
 5f4:	00636e75 	0x636e75
 5f8:	75626e5f 	jalx	589b97c <__memory_size+0x587c17c>
 5fc:	755f0066 	jalx	57c0198 <__memory_size+0x57a0998>
 600:	6573756e 	0x6573756e
 604:	5f5f0064 	0x5f5f0064
 608:	695f6d74 	0x695f6d74
 60c:	74736473 	jalx	1cd91cc <__memory_size+0x1cb99cc>
 610:	6f6c5f00 	0x6f6c5f00
 614:	746c6163 	jalx	1b1858c <__memory_size+0x1af8d8c>
 618:	5f656d69 	0x5f656d69
 61c:	00667562 	0x667562
 620:	6f6c635f 	0x6f6c635f
 624:	5f006573 	bgtzl	t8,19bf4 <__isr_vec_space+0x19bd4>
 628:	00383472 	tlt	at,t8,0xd1
 62c:	74626d5f 	jalx	189b57c <__memory_size+0x187bd7c>
 630:	5f63776f 	0x5f63776f
 634:	74617473 	jalx	185d1cc <__memory_size+0x183d9cc>
 638:	705f0065 	s8sdi	xr1,v0,-64,
 63c:	5f007335 	bgtzl	t8,1d314 <__isr_vec_space+0x1d2f4>
 640:	5f6d745f 	0x5f6d745f
 644:	7961646d 	0x7961646d
 648:	706d6900 	0x706d6900
 64c:	5f657275 	0x5f657275
 650:	61746164 	0x61746164
 654:	73752f00 	0x73752f00
 658:	6d2f7265 	0x6d2f7265
 65c:	73737069 	0x73737069
 660:	672f7477 	0x672f7477
 664:	6e2f7469 	0x6e2f7469
 668:	696c7765 	0x696c7765
 66c:	656e2f62 	0x656e2f62
 670:	62696c77 	0x62696c77
 674:	62696c2f 	0x62696c2f
 678:	65722f63 	0x65722f63
 67c:	2f746e65 	sltiu	s4,k1,28261
 680:	75706d69 	jalx	5c1b5a4 <__memory_size+0x5bfbda4>
 684:	632e6572 	0x632e6572
 688:	7a697300 	nori.b	$w12,$w14,0x69
 68c:	00745f65 	0x745f65
 690:	6573752f 	0x6573752f
 694:	696d2f72 	0x696d2f72
 698:	77737370 	jalx	dcdcdc0 <__memory_size+0xdcbd5c0>
 69c:	69672f74 	0x69672f74
 6a0:	656e2f74 	0x656e2f74
 6a4:	62696c77 	0x62696c77
 6a8:	77656e2f 	jalx	d95b8bc <__memory_size+0xd93c0bc>
 6ac:	2f62696c 	sltiu	v0,k1,26988
 6b0:	6362696c 	0x6362696c
 6b4:	6474732f 	0x6474732f
 6b8:	2f62696c 	sltiu	v0,k1,26988
 6bc:	74615f5f 	jalx	1857d7c <__memory_size+0x183857c>
 6c0:	74697865 	jalx	1a5e194 <__memory_size+0x1a3e994>
 6c4:	6600632e 	0x6600632e
 6c8:	00656572 	tlt	v1,a1,0x195
 6cc:	7473616c 	jalx	1cd85b0 <__memory_size+0x1cb8db0>
 6d0:	65720070 	0x65720070
 6d4:	72617473 	d32sar	xr1,xr13,xr5,xr8,9
 6d8:	752f0074 	jalx	4bc01d0 <__memory_size+0x4ba09d0>
 6dc:	2f726573 	sltiu	s2,k1,25971
 6e0:	7370696d 	s16sdi	xr5,k1,52,
 6e4:	2f747773 	sltiu	s4,k1,30579
 6e8:	2f746967 	sltiu	s4,k1,26983
 6ec:	6c77656e 	0x6c77656e
 6f0:	6e2f6269 	0x6e2f6269
 6f4:	696c7765 	0x696c7765
 6f8:	696c2f62 	0x696c2f62
 6fc:	732f6362 	s8ldd	xr13,t9,-40,ptn3
 700:	696c6474 	0x696c6474
 704:	5f5f2f62 	0x5f5f2f62
 708:	6c6c6163 	0x6c6c6163
 70c:	6574615f 	0x6574615f
 710:	2e746978 	sltiu	s4,s3,27000
 714:	5f5f0063 	0x5f5f0063
 718:	78657461 	ld.h	$w17,202(t6)
 71c:	6c5f7469 	0x6c5f7469
 720:	006b636f 	0x6b636f
 724:	20554e47 	addi	s5,v0,20039
 728:	2e342043 	sltiu	s4,s1,8259
 72c:	20322e39 	addi	s2,at,11833
 730:	6c656d2d 	0x6c656d2d
 734:	636d2d20 	0x636d2d20
 738:	2d65646f 	sltiu	a1,t3,25711
 73c:	64616572 	0x64616572
 740:	656c6261 	0x656c6261
 744:	7263703d 	0x7263703d
 748:	2d206c65 	sltiu	zero,t1,27749
 74c:	746e696d 	jalx	1b9a5b4 <__memory_size+0x1b7adb4>
 750:	696c7265 	0x696c7265
 754:	6d2d6b6e 	0x6d2d6b6e
 758:	31737069 	andi	s3,t3,0x7069
 75c:	6d2d2036 	0x6d2d2036
 760:	65646f63 	0x65646f63
 764:	6165722d 	0x6165722d
 768:	6c626164 	0x6c626164
 76c:	63703d65 	0x63703d65
 770:	206c6572 	addi	t4,v1,25970
 774:	6f6e6d2d 	0x6f6e6d2d
 778:	6f70672d 	0x6f70672d
 77c:	2d207470 	sltiu	zero,t1,29808
 780:	666f736d 	0x666f736d
 784:	6c662d74 	0x6c662d74
 788:	2074616f 	addi	s4,v1,24943
 78c:	72616d2d 	s16sdi	xr4,s3,182,ptn0
 790:	6d3d6863 	0x6d3d6863
 794:	33737069 	andi	s3,k1,0x7069
 798:	20327232 	addi	s2,at,29234
 79c:	6c706d2d 	0x6c706d2d
 7a0:	6d2d2074 	0x6d2d2074
 7a4:	33737069 	andi	s3,k1,0x7069
 7a8:	20327232 	addi	s2,at,29234
 7ac:	79736d2d 	0x79736d2d
 7b0:	2069636e 	addi	t1,v1,25454
 7b4:	62616d2d 	0x62616d2d
 7b8:	32333d69 	andi	s3,s1,0x3d69
 7bc:	20672d20 	addi	a3,v1,11552
 7c0:	2d20672d 	sltiu	zero,t1,26413
 7c4:	2d20324f 	sltiu	zero,t1,12879
 7c8:	2d20734f 	sltiu	zero,t1,29519
 7cc:	2d20324f 	sltiu	zero,t1,12879
 7d0:	2d20324f 	sltiu	zero,t1,12879
 7d4:	5f00734f 	bgtzl	t8,1d514 <__isr_vec_space+0x1d4f4>
 7d8:	7465725f 	jalx	195c97c <__memory_size+0x193d17c>
 7dc:	5f6e7275 	0x5f6e7275
 7e0:	625f6f74 	0x625f6f74
 7e4:	00746f6f 	0x746f6f
 7e8:	74697865 	jalx	1a5e194 <__memory_size+0x1a3e994>
 7ec:	646f635f 	0x646f635f
 7f0:	5f5f0065 	0x5f5f0065
 7f4:	74697865 	jalx	1a5e194 <__memory_size+0x1a3e994>
 7f8:	755f5f00 	jalx	57d7c00 <__memory_size+0x57b8400>
 7fc:	655f6573 	0x655f6573
 800:	74706378 	jalx	1c18de0 <__memory_size+0x1bf95e0>
 804:	6f6f625f 	0x6f6f625f
 808:	5f5f0074 	0x5f5f0074
 80c:	33746e69 	andi	s4,k1,0x6e69
 810:	00745f32 	tlt	v1,s4,0x17c
 814:	31677261 	andi	a3,t3,0x7261
 818:	73752f00 	0x73752f00
 81c:	6d2f7265 	0x6d2f7265
 820:	73737069 	0x73737069
 824:	672f7477 	0x672f7477
 828:	6e2f7469 	0x6e2f7469
 82c:	696c7765 	0x696c7765
 830:	696c2f62 	0x696c2f62
 834:	6f6c6762 	0x6f6c6762
 838:	6d2f7373 	0x6d2f7373
 83c:	2f737069 	sltiu	s3,k1,28777
 840:	5f696875 	0x5f696875
 844:	74697865 	jalx	1a5e194 <__memory_size+0x1a3e994>
 848:	5f00632e 	bgtzl	t8,19504 <__isr_vec_space+0x194e4>
 84c:	7465675f 	jalx	1959d7c <__memory_size+0x193a57c>
 850:	6174735f 	0x6174735f
 854:	70757472 	0x70757472
 858:	5645425f 	bnel	s2,a1,111d8 <__isr_vec_space+0x111b8>
 85c:	73752f00 	0x73752f00
 860:	6d2f7265 	0x6d2f7265
 864:	73737069 	0x73737069
 868:	672f7477 	0x672f7477
 86c:	6e2f7469 	0x6e2f7469
 870:	696c7765 	0x696c7765
 874:	696c2f62 	0x696c2f62
 878:	6f6c6762 	0x6f6c6762
 87c:	6d2f7373 	0x6d2f7373
 880:	2f737069 	sltiu	s3,k1,28777
 884:	5f696875 	0x5f696875
 888:	5f746567 	0x5f746567
 88c:	5f6d6172 	0x5f6d6172
 890:	676e6172 	0x676e6172
 894:	00632e65 	0x632e65
 898:	656d5f5f 	0x656d5f5f
 89c:	79726f6d 	0x79726f6d
 8a0:	7a69735f 	0x7a69735f
 8a4:	5f720065 	0x5f720065
 8a8:	65747865 	0x65747865
 8ac:	7200746e 	0x7200746e
 8b0:	655f6d61 	0x655f6d61
 8b4:	6e657478 	0x6e657478
 8b8:	5f5f0074 	0x5f5f0074
 8bc:	6f6d656d 	0x6f6d656d
 8c0:	625f7972 	0x625f7972
 8c4:	00657361 	0x657361
 8c8:	61625f72 	0x61625f72
 8cc:	72006573 	d32sar	xr5,xr9,xr1,xr0,8
 8d0:	625f6d61 	0x625f6d61
 8d4:	00657361 	0x657361
 8d8:	7465675f 	jalx	1959d7c <__memory_size+0x193a57c>
 8dc:	6d61725f 	0x6d61725f
 8e0:	6e61725f 	0x6e61725f
 8e4:	70006567 	d32sarw	xr5,xr9,xr1,zero
 8e8:	6e737475 	0x6e737475
 8ec:	5f5f0073 	0x5f5f0073
 8f0:	69616863 	0x69616863
 8f4:	68755f6e 	0x68755f6e
 8f8:	78655f69 	0x78655f69
 8fc:	00747063 	0x747063
 900:	68755f5f 	0x68755f5f
 904:	6e695f69 	0x6e695f69
 908:	65726964 	0x65726964
 90c:	63007463 	0x63007463
 910:	65737561 	0x65737561
 914:	655f5f00 	0x655f5f00
 918:	70656378 	0x70656378
 91c:	6e6f6974 	0x6e6f6974
 920:	6e61685f 	0x6e61685f
 924:	5f656c64 	0x5f656c64
 928:	62726576 	0x62726576
 92c:	0065736f 	0x65736f
 930:	62756f64 	0x62756f64
 934:	7300656c 	s16ldi	xr5,t8,50,ptn0
 938:	74666968 	jalx	199a5a0 <__memory_size+0x197ada0>
 93c:	6e696c00 	0x6e696c00
 940:	7874636b 	0x7874636b
 944:	755f5f00 	jalx	57d7c00 <__memory_size+0x57b8400>
 948:	33746e69 	andi	s4,k1,0x6e69
 94c:	00745f32 	tlt	v1,s4,0x17c
 950:	6b6e696c 	0x6b6e696c
 954:	72747300 	0x72747300
 958:	006e656c 	0x6e656c
 95c:	74736f70 	jalx	1cdbdc0 <__memory_size+0x1cbc5c0>
 960:	63706700 	0x63706700
 964:	62007874 	0x62007874
 968:	61766461 	0x61766461
 96c:	00726464 	0x726464
 970:	616f6c66 	0x616f6c66
 974:	72730074 	q16sll	xr1,xr0,xr12,xr12,9
 978:	745f6765 	jalx	17d9d94 <__memory_size+0x17ba594>
 97c:	755f5f00 	jalx	57d7c00 <__memory_size+0x57b8400>
 980:	655f6968 	0x655f6968
 984:	70656378 	0x70656378
 988:	6e6f6974 	0x6e6f6974
 98c:	665f5f00 	0x665f5f00
 990:	6873756c 	0x6873756c
 994:	5f6f745f 	0x5f6f745f
 998:	6f72657a 	0x6f72657a
 99c:	74757000 	jalx	1d5c000 <__memory_size+0x1d3c800>
 9a0:	73646e73 	d32sar	xr9,xr11,xr1,xr9,13
 9a4:	67696400 	0x67696400
 9a8:	00737469 	0x737469
 9ac:	74617473 	jalx	185d1cc <__memory_size+0x183d9cc>
 9b0:	62007375 	0x62007375
 9b4:	69706461 	0x69706461
 9b8:	7274736e 	0x7274736e
 9bc:	64616200 	0x64616200
 9c0:	74736e69 	jalx	1cdb9a4 <__memory_size+0x1cbc1a4>
 9c4:	752f0072 	jalx	4bc01c8 <__memory_size+0x4ba09c8>
 9c8:	2f726573 	sltiu	s2,k1,25971
 9cc:	7370696d 	s16sdi	xr5,k1,52,
 9d0:	2f747773 	sltiu	s4,k1,30579
 9d4:	2f746967 	sltiu	s4,k1,26983
 9d8:	6c77656e 	0x6c77656e
 9dc:	6c2f6269 	0x6c2f6269
 9e0:	6c676269 	0x6c676269
 9e4:	2f73736f 	sltiu	s3,k1,29551
 9e8:	7370696d 	s16sdi	xr5,k1,52,
 9ec:	6c61682f 	0x6c61682f
 9f0:	62696c2f 	0x62696c2f
 9f4:	70696d2f 	0x70696d2f
 9f8:	696d2f73 	0x696d2f73
 9fc:	655f7370 	0x655f7370
 a00:	74706378 	jalx	1c18de0 <__memory_size+0x1bf95e0>
 a04:	6e61685f 	0x6e61685f
 a08:	72656c64 	s8ldi	xr1,s3,91,ptn1
 a0c:	2f00632e 	sltiu	zero,t8,25390
 a10:	72657375 	q16slr	xr13,xr12,xr5,xr9,9
 a14:	70696d2f 	0x70696d2f
 a18:	74777373 	jalx	1ddcdcc <__memory_size+0x1dbd5cc>
 a1c:	7469672f 	jalx	1a59cbc <__memory_size+0x1a3a4bc>
 a20:	77656e2f 	jalx	d95b8bc <__memory_size+0xd93c0bc>
 a24:	2f62696c 	sltiu	v0,k1,26988
 a28:	6c77656e 	0x6c77656e
 a2c:	6c2f6269 	0x6c2f6269
 a30:	2f636269 	sltiu	v1,k1,25193
 a34:	6863616d 	0x6863616d
 a38:	2f656e69 	sltiu	a1,k1,28265
 a3c:	7370696d 	s16sdi	xr5,k1,52,
 a40:	7274732f 	0x7274732f
 a44:	2e6e656c 	sltiu	t6,s3,25964
 a48:	656e0063 	0x656e0063
 a4c:	72655f77 	q16sar	xr13,xr7,xr5,xr9,9
 a50:	006f6e72 	tlt	v1,t7,0x1b9
 a54:	32677261 	andi	a3,s3,0x7261
 a58:	73752f00 	0x73752f00
 a5c:	6d2f7265 	0x6d2f7265
 a60:	73737069 	0x73737069
 a64:	672f7477 	0x672f7477
 a68:	6e2f7469 	0x6e2f7469
 a6c:	696c7765 	0x696c7765
 a70:	696c2f62 	0x696c2f62
 a74:	6f6c6762 	0x6f6c6762
 a78:	6d2f7373 	0x6d2f7373
 a7c:	2f737069 	sltiu	s3,k1,28777
 a80:	5f696875 	0x5f696875
 a84:	74697277 	jalx	1a5c9dc <__memory_size+0x1a3d1dc>
 a88:	00632e65 	0x632e65
 a8c:	33677261 	andi	a3,k1,0x7261
 a90:	655f5f00 	0x655f5f00
 a94:	6f6e7272 	0x6f6e7272
 a98:	72726500 	0x72726500
 a9c:	745f6f6e 	jalx	17dbdb8 <__memory_size+0x17bc5b8>
 aa0:	2f00706d 	sltiu	zero,t8,28781
 aa4:	72657375 	q16slr	xr13,xr12,xr5,xr9,9
 aa8:	70696d2f 	0x70696d2f
 aac:	74777373 	jalx	1ddcdcc <__memory_size+0x1dbd5cc>
 ab0:	7469672f 	jalx	1a59cbc <__memory_size+0x1a3a4bc>
 ab4:	77656e2f 	jalx	d95b8bc <__memory_size+0xd93c0bc>
 ab8:	2f62696c 	sltiu	v0,k1,26988
 abc:	6762696c 	0x6762696c
 ac0:	73736f6c 	s16ldi	xr13,k1,438,ptn2
 ac4:	70696d2f 	0x70696d2f
 ac8:	68752f73 	0x68752f73
 acc:	78655f69 	0x78655f69
 ad0:	74706563 	jalx	1c1958c <__memory_size+0x1bf9d8c>
 ad4:	2e6e6f69 	sltiu	t6,s3,28521
 ad8:	65720063 	0x65720063
 adc:	72003174 	q16sll	xr5,xr12,xr0,xr0,8
 ae0:	00327465 	0x327465
 ae4:	34677261 	ori	a3,v1,0x7261
 ae8:	73752f00 	0x73752f00
 aec:	6d2f7265 	0x6d2f7265
 af0:	73737069 	0x73737069
 af4:	672f7477 	0x672f7477
 af8:	6e2f7469 	0x6e2f7469
 afc:	696c7765 	0x696c7765
 b00:	696c2f62 	0x696c2f62
 b04:	6f6c6762 	0x6f6c6762
 b08:	6d2f7373 	0x6d2f7373
 b0c:	2f737069 	sltiu	s3,k1,28777
 b10:	5f696875 	0x5f696875
 b14:	69646e69 	0x69646e69
 b18:	74636572 	jalx	18d95c8 <__memory_size+0x18b9dc8>
 b1c:	2f00632e 	sltiu	zero,t8,25390
 b20:	72657375 	q16slr	xr13,xr12,xr5,xr9,9
 b24:	70696d2f 	0x70696d2f
 b28:	74777373 	jalx	1ddcdcc <__memory_size+0x1dbd5cc>
 b2c:	7469672f 	jalx	1a59cbc <__memory_size+0x1a3a4bc>
 b30:	77656e2f 	jalx	d95b8bc <__memory_size+0xd93c0bc>
 b34:	2f62696c 	sltiu	v0,k1,26988
 b38:	6c77656e 	0x6c77656e
 b3c:	6c2f6269 	0x6c2f6269
 b40:	2f636269 	sltiu	v1,k1,25193
 b44:	6e727265 	0x6e727265
 b48:	72652f6f 	0x72652f6f
 b4c:	2e6f6e72 	sltiu	t7,s3,28274
 b50:	Address 0x0000000000000b50 is out of bounds.


Disassembly of section .debug_loc:

00000000 <.debug_loc>:
   0:	00000000 	nop
   4:	00000014 	0x14
   8:	14540001 	bne	v0,s4,10 <ABIFlags_flags1>
   c:	1b000000 	blez	t8,10 <ABIFlags_flags1>
  10:	01000000 	0x1000000
  14:	001b5500 	sll	t2,k1,0x14
  18:	00280000 	0x280000
  1c:	00040000 	sll	zero,a0,0x0
  20:	9f5401f3 	0x9f5401f3
  24:	00000000 	nop
  28:	00000000 	nop
  2c:	00000000 	nop
  30:	00000017 	0x17
  34:	17540001 	bne	k0,s4,3c <__isr_vec_space+0x1c>
  38:	3c000000 	lui	zero,0x0
  3c:	01000000 	0x1000000
  40:	00006000 	sll	t4,zero,0x0
  44:	00000000 	nop
  48:	00000000 	nop
  4c:	00640000 	0x640000
  50:	00010000 	sll	zero,at,0x0
  54:	00006454 	0x6454
  58:	0000fc00 	sll	ra,zero,0x10
  5c:	61000100 	0x61000100
  60:	000000fc 	0xfc
  64:	00000108 	0x108
  68:	01f30004 	sllv	zero,s3,t7
  6c:	00009f54 	0x9f54
  70:	00000000 	nop
  74:	00000000 	nop
  78:	00640000 	0x640000
  7c:	00010000 	sll	zero,at,0x0
  80:	00006455 	0x6455
  84:	00006b00 	sll	t5,zero,0xc
  88:	55000100 	bnezl	t0,48c <__isr_vec_space+0x46c>
  8c:	0000006b 	0x6b
  90:	000000f8 	0xf8
  94:	f8620001 	sdc2	$2,1(v1)
  98:	08000000 	j	0 <hardware_exit_hook>
  9c:	04000001 	bltz	zero,a4 <__isr_vec_space+0x84>
  a0:	5501f300 	bnel	t0,at,ffffcca4 <__entry+0x403fcca4>
  a4:	0000009f 	0x9f
  a8:	00000000 	nop
  ac:	00000000 	nop
  b0:	00006400 	sll	t4,zero,0x10
  b4:	56000100 	bnezl	s0,4b8 <__isr_vec_space+0x498>
  b8:	00000064 	0x64
  bc:	0000006b 	0x6b
  c0:	6b560001 	0x6b560001
  c4:	f0000000 	0xf0000000
  c8:	01000000 	0x1000000
  cc:	00f06400 	0xf06400
  d0:	01080000 	0x1080000
  d4:	00040000 	sll	zero,a0,0x0
  d8:	9f5601f3 	0x9f5601f3
  dc:	00000000 	nop
  e0:	00000000 	nop
  e4:	00000000 	nop
  e8:	00000064 	0x64
  ec:	64570001 	0x64570001
  f0:	6b000000 	0x6b000000
  f4:	01000000 	0x1000000
  f8:	006b5700 	0x6b5700
  fc:	00f40000 	0xf40000
 100:	00010000 	sll	zero,at,0x0
 104:	0000f463 	0xf463
 108:	00010800 	sll	at,at,0x0
 10c:	f3000400 	0xf3000400
 110:	009f5701 	0x9f5701
 114:	00000000 	nop
 118:	94000000 	lhu	zero,0(zero)
 11c:	cc000000 	pref	0x0,0(zero)
 120:	04000000 	bltz	zero,124 <__isr_vec_space+0x104>
 124:	01887200 	0x1887200
 128:	0000009f 	0x9f
 12c:	00000000 	nop
 130:	00003400 	sll	a2,zero,0x10
 134:	00005800 	sll	t3,zero,0x0
 138:	52000100 	beqzl	s0,53c <__isr_vec_space+0x51c>
 13c:	00000058 	0x58
 140:	0000006b 	0x6b
 144:	c8800003 	lwc2	$0,3(a0)
 148:	00006c02 	srl	t5,zero,0x10
 14c:	0000e000 	sll	gp,zero,0x0
 150:	52000100 	beqzl	s0,554 <__isr_vec_space+0x534>
 154:	00000000 	nop
 158:	00000000 	nop
 15c:	00000000 	nop
 160:	0000004c 	syscall	0x1
 164:	4c540001 	ldxc1	$f0,s4(v0)
 168:	60000000 	0x60000000
 16c:	01000001 	movf	zero,t0,$fcc0
 170:	01606600 	0x1606600
 174:	01800000 	0x1800000
 178:	00040000 	sll	zero,a0,0x0
 17c:	9f5401f3 	0x9f5401f3
 180:	00000000 	nop
 184:	00000000 	nop
 188:	00000000 	nop
 18c:	0000004c 	syscall	0x1
 190:	4c550001 	ldxc1	$f0,s5(v0)
 194:	68000000 	0x68000000
 198:	01000001 	movf	zero,t0,$fcc0
 19c:	01686400 	0x1686400
 1a0:	01800000 	0x1800000
 1a4:	00040000 	sll	zero,a0,0x0
 1a8:	9f5501f3 	0x9f5501f3
 1ac:	00000000 	nop
 1b0:	00000000 	nop
 1b4:	00000110 	0x110
 1b8:	00000118 	0x118
 1bc:	00820002 	0x820002
 1c0:	0000011c 	0x11c
 1c4:	00000124 	0x124
 1c8:	00520001 	0x520001
 1cc:	00000000 	nop
 1d0:	58000000 	blezl	zero,1d4 <__isr_vec_space+0x1b4>
 1d4:	1c000000 	bgtz	zero,1d8 <__isr_vec_space+0x1b8>
 1d8:	01000001 	movf	zero,t0,$fcc0
 1dc:	011c6200 	0x11c6200
 1e0:	01240000 	0x1240000
 1e4:	00010000 	sll	zero,at,0x0
 1e8:	00012452 	0x12452
 1ec:	00017000 	sll	t6,at,0x0
 1f0:	62000100 	0x62000100
 1f4:	00000000 	nop
 1f8:	00000000 	nop
 1fc:	00000110 	0x110
 200:	00000118 	0x118
 204:	00820007 	srav	zero,v0,a0
 208:	01882306 	0x1882306
 20c:	00011c9f 	0x11c9f
 210:	00012400 	sll	a0,at,0x10
 214:	72000400 	0x72000400
 218:	009f0188 	0x9f0188
 21c:	00000000 	nop
 220:	68000000 	0x68000000
 224:	54000000 	bnezl	zero,228 <__isr_vec_space+0x208>
 228:	01000001 	movf	zero,t0,$fcc0
 22c:	00006500 	sll	t4,zero,0x14
 230:	00000000 	nop
 234:	00780000 	0x780000
 238:	00e40000 	0xe40000
 23c:	00050000 	sll	zero,a1,0x0
 240:	24008531 	li	zero,-31439
 244:	0000e49f 	0xe49f
 248:	0000ec00 	sll	sp,zero,0x10
 24c:	31000500 	andi	zero,t0,0x500
 250:	9f240185 	0x9f240185
 254:	00000124 	0x124
 258:	00000154 	0x154
 25c:	85310005 	lh	s1,5(t1)
 260:	009f2400 	0x9f2400
 264:	00000000 	nop
 268:	90000000 	lbu	zero,0(zero)
 26c:	c7000000 	lwc1	$f0,0(t8)
 270:	01000000 	0x1000000
 274:	01245300 	0x1245300
 278:	013b0000 	0x13b0000
 27c:	00010000 	sll	zero,at,0x0
 280:	00014453 	0x14453
 284:	00014b00 	sll	t1,at,0xc
 288:	53000100 	beqzl	t8,68c <__isr_vec_space+0x66c>
 28c:	00000000 	nop
 290:	00000000 	nop
 294:	000000b4 	teq	zero,zero,0x2
 298:	000000e0 	0xe0
 29c:	246e0001 	addiu	t6,v1,1
 2a0:	54000001 	bnezl	zero,2a8 <__isr_vec_space+0x288>
 2a4:	01000001 	movf	zero,t0,$fcc0
 2a8:	00006e00 	sll	t5,zero,0x18
 2ac:	00000000 	nop
 2b0:	00000000 	nop
 2b4:	00340000 	0x340000
 2b8:	00010000 	sll	zero,at,0x0
 2bc:	00003454 	0x3454
 2c0:	00008800 	sll	s1,zero,0x0
 2c4:	63000100 	0x63000100
 2c8:	00000000 	nop
 2cc:	00000000 	nop
 2d0:	00000000 	nop
 2d4:	00000038 	0x38
 2d8:	38540001 	xori	s4,v0,0x1
 2dc:	48000000 	mfc2	zero,$0
 2e0:	01000000 	0x1000000
 2e4:	00005600 	sll	t2,zero,0x18
 2e8:	00000000 	nop
 2ec:	00000000 	nop
 2f0:	00380000 	0x380000
 2f4:	00010000 	sll	zero,at,0x0
 2f8:	00003855 	0x3855
 2fc:	00004800 	sll	t1,zero,0x0
 300:	57000100 	bnezl	t8,704 <__isr_vec_space+0x6e4>
 304:	00000000 	nop
 308:	00000000 	nop
 30c:	00000000 	nop
 310:	0000002b 	sltu	zero,zero,zero
 314:	2b540001 	slti	s4,k0,1
 318:	b4000000 	0xb4000000
 31c:	01000000 	0x1000000
 320:	00b46100 	0xb46100
 324:	00c00000 	0xc00000
 328:	00040000 	sll	zero,a0,0x0
 32c:	9f5401f3 	0x9f5401f3
 330:	00000000 	nop
 334:	00000000 	nop
 338:	00000000 	nop
 33c:	0000002b 	sltu	zero,zero,zero
 340:	2b550001 	slti	s5,k0,1
 344:	b0000000 	0xb0000000
 348:	01000000 	0x1000000
 34c:	00b06200 	0xb06200
 350:	00c00000 	0xc00000
 354:	00040000 	sll	zero,a0,0x0
 358:	9f5501f3 	0x9f5501f3
 35c:	00000000 	nop
 360:	00000000 	nop
 364:	00000000 	nop
 368:	0000002b 	sltu	zero,zero,zero
 36c:	2b560001 	slti	s6,k0,1
 370:	b8000000 	swr	zero,0(zero)
 374:	01000000 	0x1000000
 378:	00b86000 	0xb86000
 37c:	00c00000 	0xc00000
 380:	00040000 	sll	zero,a0,0x0
 384:	9f5601f3 	0x9f5601f3
 388:	00000000 	nop
 38c:	00000000 	nop
 390:	00000004 	sllv	zero,zero,zero
 394:	00000054 	0x54
 398:	68910002 	0x68910002
 39c:	00000054 	0x54
 3a0:	00000087 	0x87
 3a4:	00750002 	0x750002
 3a8:	00000087 	0x87
 3ac:	000000b8 	0xb8
 3b0:	68910002 	0x68910002
 3b4:	000000b8 	0xb8
 3b8:	000000c0 	ehb
 3bc:	688d0002 	0x688d0002
 3c0:	00000000 	nop
 3c4:	00000000 	nop
 3c8:	0000003c 	0x3c
 3cc:	0000004c 	syscall	0x1
 3d0:	9f4c0002 	0x9f4c0002
 3d4:	00000060 	0x60
 3d8:	00000068 	0x68
 3dc:	68520001 	0x68520001
 3e0:	74000000 	jalx	0 <hardware_exit_hook>
 3e4:	09000000 	j	4000000 <__memory_size+0x3fe0800>
 3e8:	00733100 	0x733100
 3ec:	2324321c 	addi	a0,t9,12828
 3f0:	00749f1c 	0x749f1c
 3f4:	00870000 	0x870000
 3f8:	00080000 	sll	zero,t0,0x0
 3fc:	fc090073 	sdc3	$9,115(zero)
 400:	9f1c231e 	0x9f1c231e
 404:	00000000 	nop
 408:	00000000 	nop
 40c:	00000004 	sllv	zero,zero,zero
 410:	0000004c 	syscall	0x1
 414:	9f300002 	0x9f300002
 418:	00000060 	0x60
 41c:	00000087 	0x87
 420:	00530001 	0x530001
 424:	00000000 	nop
 428:	c0000000 	ll	zero,0(zero)
 42c:	c7000000 	lwc1	$f0,0(t8)
 430:	01000000 	0x1000000
 434:	00c75400 	0xc75400
 438:	00c80000 	0xc80000
 43c:	00040000 	sll	zero,a0,0x0
 440:	9f5401f3 	0x9f5401f3
 444:	00000000 	nop
 448:	00000000 	nop
 44c:	000000c0 	ehb
 450:	000000c7 	0xc7
 454:	c7550001 	lwc1	$f21,1(k0)
 458:	c8000000 	lwc2	$0,0(zero)
 45c:	04000000 	bltz	zero,460 <__isr_vec_space+0x440>
 460:	5501f300 	bnel	t0,at,ffffd064 <__entry+0x403fd064>
 464:	0000009f 	0x9f
 468:	00000000 	nop
 46c:	0000c000 	sll	t8,zero,0x0
 470:	0000c700 	sll	t8,zero,0x1c
 474:	56000100 	bnezl	s0,878 <__isr_vec_space+0x858>
 478:	000000c7 	0xc7
 47c:	000000c8 	0xc8
 480:	01f30004 	sllv	zero,s3,t7
 484:	00009f56 	0x9f56
 488:	00000000 	nop
 48c:	00c80000 	0xc80000
 490:	01100000 	0x1100000
 494:	00010000 	sll	zero,at,0x0
 498:	00011054 	0x11054
 49c:	00011800 	sll	v1,at,0x0
 4a0:	60000100 	0x60000100
 4a4:	00000118 	0x118
 4a8:	0000011c 	0x11c
 4ac:	1c540001 	0x1c540001
 4b0:	24000001 	li	zero,1
 4b4:	01000001 	movf	zero,t0,$fcc0
 4b8:	01246000 	0x1246000
 4bc:	01280000 	0x1280000
 4c0:	00010000 	sll	zero,at,0x0
 4c4:	00012854 	0x12854
 4c8:	00013000 	sll	a2,at,0x0
 4cc:	60000100 	0x60000100
 4d0:	00000130 	tge	zero,zero,0x4
 4d4:	00000134 	teq	zero,zero,0x4
 4d8:	34540001 	ori	s4,v0,0x1
 4dc:	50000001 	beqzl	zero,4e4 <__isr_vec_space+0x4c4>
 4e0:	01000001 	movf	zero,t0,$fcc0
 4e4:	01506000 	0x1506000
 4e8:	01540000 	0x1540000
 4ec:	00010000 	sll	zero,at,0x0
 4f0:	00015454 	0x15454
 4f4:	00015c00 	sll	t3,at,0x10
 4f8:	60000100 	0x60000100
 4fc:	0000015c 	0x15c
 500:	00000164 	0x164
 504:	64540001 	0x64540001
 508:	7c000001 	0x7c000001
 50c:	01000001 	movf	zero,t0,$fcc0
 510:	017c6000 	0x17c6000
 514:	01840000 	0x1840000
 518:	00010000 	sll	zero,at,0x0
 51c:	00018454 	0x18454
 520:	00019000 	sll	s2,at,0x0
 524:	60000100 	0x60000100
 528:	00000190 	0x190
 52c:	000001a8 	0x1a8
 530:	a8540001 	swl	s4,1(v0)
 534:	ec000001 	swc3	$0,1(zero)
 538:	01000001 	movf	zero,t0,$fcc0
 53c:	01ec6000 	0x1ec6000
 540:	01fc0000 	0x1fc0000
 544:	00010000 	sll	zero,at,0x0
 548:	0001fc54 	0x1fc54
 54c:	00021c00 	sll	v1,v0,0x10
 550:	60000100 	0x60000100
 554:	0000021c 	0x21c
 558:	00000237 	0x237
 55c:	37540001 	ori	s4,k0,0x1
 560:	50000002 	beqzl	zero,56c <__isr_vec_space+0x54c>
 564:	01000002 	0x1000002
 568:	02506000 	0x2506000
 56c:	02540000 	0x2540000
 570:	00010000 	sll	zero,at,0x0
 574:	00025454 	0x25454
 578:	00025c00 	sll	t3,v0,0x10
 57c:	60000100 	0x60000100
 580:	0000025c 	0x25c
 584:	00000260 	0x260
 588:	60540001 	0x60540001
 58c:	68000002 	0x68000002
 590:	01000002 	0x1000002
 594:	02686000 	0x2686000
 598:	026c0000 	0x26c0000
 59c:	00010000 	sll	zero,at,0x0
 5a0:	00026c54 	0x26c54
 5a4:	00027400 	sll	t6,v0,0x10
 5a8:	60000100 	0x60000100
 5ac:	00000274 	teq	zero,zero,0x9
 5b0:	0000027c 	0x27c
 5b4:	7c540001 	0x7c540001
 5b8:	88000002 	lwl	zero,2(zero)
 5bc:	01000002 	0x1000002
 5c0:	02886000 	0x2886000
 5c4:	02900000 	0x2900000
 5c8:	00010000 	sll	zero,at,0x0
 5cc:	00029054 	0x29054
 5d0:	00029c00 	sll	s3,v0,0x10
 5d4:	60000100 	0x60000100
 5d8:	0000029c 	0x29c
 5dc:	000002d8 	0x2d8
 5e0:	d8540001 	ldc2	$20,1(v0)
 5e4:	f0000002 	0xf0000002
 5e8:	01000002 	0x1000002
 5ec:	02f06000 	0x2f06000
 5f0:	02f40000 	0x2f40000
 5f4:	00010000 	sll	zero,at,0x0
 5f8:	0002f454 	0x2f454
 5fc:	00030000 	sll	zero,v1,0x0
 600:	60000100 	0x60000100
 604:	00000300 	sll	zero,zero,0xc
 608:	0000033c 	0x33c
 60c:	3c540001 	0x3c540001
 610:	54000003 	bnezl	zero,620 <__isr_vec_space+0x600>
 614:	01000003 	0x1000003
 618:	03546000 	0x3546000
 61c:	03580000 	0x3580000
 620:	00010000 	sll	zero,at,0x0
 624:	00035854 	0x35854
 628:	00036400 	sll	t4,v1,0x10
 62c:	60000100 	0x60000100
 630:	00000364 	0x364
 634:	0000036c 	0x36c
 638:	6c540001 	0x6c540001
 63c:	74000003 	jalx	c <ABIFlags_ases>
 640:	01000003 	0x1000003
 644:	03746000 	0x3746000
 648:	037c0000 	0x37c0000
 64c:	00010000 	sll	zero,at,0x0
 650:	00037c54 	0x37c54
 654:	00038800 	sll	s1,v1,0x0
 658:	60000100 	0x60000100
 65c:	00000388 	0x388
 660:	00000390 	0x390
 664:	90540001 	lbu	s4,1(v0)
 668:	9c000003 	0x9c000003
 66c:	01000003 	0x1000003
 670:	039c6000 	0x39c6000
 674:	03a40000 	0x3a40000
 678:	00010000 	sll	zero,at,0x0
 67c:	0003a454 	0x3a454
 680:	0003b000 	sll	s6,v1,0x0
 684:	60000100 	0x60000100
 688:	000003b0 	tge	zero,zero,0xe
 68c:	000003b8 	0x3b8
 690:	b8540001 	swr	s4,1(v0)
 694:	c4000003 	lwc1	$f0,3(zero)
 698:	01000003 	0x1000003
 69c:	03c46000 	0x3c46000
 6a0:	03c80000 	0x3c80000
 6a4:	00010000 	sll	zero,at,0x0
 6a8:	0003c854 	0x3c854
 6ac:	0003d000 	sll	k0,v1,0x0
 6b0:	60000100 	0x60000100
 6b4:	000003d0 	0x3d0
 6b8:	000003d4 	0x3d4
 6bc:	d4540001 	ldc1	$f20,1(v0)
 6c0:	dc000003 	ldc3	$0,3(zero)
 6c4:	01000003 	0x1000003
 6c8:	03dc6000 	0x3dc6000
 6cc:	03e00000 	0x3e00000
 6d0:	00010000 	sll	zero,at,0x0
 6d4:	0003e054 	0x3e054
 6d8:	0003ec00 	sll	sp,v1,0x10
 6dc:	60000100 	0x60000100
 6e0:	000003ec 	0x3ec
 6e4:	000003f4 	teq	zero,zero,0xf
 6e8:	f4540001 	sdc1	$f20,1(v0)
 6ec:	00000003 	sra	zero,zero,0x0
 6f0:	01000004 	sllv	zero,zero,t0
 6f4:	04006000 	bltz	zero,186f8 <__isr_vec_space+0x186d8>
 6f8:	04080000 	tgei	zero,0
 6fc:	00010000 	sll	zero,at,0x0
 700:	00040854 	0x40854
 704:	00041400 	sll	v0,a0,0x10
 708:	60000100 	0x60000100
 70c:	00000414 	0x414
 710:	0000041c 	0x41c
 714:	1c540001 	0x1c540001
 718:	28000004 	slti	zero,zero,4
 71c:	01000004 	sllv	zero,zero,t0
 720:	04286000 	tgei	at,24576
 724:	04300000 	bltzal	at,728 <__isr_vec_space+0x708>
 728:	00010000 	sll	zero,at,0x0
 72c:	00043054 	0x43054
 730:	00043c00 	sll	a3,a0,0x10
 734:	60000100 	0x60000100
 738:	0000043c 	0x43c
 73c:	00000440 	sll	zero,zero,0x11
 740:	40540001 	mfhc0	s4,c0_mvpcontrol
 744:	9c000004 	0x9c000004
 748:	01000007 	srav	zero,zero,t0
 74c:	079c6000 	0x79c6000
 750:	07a40000 	0x7a40000
 754:	00040000 	sll	zero,a0,0x0
 758:	9f5401f3 	0x9f5401f3
 75c:	00000000 	nop
 760:	00000000 	nop
 764:	000000c8 	0xc8
 768:	0000010c 	syscall	0x4
 76c:	0c550001 	jal	1540004 <__memory_size+0x1520804>
 770:	18000001 	blez	zero,778 <__isr_vec_space+0x758>
 774:	04000001 	bltz	zero,77c <__isr_vec_space+0x75c>
 778:	5501f300 	bnel	t0,at,ffffd37c <__entry+0x403fd37c>
 77c:	0001189f 	0x1189f
 780:	00013c00 	sll	a3,at,0x10
 784:	55000100 	bnezl	t0,b88 <__isr_vec_space+0xb68>
 788:	0000013c 	0x13c
 78c:	00000150 	0x150
 790:	01f30004 	sllv	zero,s3,t7
 794:	01509f55 	0x1509f55
 798:	01600000 	0x1600000
 79c:	00010000 	sll	zero,at,0x0
 7a0:	00016055 	0x16055
 7a4:	00017c00 	sll	t7,at,0x10
 7a8:	f3000400 	0xf3000400
 7ac:	7c9f5501 	0x7c9f5501
 7b0:	80000001 	lb	zero,1(zero)
 7b4:	01000001 	movf	zero,t0,$fcc0
 7b8:	01805500 	0x1805500
 7bc:	01900000 	0x1900000
 7c0:	00040000 	sll	zero,a0,0x0
 7c4:	9f5501f3 	0x9f5501f3
 7c8:	00000190 	0x190
 7cc:	000001b4 	teq	zero,zero,0x6
 7d0:	b4550001 	0xb4550001
 7d4:	c0000001 	ll	zero,1(zero)
 7d8:	04000001 	bltz	zero,7e0 <__isr_vec_space+0x7c0>
 7dc:	5501f300 	bnel	t0,at,ffffd3e0 <__entry+0x403fd3e0>
 7e0:	0001c09f 	0x1c09f
 7e4:	0001c400 	sll	t8,at,0x10
 7e8:	55000100 	bnezl	t0,bec <__isr_vec_space+0xbcc>
 7ec:	000001c4 	0x1c4
 7f0:	000001ec 	0x1ec
 7f4:	01f30004 	sllv	zero,s3,t7
 7f8:	01ec9f55 	0x1ec9f55
 7fc:	01fc0000 	0x1fc0000
 800:	00010000 	sll	zero,at,0x0
 804:	0001fc55 	0x1fc55
 808:	00021c00 	sll	v1,v0,0x10
 80c:	f3000400 	0xf3000400
 810:	1c9f5501 	0x1c9f5501
 814:	37000002 	ori	zero,t8,0x2
 818:	01000002 	0x1000002
 81c:	02375500 	0x2375500
 820:	02500000 	0x2500000
 824:	00040000 	sll	zero,a0,0x0
 828:	9f5501f3 	0x9f5501f3
 82c:	00000250 	0x250
 830:	00000278 	0x278
 834:	78550001 	bmnzi.b	$w0,$w0,0x55
 838:	88000002 	lwl	zero,2(zero)
 83c:	04000002 	bltz	zero,848 <__isr_vec_space+0x828>
 840:	5501f300 	bnel	t0,at,ffffd444 <__entry+0x403fd444>
 844:	0002889f 	0x2889f
 848:	00028c00 	sll	s1,v0,0x10
 84c:	55000100 	bnezl	t0,c50 <__isr_vec_space+0xc30>
 850:	0000028c 	syscall	0xa
 854:	0000029c 	0x29c
 858:	01f30004 	sllv	zero,s3,t7
 85c:	029c9f55 	0x29c9f55
 860:	02c40000 	0x2c40000
 864:	00010000 	sll	zero,at,0x0
 868:	0002c455 	0x2c455
 86c:	00030000 	sll	zero,v1,0x0
 870:	f3000400 	0xf3000400
 874:	009f5501 	0x9f5501
 878:	28000003 	slti	zero,zero,3
 87c:	01000003 	0x1000003
 880:	03285500 	0x3285500
 884:	03640000 	0x3640000
 888:	00040000 	sll	zero,a0,0x0
 88c:	9f5501f3 	0x9f5501f3
 890:	00000364 	0x364
 894:	00000368 	0x368
 898:	68550001 	0x68550001
 89c:	74000003 	jalx	c <ABIFlags_ases>
 8a0:	04000003 	bltz	zero,8b0 <__isr_vec_space+0x890>
 8a4:	5501f300 	bnel	t0,at,ffffd4a8 <__entry+0x403fd4a8>
 8a8:	0003749f 	0x3749f
 8ac:	00037800 	sll	t7,v1,0x0
 8b0:	55000100 	bnezl	t0,cb4 <__isr_vec_space+0xc94>
 8b4:	00000378 	0x378
 8b8:	00000388 	0x388
 8bc:	01f30004 	sllv	zero,s3,t7
 8c0:	03889f55 	0x3889f55
 8c4:	038c0000 	0x38c0000
 8c8:	00010000 	sll	zero,at,0x0
 8cc:	00038c55 	0x38c55
 8d0:	00039c00 	sll	s3,v1,0x10
 8d4:	f3000400 	0xf3000400
 8d8:	9c9f5501 	0x9c9f5501
 8dc:	a0000003 	sb	zero,3(zero)
 8e0:	01000003 	0x1000003
 8e4:	03a05500 	0x3a05500
 8e8:	03b00000 	0x3b00000
 8ec:	00040000 	sll	zero,a0,0x0
 8f0:	9f5501f3 	0x9f5501f3
 8f4:	000003b0 	tge	zero,zero,0xe
 8f8:	000003b4 	teq	zero,zero,0xe
 8fc:	b4550001 	0xb4550001
 900:	c4000003 	lwc1	$f0,3(zero)
 904:	04000003 	bltz	zero,914 <__isr_vec_space+0x8f4>
 908:	5501f300 	bnel	t0,at,ffffd50c <__entry+0x403fd50c>
 90c:	0003c49f 	0x3c49f
 910:	0003e400 	sll	gp,v1,0x10
 914:	55000100 	bnezl	t0,d18 <__isr_vec_space+0xcf8>
 918:	000003e4 	0x3e4
 91c:	000003ec 	0x3ec
 920:	01f30004 	sllv	zero,s3,t7
 924:	03ec9f55 	0x3ec9f55
 928:	03f00000 	0x3f00000
 92c:	00010000 	sll	zero,at,0x0
 930:	0003f055 	0x3f055
 934:	00040000 	sll	zero,a0,0x0
 938:	f3000400 	0xf3000400
 93c:	009f5501 	0x9f5501
 940:	04000004 	bltz	zero,954 <__isr_vec_space+0x934>
 944:	01000004 	sllv	zero,zero,t0
 948:	04045500 	0x4045500
 94c:	04140000 	0x4140000
 950:	00040000 	sll	zero,a0,0x0
 954:	9f5501f3 	0x9f5501f3
 958:	00000414 	0x414
 95c:	00000418 	0x418
 960:	18550001 	0x18550001
 964:	28000004 	slti	zero,zero,4
 968:	04000004 	bltz	zero,97c <__isr_vec_space+0x95c>
 96c:	5501f300 	bnel	t0,at,ffffd570 <__entry+0x403fd570>
 970:	0004289f 	0x4289f
 974:	00042c00 	sll	a1,a0,0x10
 978:	55000100 	bnezl	t0,d7c <__isr_vec_space+0xd5c>
 97c:	0000042c 	0x42c
 980:	0000043c 	0x43c
 984:	01f30004 	sllv	zero,s3,t7
 988:	043c9f55 	0x43c9f55
 98c:	04440000 	0x4440000
 990:	00010000 	sll	zero,at,0x0
 994:	00044455 	0x44455
 998:	0007a400 	sll	s4,a3,0x10
 99c:	f3000400 	0xf3000400
 9a0:	009f5501 	0x9f5501
 9a4:	00000000 	nop
 9a8:	b0000000 	0xb0000000
 9ac:	b4000002 	0xb4000002
 9b0:	01000002 	0x1000002
 9b4:	00005200 	sll	t2,zero,0x8
 9b8:	00000000 	nop
 9bc:	02c00000 	0x2c00000
 9c0:	02c80000 	0x2c80000
 9c4:	00010000 	sll	zero,at,0x0
 9c8:	00000053 	mtlhx	zero
 9cc:	00000000 	nop
 9d0:	00031400 	sll	v0,v1,0x10
 9d4:	00031800 	sll	v1,v1,0x0
 9d8:	52000100 	beqzl	s0,ddc <__isr_vec_space+0xdbc>
 9dc:	00000000 	nop
 9e0:	00000000 	nop
 9e4:	00000324 	0x324
 9e8:	0000032c 	0x32c
 9ec:	00530001 	0x530001
 9f0:	00000000 	nop
 9f4:	00000000 	nop
 9f8:	18000000 	blez	zero,9fc <__isr_vec_space+0x9dc>
 9fc:	01000000 	0x1000000
 a00:	00185400 	sll	t2,t8,0x10
 a04:	00500000 	0x500000
 a08:	00040000 	sll	zero,a0,0x0
 a0c:	9f5401f3 	0x9f5401f3
 a10:	00000000 	nop
 a14:	00000000 	nop
 a18:	00000000 	nop
 a1c:	00000018 	mult	zero,zero
 a20:	18550001 	0x18550001
 a24:	50000000 	beqzl	zero,a28 <__isr_vec_space+0xa08>
 a28:	04000000 	bltz	zero,a2c <__isr_vec_space+0xa0c>
 a2c:	5501f300 	bnel	t0,at,ffffd630 <__entry+0x403fd630>
 a30:	0000009f 	0x9f
 a34:	00000000 	nop
 a38:	00000000 	nop
 a3c:	00003300 	sll	a2,zero,0xc
 a40:	56000100 	bnezl	s0,e44 <__isr_vec_space+0xe24>
 a44:	00000033 	tltu	zero,zero
 a48:	00000050 	0x50
 a4c:	01f30004 	sllv	zero,s3,t7
 a50:	00009f56 	0x9f56
 a54:	00000000 	nop
 a58:	00000000 	nop
 a5c:	00080000 	sll	zero,t0,0x0
 a60:	00010000 	sll	zero,at,0x0
 a64:	00000854 	0x854
 a68:	00004400 	sll	t0,zero,0x10
 a6c:	58000100 	blezl	zero,e70 <__isr_vec_space+0xe50>
 a70:	00000000 	nop
 a74:	00000000 	nop

Disassembly of section .debug_ranges:

00000000 <.debug_ranges>:
   0:	00000018 	mult	zero,zero
   4:	0000001c 	0x1c
   8:	00000078 	0x78
   c:	000000e0 	0xe0
  10:	00000124 	0x124
  14:	0000014c 	syscall	0x5
  18:	00000000 	nop
  1c:	00000000 	nop
  20:	ffffffff 	sdc3	$31,-1(ra)
  24:	00000000 	nop
  28:	80000000 	lb	zero,0(zero)
  2c:	80000194 	lb	zero,404(zero)
  30:	80001828 	lb	zero,6184(zero)
  34:	800019f0 	lb	zero,6640(zero)
  38:	00000000 	nop
  3c:	00000000 	nop

Disassembly of section .reginfo:

00000000 <.reginfo>:
   0:	b200037c 	0xb200037c
   4:	00000000 	nop
   8:	00000000 	nop
   c:	00000000 	nop
  10:	00000000 	nop
  14:	8000a3a0 	lb	zero,-23648(zero)

Disassembly of section .pdr:

00000000 <.pdr>:
   0:	80000324 	lb	zero,804(zero)
   4:	00000000 	nop
   8:	00000000 	nop
   c:	00000000 	nop
  10:	00000000 	nop
  14:	00000000 	nop
  18:	00000000 	nop
  1c:	00000000 	nop
  20:	80000440 	lb	zero,1088(zero)
  24:	00000000 	nop
  28:	00000000 	nop
  2c:	00000000 	nop
  30:	00000000 	nop
  34:	00000000 	nop
  38:	00000000 	nop
  3c:	00000000 	nop
  40:	800004a4 	lb	zero,1188(zero)
  44:	00000000 	nop
  48:	00000000 	nop
  4c:	00000000 	nop
  50:	00000000 	nop
  54:	00000000 	nop
  58:	00000000 	nop
  5c:	00000000 	nop
  60:	80000578 	lb	zero,1400(zero)
  64:	00000000 	nop
  68:	00000000 	nop
  6c:	00000000 	nop
  70:	00000000 	nop
  74:	00000000 	nop
  78:	00000000 	nop
  7c:	00000000 	nop
  80:	9fc00000 	0x9fc00000
  84:	00000000 	nop
  88:	00000000 	nop
  8c:	00000000 	nop
  90:	00000000 	nop
  94:	00000000 	nop
  98:	00000000 	nop
  9c:	00000000 	nop
  a0:	9fc00014 	0x9fc00014
  a4:	00000000 	nop
  a8:	00000000 	nop
  ac:	00000000 	nop
  b0:	00000000 	nop
  b4:	00000000 	nop
  b8:	00000000 	nop
  bc:	00000000 	nop
  c0:	9fc000a8 	0x9fc000a8
  c4:	00000000 	nop
  c8:	00000000 	nop
  cc:	00000000 	nop
  d0:	00000000 	nop
  d4:	00000000 	nop
  d8:	00000000 	nop
  dc:	00000000 	nop
  e0:	9fc00100 	0x9fc00100
  e4:	00000000 	nop
  e8:	00000000 	nop
  ec:	00000000 	nop
  f0:	00000000 	nop
  f4:	00000000 	nop
  f8:	00000000 	nop
  fc:	00000000 	nop
 100:	9fc00160 	0x9fc00160
 104:	00000000 	nop
 108:	00000000 	nop
 10c:	00000000 	nop
 110:	00000000 	nop
 114:	00000000 	nop
 118:	00000000 	nop
 11c:	00000000 	nop
 120:	9fc00288 	0x9fc00288
 124:	00000000 	nop
 128:	00000000 	nop
 12c:	00000000 	nop
 130:	00000000 	nop
 134:	00000000 	nop
 138:	00000000 	nop
 13c:	00000000 	nop
 140:	9fc00308 	0x9fc00308
 144:	00000000 	nop
 148:	00000000 	nop
 14c:	00000000 	nop
 150:	00000000 	nop
 154:	00000000 	nop
 158:	00000000 	nop
 15c:	00000000 	nop
 160:	8000075c 	lb	zero,1884(zero)
 164:	00000000 	nop
 168:	00000000 	nop
 16c:	00000000 	nop
 170:	00000000 	nop
 174:	00000000 	nop
 178:	0000001d 	0x1d
 17c:	0000001f 	0x1f
 180:	800007b4 	lb	zero,1972(zero)
 184:	00000000 	nop
 188:	00000000 	nop
 18c:	00000000 	nop
 190:	00000000 	nop
 194:	00000000 	nop
 198:	0000001d 	0x1d
 19c:	0000001f 	0x1f
 1a0:	80000810 	lb	zero,2064(zero)
 1a4:	80000000 	lb	zero,0(zero)
 1a8:	fffffffc 	sdc3	$31,-4(ra)
 1ac:	00000000 	nop
 1b0:	00000000 	nop
 1b4:	00000018 	mult	zero,zero
 1b8:	0000001d 	0x1d
 1bc:	0000001f 	0x1f
 1c0:	80000838 	lb	zero,2104(zero)
 1c4:	80010000 	lb	at,0(zero)
 1c8:	fffffffc 	sdc3	$31,-4(ra)
 1cc:	00000000 	nop
 1d0:	00000000 	nop
 1d4:	00000018 	mult	zero,zero
 1d8:	0000001d 	0x1d
 1dc:	0000001f 	0x1f
 1e0:	80000874 	lb	zero,2164(zero)
 1e4:	801f0000 	lb	ra,0(zero)
 1e8:	fffffffc 	sdc3	$31,-4(ra)
 1ec:	00000000 	nop
 1f0:	00000000 	nop
 1f4:	00000028 	0x28
 1f8:	0000001d 	0x1d
 1fc:	0000001f 	0x1f
 200:	8000097c 	lb	zero,2428(zero)
 204:	c0ff0000 	ll	ra,0(a3)
 208:	fffffffc 	sdc3	$31,-4(ra)
 20c:	00000000 	nop
 210:	00000000 	nop
 214:	00000040 	ssnop
 218:	0000001d 	0x1d
 21c:	0000001f 	0x1f
 220:	80000afc 	lb	zero,2812(zero)
 224:	800f0000 	lb	t7,0(zero)
 228:	fffffffc 	sdc3	$31,-4(ra)
 22c:	00000000 	nop
 230:	00000000 	nop
 234:	00000028 	0x28
 238:	0000001d 	0x1d
 23c:	0000001f 	0x1f
 240:	80000b84 	lb	zero,2948(zero)
 244:	00000000 	nop
 248:	00000000 	nop
 24c:	00000000 	nop
 250:	00000000 	nop
 254:	00000000 	nop
 258:	00000000 	nop
 25c:	00000000 	nop
 260:	80000c3c 	lb	zero,3132(zero)
 264:	00000000 	nop
 268:	00000000 	nop
 26c:	00000000 	nop
 270:	00000000 	nop
 274:	00000000 	nop
 278:	0000001d 	0x1d
 27c:	0000001f 	0x1f
 280:	80000000 	lb	zero,0(zero)
 284:	00000000 	nop
 288:	00000000 	nop
 28c:	00000000 	nop
 290:	00000000 	nop
 294:	00000000 	nop
 298:	00000000 	nop
 29c:	00000000 	nop
 2a0:	80001828 	lb	zero,6184(zero)
 2a4:	00000000 	nop
 2a8:	00000000 	nop
 2ac:	00000000 	nop
 2b0:	00000000 	nop
 2b4:	000000b0 	tge	zero,zero,0x2
 2b8:	0000001d 	0x1d
 2bc:	00000000 	nop
 2c0:	80000c84 	lb	zero,3204(zero)
 2c4:	80070000 	lb	a3,0(zero)
 2c8:	fffffffc 	sdc3	$31,-4(ra)
 2cc:	00000000 	nop
 2d0:	00000000 	nop
 2d4:	00000028 	0x28
 2d8:	0000001d 	0x1d
 2dc:	0000001f 	0x1f
 2e0:	80000d44 	lb	zero,3396(zero)
 2e4:	00000000 	nop
 2e8:	00000000 	nop
 2ec:	00000000 	nop
 2f0:	00000000 	nop
 2f4:	00000000 	nop
 2f8:	0000001d 	0x1d
 2fc:	0000001f 	0x1f
 300:	80000d4c 	lb	zero,3404(zero)
 304:	80070000 	lb	a3,0(zero)
 308:	fffffffc 	sdc3	$31,-4(ra)
 30c:	00000000 	nop
 310:	00000000 	nop
 314:	00000020 	add	zero,zero,zero
 318:	0000001d 	0x1d
 31c:	0000001f 	0x1f
 320:	8000142c 	lb	zero,5164(zero)
 324:	00000000 	nop
 328:	00000000 	nop
 32c:	00000000 	nop
 330:	00000000 	nop
 334:	00000000 	nop
 338:	00000000 	nop
 33c:	00000000 	nop
 340:	800014dc 	lb	zero,5340(zero)
 344:	00000000 	nop
 348:	00000000 	nop
 34c:	00000000 	nop
 350:	00000000 	nop
 354:	00000000 	nop
 358:	00000000 	nop
 35c:	00000000 	nop
 360:	80001558 	lb	zero,5464(zero)
 364:	00000000 	nop
 368:	00000000 	nop
 36c:	00000000 	nop
 370:	00000000 	nop
 374:	00000000 	nop
 378:	00000000 	nop
 37c:	00000000 	nop
 380:	800015f8 	lb	zero,5624(zero)
 384:	00000000 	nop
 388:	00000000 	nop
 38c:	00000000 	nop
 390:	00000000 	nop
 394:	00000000 	nop
 398:	00000000 	nop
 39c:	00000000 	nop
 3a0:	800016b0 	lb	zero,5808(zero)
 3a4:	00000000 	nop
 3a8:	00000000 	nop
 3ac:	00000000 	nop
 3b0:	00000000 	nop
 3b4:	00000000 	nop
 3b8:	00000000 	nop
 3bc:	00000000 	nop
 3c0:	800016c8 	lb	zero,5832(zero)
 3c4:	00000000 	nop
 3c8:	00000000 	nop
 3cc:	00000000 	nop
 3d0:	00000000 	nop
 3d4:	00000000 	nop
 3d8:	00000000 	nop
 3dc:	00000000 	nop
 3e0:	80000200 	lb	zero,512(zero)
 3e4:	00000000 	nop
 3e8:	00000000 	nop
 3ec:	00000000 	nop
 3f0:	00000000 	nop
 3f4:	00000000 	nop
 3f8:	00000000 	nop
 3fc:	00000000 	nop
 400:	80001758 	lb	zero,5976(zero)
 404:	00000000 	nop
 408:	00000000 	nop
 40c:	00000000 	nop
 410:	00000000 	nop
 414:	00000000 	nop
 418:	00000000 	nop
 41c:	00000000 	nop
 420:	80001774 	lb	zero,6004(zero)
 424:	80010000 	lb	at,0(zero)
 428:	fffffffc 	sdc3	$31,-4(ra)
 42c:	00000000 	nop
 430:	00000000 	nop
 434:	00000020 	add	zero,zero,zero
 438:	0000001d 	0x1d
 43c:	0000001f 	0x1f
 440:	800017c4 	lb	zero,6084(zero)
 444:	00000000 	nop
 448:	00000000 	nop
 44c:	00000000 	nop
 450:	00000000 	nop
 454:	00000000 	nop
 458:	0000001d 	0x1d
 45c:	0000001f 	0x1f
 460:	800017d8 	lb	zero,6104(zero)
 464:	00000000 	nop
 468:	00000000 	nop
 46c:	00000000 	nop
 470:	00000000 	nop
 474:	00000000 	nop
 478:	0000001d 	0x1d
 47c:	0000001f 	0x1f
 480:	8000181c 	lb	zero,6172(zero)
 484:	00000000 	nop
 488:	00000000 	nop
 48c:	00000000 	nop
 490:	00000000 	nop
 494:	00000000 	nop
 498:	0000001d 	0x1d
 49c:	0000001f 	0x1f

Disassembly of section .gnu.attributes:

00000000 <.gnu.attributes>:
   0:	00000f41 	0xf41
   4:	756e6700 	jalx	5b99c00 <__memory_size+0x5b7a400>
   8:	00070100 	sll	zero,a3,0x4
   c:	03040000 	0x3040000

Disassembly of section .comment:

00000000 <.comment>:
   0:	3a434347 	xori	v1,s2,0x4347
   4:	6f432820 	0x6f432820
   8:	63736564 	0x63736564
   c:	20657061 	addi	a1,v1,28769
  10:	20554e47 	addi	s5,v0,20039
  14:	6c6f6f54 	0x6c6f6f54
  18:	30322073 	andi	s2,at,0x2073
  1c:	302e3531 	andi	t6,at,0x3531
  20:	35302d36 	ori	s0,t1,0x2d36
  24:	726f6620 	0x726f6620
  28:	50494d20 	beql	v0,t1,134ac <__isr_vec_space+0x1348c>
  2c:	544d2053 	bnel	v0,t5,817c <__isr_vec_space+0x815c>
  30:	61422049 	0x61422049
  34:	4d206572 	0x4d206572
  38:	6c617465 	0x6c617465
  3c:	2e342029 	sltiu	s4,s1,8233
  40:	00322e39 	0x322e39
